LX51 LINKER/LOCATER V4.66.100.0                                                         04/25/2024  14:24:29  PAGE 1


LX51 LINKER/LOCATER V4.66.100.0, INVOKED BY:
C:\KEIL_V5\C51\BIN\LX51.EXE .\Output\main.obj, .\Output\Interrupt.obj, .\Output\AddFunction.obj, .\Output\UserMain.obj, 
>> .\Output\UserInterrupt.obj, .\Output\UserAddFunc.obj, .\Output\UserFrame.obj, .\Output\UserDryer.obj, .\Output\UserCa
>> lculate.obj, .\Output\UserSignal.obj, .\Output\UserFlash.obj, .\Output\UserUART.obj, .\Output\FocControl.obj, .\Outpu
>> t\FocControlFunction.obj, .\Output\BEMFDetect.obj, .\Output\FOCTailDect.obj, .\Output\RPD.obj, .\Output\RSDDetect.obj
>> , .\Output\KeyScan.obj, .\Output\LED.obj, .\Output\Flash.obj, .\Output\AMPInit.obj, .\Output\DriverInit.obj, .\Output
>> \EXTIInit.obj, .\Output\SPIInit.obj, .\Output\TimerInit.obj, .\Output\ADCInit.obj, .\Output\CMPInit.obj, .\Output\GPI
>> OInit.obj, .\Output\MDUInit.obj, .\Output\PIInit.obj, .\Output\UARTInit.obj, .\Output\FU68xx_2_System.obj, .\Output\F
>> U68xx_2_DMA.obj, ..\Library\FU68xx_Hardware_Driver\Source\Fu68xx_2_MotorContorl.LIB TO .\Output\FOC_Fortior PRINT (.\
>> Listing\FOC_Fortior.map) REMOVEUNUSED


CPU MODE:     8051 MODE
MEMORY MODEL: LARGE WITH FLOATING POINT ARITHMETIC


INPUT MODULES INCLUDED:
  .\Output\main.obj (MAIN)
         COMMENT TYPE 0: C51 V9.60.7.0
  .\Output\Interrupt.obj (INTERRUPT)
         COMMENT TYPE 0: C51 V9.60.7.0
  .\Output\AddFunction.obj (ADDFUNCTION)
         COMMENT TYPE 0: C51 V9.60.7.0
  .\Output\UserMain.obj (USERMAIN)
         COMMENT TYPE 0: C51 V9.60.7.0
  .\Output\UserInterrupt.obj (USERINTERRUPT)
         COMMENT TYPE 0: C51 V9.60.7.0
  .\Output\UserAddFunc.obj (USERADDFUNC)
         COMMENT TYPE 0: C51 V9.60.7.0
  .\Output\UserFrame.obj (USERFRAME)
         COMMENT TYPE 0: C51 V9.60.7.0
  .\Output\UserDryer.obj (USERDRYER)
         COMMENT TYPE 0: C51 V9.60.7.0
  .\Output\UserCalculate.obj (USERCALCULATE)
         COMMENT TYPE 0: C51 V9.60.7.0
  .\Output\UserSignal.obj (USERSIGNAL)
         COMMENT TYPE 0: C51 V9.60.7.0
  .\Output\UserFlash.obj (USERFLASH)
         COMMENT TYPE 0: C51 V9.60.7.0
  .\Output\UserUART.obj (USERUART)
         COMMENT TYPE 0: C51 V9.60.7.0
  .\Output\FocControl.obj (FOCCONTROL)
         COMMENT TYPE 0: C51 V9.60.7.0
  .\Output\FocControlFunction.obj (FOCCONTROLFUNCTION)
         COMMENT TYPE 0: C51 V9.60.7.0
  .\Output\BEMFDetect.obj (BEMFDETECT)
         COMMENT TYPE 0: C51 V9.60.7.0
  .\Output\FOCTailDect.obj (FOCTAILDECT)
         COMMENT TYPE 0: C51 V9.60.7.0
  .\Output\RPD.obj (RPD)
         COMMENT TYPE 0: C51 V9.60.7.0
  .\Output\RSDDetect.obj (RSDDETECT)
         COMMENT TYPE 0: C51 V9.60.7.0
  .\Output\KeyScan.obj (KEYSCAN)
         COMMENT TYPE 0: C51 V9.60.7.0
  .\Output\LED.obj (LED)
         COMMENT TYPE 0: C51 V9.60.7.0
  .\Output\Flash.obj (FLASH)
         COMMENT TYPE 0: C51 V9.60.7.0
  .\Output\AMPInit.obj (AMPINIT)
         COMMENT TYPE 0: C51 V9.60.7.0
  .\Output\DriverInit.obj (DRIVERINIT)
         COMMENT TYPE 0: C51 V9.60.7.0
  .\Output\EXTIInit.obj (EXTIINIT)
         COMMENT TYPE 0: C51 V9.60.7.0
  .\Output\SPIInit.obj (SPIINIT)
LX51 LINKER/LOCATER V4.66.100.0                                                       04/25/2024  14:24:29  PAGE 2


         COMMENT TYPE 0: C51 V9.60.7.0
  .\Output\TimerInit.obj (TIMERINIT)
         COMMENT TYPE 0: C51 V9.60.7.0
  .\Output\ADCInit.obj (ADCINIT)
         COMMENT TYPE 0: C51 V9.60.7.0
  .\Output\CMPInit.obj (CMPINIT)
         COMMENT TYPE 0: C51 V9.60.7.0
  .\Output\GPIOInit.obj (GPIOINIT)
         COMMENT TYPE 0: C51 V9.60.7.0
  .\Output\MDUInit.obj (MDUINIT)
         COMMENT TYPE 0: C51 V9.60.7.0
  .\Output\PIInit.obj (PIINIT)
         COMMENT TYPE 0: C51 V9.60.7.0
  .\Output\UARTInit.obj (UARTINIT)
         COMMENT TYPE 0: C51 V9.60.7.0
  .\Output\FU68xx_2_System.obj (FU68XX_2_SYSTEM)
         COMMENT TYPE 0: C51 V9.60.7.0
  .\Output\FU68xx_2_DMA.obj (FU68XX_2_DMA)
         COMMENT TYPE 0: C51 V9.60.7.0
  ..\Library\FU68xx_Hardware_Driver\Source\Fu68xx_2_MotorContorl.LIB (FU68XX_2_OTHER)
         COMMENT TYPE 0: C51 V9.52.0.0
  C:\KEIL_V5\C51\LIB\C51FPL.LIB (?C?FPADD)
         COMMENT TYPE 1: A51 / ASM51 Assembler
  C:\KEIL_V5\C51\LIB\C51FPL.LIB (?C?FPMUL)
         COMMENT TYPE 1: A51 / ASM51 Assembler
  C:\KEIL_V5\C51\LIB\C51FPL.LIB (?C?FPDIV)
         COMMENT TYPE 1: A51 / ASM51 Assembler
  C:\KEIL_V5\C51\LIB\C51FPL.LIB (?C?FPCMP)
         COMMENT TYPE 1: A51 / ASM51 Assembler
  C:\KEIL_V5\C51\LIB\C51FPL.LIB (?C?FCAST)
         COMMENT TYPE 1: A51 / ASM51 Assembler
  C:\KEIL_V5\C51\LIB\C51FPL.LIB (?C?CASTF)
         COMMENT TYPE 1: A51 / ASM51 Assembler
  C:\KEIL_V5\C51\LIB\C51FPL.LIB (?C?FPGETOPN)
         COMMENT TYPE 1: A51 / ASM51 Assembler
  C:\KEIL_V5\C51\LIB\C51L.LIB (?C_STARTUP)
         COMMENT TYPE 1: A51 / ASM51 Assembler
  C:\KEIL_V5\C51\LIB\C51L.LIB (?C?CLDPTR)
         COMMENT TYPE 1: A51 / ASM51 Assembler
  C:\KEIL_V5\C51\LIB\C51L.LIB (?C?CLDOPTR)
         COMMENT TYPE 1: A51 / ASM51 Assembler
  C:\KEIL_V5\C51\LIB\C51L.LIB (?C?CILDPTR)
         COMMENT TYPE 1: A51 / ASM51 Assembler
  C:\KEIL_V5\C51\LIB\C51L.LIB (?C?CILDOPTR)
         COMMENT TYPE 1: A51 / ASM51 Assembler
  C:\KEIL_V5\C51\LIB\C51L.LIB (?C?CSTPTR)
         COMMENT TYPE 1: A51 / ASM51 Assembler
  C:\KEIL_V5\C51\LIB\C51L.LIB (?C?CSTOPTR)
         COMMENT TYPE 1: A51 / ASM51 Assembler
  C:\KEIL_V5\C51\LIB\C51L.LIB (?C?IMUL)
         COMMENT TYPE 1: A51 / ASM51 Assembler
  C:\KEIL_V5\C51\LIB\C51L.LIB (?C?UIDIV)
         COMMENT TYPE 1: A51 / ASM51 Assembler
  C:\KEIL_V5\C51\LIB\C51L.LIB (?C?IILDX)
         COMMENT TYPE 1: A51 / ASM51 Assembler
  C:\KEIL_V5\C51\LIB\C51L.LIB (?C?ILDIX)
         COMMENT TYPE 1: A51 / ASM51 Assembler
  C:\KEIL_V5\C51\LIB\C51L.LIB (?C?ILDPTR)
         COMMENT TYPE 1: A51 / ASM51 Assembler
  C:\KEIL_V5\C51\LIB\C51L.LIB (?C?ILDOPTR)
         COMMENT TYPE 1: A51 / ASM51 Assembler
  C:\KEIL_V5\C51\LIB\C51L.LIB (?C?IILDPTR)
         COMMENT TYPE 1: A51 / ASM51 Assembler
  C:\KEIL_V5\C51\LIB\C51L.LIB (?C?IILDOPTR)
         COMMENT TYPE 1: A51 / ASM51 Assembler
LX51 LINKER/LOCATER V4.66.100.0                                                       04/25/2024  14:24:29  PAGE 3


  C:\KEIL_V5\C51\LIB\C51L.LIB (?C?ISTPTR)
         COMMENT TYPE 1: A51 / ASM51 Assembler
  C:\KEIL_V5\C51\LIB\C51L.LIB (?C?ISTOPTR)
         COMMENT TYPE 1: A51 / ASM51 Assembler
  C:\KEIL_V5\C51\LIB\C51L.LIB (?C?LMUL)
         COMMENT TYPE 1: A51 / ASM51 Assembler
  C:\KEIL_V5\C51\LIB\C51L.LIB (?C?ULDIV)
         COMMENT TYPE 1: A51 / ASM51 Assembler
  C:\KEIL_V5\C51\LIB\C51L.LIB (?C?LNEG)
         COMMENT TYPE 1: A51 / ASM51 Assembler
  C:\KEIL_V5\C51\LIB\C51L.LIB (?C?SLCMP)
         COMMENT TYPE 1: A51 / ASM51 Assembler
  C:\KEIL_V5\C51\LIB\C51L.LIB (?C?ULCMP)
         COMMENT TYPE 1: A51 / ASM51 Assembler
  C:\KEIL_V5\C51\LIB\C51L.LIB (?C?ULSHR)
         COMMENT TYPE 1: A51 / ASM51 Assembler
  C:\KEIL_V5\C51\LIB\C51L.LIB (?C?SLSHR)
         COMMENT TYPE 1: A51 / ASM51 Assembler
  C:\KEIL_V5\C51\LIB\C51L.LIB (?C?LLDOPTR)
         COMMENT TYPE 1: A51 / ASM51 Assembler
  C:\KEIL_V5\C51\LIB\C51L.LIB (?C?LSTOPTR)
         COMMENT TYPE 1: A51 / ASM51 Assembler
  C:\KEIL_V5\C51\LIB\C51L.LIB (?C?LLDIDATA)
         COMMENT TYPE 1: A51 / ASM51 Assembler
  C:\KEIL_V5\C51\LIB\C51L.LIB (?C?LLDIDATA0)
         COMMENT TYPE 1: A51 / ASM51 Assembler
  C:\KEIL_V5\C51\LIB\C51L.LIB (?C?LSTIDATA)
         COMMENT TYPE 1: A51 / ASM51 Assembler
  C:\KEIL_V5\C51\LIB\C51L.LIB (?C?LSTXDATA)
         COMMENT TYPE 1: A51 / ASM51 Assembler
  C:\KEIL_V5\C51\LIB\C51L.LIB (?C?LSTKIDATA)
         COMMENT TYPE 1: A51 / ASM51 Assembler
  C:\KEIL_V5\C51\LIB\C51L.LIB (?C?LSTKXDATA)
         COMMENT TYPE 1: A51 / ASM51 Assembler
  C:\KEIL_V5\C51\LIB\C51L.LIB (?C?LIMUL)
         COMMENT TYPE 1: A51 / ASM51 Assembler
  C:\KEIL_V5\C51\LIB\C51L.LIB (?C?MEMSET)
         COMMENT TYPE 1: A51 / ASM51 Assembler
  C:\KEIL_V5\C51\LIB\C51L.LIB (?C_INIT)
         COMMENT TYPE 1: A51 / ASM51 Assembler
  C:\KEIL_V5\C51\LIB\C51L.LIB (?C?LLDXDATA)
         COMMENT TYPE 1: A51 / ASM51 Assembler
  C:\KEIL_V5\C51\LIB\C51L.LIB (?C?LLDPDATA)
         COMMENT TYPE 1: A51 / ASM51 Assembler
  C:\KEIL_V5\C51\LIB\C51L.LIB (?C?LLDCODE)
         COMMENT TYPE 1: A51 / ASM51 Assembler
  C:\KEIL_V5\C51\LIB\C51L.LIB (?C?LSTPDATA)
         COMMENT TYPE 1: A51 / ASM51 Assembler


ACTIVE MEMORY CLASSES OF MODULE:  .\Output\FOC_Fortior (MAIN)

BASE        START       END         USED      MEMORY CLASS
==========================================================
C:000000H   C:000000H   C:00FFFFH   003866H   CODE
X:000000H   X:000000H   X:00FFFFH   0002CFH   XDATA
I:000000H   I:000000H   I:0000FFH   0000B9H   IDATA
I:000020H.0 I:000020H.0 I:00002FH.7 000002H.0 BIT
C:000000H   C:000000H   C:00FFFFH             CONST
I:000000H   I:000000H   I:00007FH   000008H   DATA


MEMORY MAP OF MODULE:  .\Output\FOC_Fortior (MAIN)


LX51 LINKER/LOCATER V4.66.100.0                                                       04/25/2024  14:24:29  PAGE 4


START     STOP      LENGTH    ALIGN  RELOC    MEMORY CLASS   SEGMENT NAME
=========================================================================

* * * * * * * * * * *   D A T A   M E M O R Y   * * * * * * * * * * * * *
000000H   000007H   000008H   ---    AT..     DATA           "REG BANK 0"
000008H   000009H   000002H   BYTE   UNIT     IDATA          ?ID?USERSIGNAL
00000AH   00000AH   000001H   BYTE   UNIT     IDATA          ?ID?FLASH
00000BH.0 00001FH.7 000015H.0 ---    ---      **GAP**
000020H.0 000021H.2 000001H.3 BIT    UNIT     BIT            ?BI?USERDRYER
000021H.3 000021H.3 000000H.1 BIT    UNIT     BIT            ?BI?USERMAIN
000021H.4 000021H.4 000000H.1 BIT    UNIT     BIT            ?BI?USERFRAME
000021H.5 000021H.5 000000H.1 BIT    UNIT     BIT            ?BI?USERSIGNAL
000021H.6 000021H.6 000000H.1 BIT    UNIT     BIT            ?BI?LED
000021H.7 000021H.7 000000H.1 BIT    UNIT     BIT            _BIT_GROUP_
000022H   000062H   000041H   BYTE   UNIT     IDATA          ?ID?USERFRAME
000063H   000099H   000037H   BYTE   UNIT     IDATA          ?ID?ADDFUNCTION
00009AH   0000B9H   000020H   BYTE   UNIT     IDATA          ?ID?USERDRYER
0000BAH   0000D6H   00001DH   BYTE   UNIT     IDATA          ?ID?USERUART
0000D7H   0000D7H   000001H   BYTE   UNIT     IDATA          ?STACK

* * * * * * * * * * *   C O D E   M E M O R Y   * * * * * * * * * * * * *
000000H   000002H   000003H   ---    OFFS..   CODE           ?CO??C_STARTUP?0
000003H   000005H   000003H   BYTE   OFFS..   CODE           ?INTERRUPT?00003
000006H   000006H   000001H   BYTE   UNIT     CODE           ?PR?INT0?INTERRUPT
000007H   000007H   000001H   BYTE   UNIT     CODE           ?PR?INT5?INTERRUPT
000008H   000008H   000001H   BYTE   UNIT     CODE           ?PR?INT6?INTERRUPT
000009H   000009H   000001H   BYTE   UNIT     CODE           ?PR?INT8?INTERRUPT
00000AH   00000AH   000001H   BYTE   UNIT     CODE           ?PR?INT11?INTERRUPT
00000BH   00000DH   000003H   BYTE   OFFS..   CODE           ?USERINTERRUPT?0000B
00000EH   00000EH   000001H   BYTE   UNIT     CODE           ?PR?INT13?INTERRUPT
00000FH   00000FH   000001H   BYTE   UNIT     CODE           ?PR?INT14?INTERRUPT
000010H   000010H   000001H   BYTE   UNIT     CODE           ?PR?INT15?INTERRUPT
000011H   000012H   000002H   ---    ---      **GAP**
000013H   000015H   000003H   BYTE   OFFS..   CODE           ?USERINTERRUPT?00013
000016H   00001AH   000005H   ---    ---      **GAP**
00001BH   00001DH   000003H   BYTE   OFFS..   CODE           ?USERINTERRUPT?0001B
00001EH   000022H   000005H   ---    ---      **GAP**
000023H   000025H   000003H   BYTE   OFFS..   CODE           ?INTERRUPT?00023
000026H   00002AH   000005H   ---    ---      **GAP**
00002BH   00002DH   000003H   BYTE   OFFS..   CODE           ?INTERRUPT?0002B
00002EH   000032H   000005H   ---    ---      **GAP**
000033H   000035H   000003H   BYTE   OFFS..   CODE           ?INTERRUPT?00033
000036H   00003AH   000005H   ---    ---      **GAP**
00003BH   00003DH   000003H   BYTE   OFFS..   CODE           ?USERINTERRUPT?0003B
00003EH   000042H   000005H   ---    ---      **GAP**
000043H   000045H   000003H   BYTE   OFFS..   CODE           ?INTERRUPT?00043
000046H   00004AH   000005H   ---    ---      **GAP**
00004BH   00004DH   000003H   BYTE   OFFS..   CODE           ?INTERRUPT?0004B
00004EH   000052H   000005H   ---    ---      **GAP**
000053H   000055H   000003H   BYTE   OFFS..   CODE           ?USERINTERRUPT?00053
000056H   00005AH   000005H   ---    ---      **GAP**
00005BH   00005DH   000003H   BYTE   OFFS..   CODE           ?INTERRUPT?0005B
00005EH   000062H   000005H   ---    ---      **GAP**
000063H   000065H   000003H   BYTE   OFFS..   CODE           ?USERINTERRUPT?00063
000066H   00006AH   000005H   ---    ---      **GAP**
00006BH   00006DH   000003H   BYTE   OFFS..   CODE           ?INTERRUPT?0006B
00006EH   000072H   000005H   ---    ---      **GAP**
000073H   000075H   000003H   BYTE   OFFS..   CODE           ?INTERRUPT?00073
000076H   00007AH   000005H   ---    ---      **GAP**
00007BH   00007DH   000003H   BYTE   OFFS..   CODE           ?INTERRUPT?0007B
00007EH   0009BEH   000941H   BYTE   UNIT     CODE           ?C?LIB_CODE
0009BFH   00107EH   0006C0H   BYTE   UNIT     CODE           ?PR?DRYERPER1MS?USERDRYER
00107FH   001515H   000497H   BYTE   UNIT     CODE           ?PR?LOOPPROPER1MS?USERFRAME
001516H   0018EAH   0003D5H   BYTE   UNIT     CODE           ?PR?COMMANDPER10MS?USERFRAME
0018EBH   001B43H   000259H   BYTE   UNIT     CODE           ?PR?TIM_1MS_INT?USERINTERRUPT
LX51 LINKER/LOCATER V4.66.100.0                                                       04/25/2024  14:24:29  PAGE 5


001B44H   001D42H   0001FFH   BYTE   UNIT     CODE           ?PR?REGULATION?USERADDFUNC
001D43H   001EE1H   00019FH   BYTE   UNIT     CODE           ?PR?MC_CONTROL?FOCCONTROL
001EE2H   002044H   000163H   BYTE   UNIT     CODE           ?PR?SPEEDRESTRICTION?USERCALCULATE
002045H   0021A6H   000162H   BYTE   UNIT     CODE           ?PR?CHECKSTARTFAULT?USERADDFUNC
0021A7H   0022F4H   00014EH   BYTE   UNIT     CODE           ?PR?CHECKCURRENT?USERCALCULATE
0022F5H   002420H   00012CH   BYTE   UNIT     CODE           ?PR?FOC_INIT?FOCCONTROLFUNCTION
002421H   002547H   000127H   BYTE   UNIT     CODE           ?PR?CHECKSTALLFAULT?USERADDFUNC
002548H   002668H   000121H   BYTE   UNIT     CODE           ?PR?MAIN?USERMAIN
002669H   002785H   00011DH   BYTE   UNIT     CODE           ?PR?DRYERFLASHINIT?USERFLASH
002786H   002880H   0000FBH   BYTE   UNIT     CODE           ?PR?MOTORCONTROLINIT?FOCCONTROLFUNCTION
002881H   002966H   0000E6H   BYTE   UNIT     CODE           ?PR?MOTOR_CHARGE?FOCCONTROLFUNCTION
002967H   002A3AH   0000D4H   BYTE   UNIT     CODE           ?PR?GETCURRENTOFFSET?FOCCONTROLFUNCTION
002A3BH   002B0BH   0000D1H   BYTE   UNIT     CODE           ?PR?CHECKTEMPER?USERCALCULATE
002B0CH   002BDCH   0000D1H   BYTE   UNIT     CODE           ?PR?CHECKHEATTEMPER?USERCALCULATE
002BDDH   002C8AH   0000AEH   BYTE   UNIT     CODE           ?PR?MOTOR_OPEN?FOCCONTROLFUNCTION
002C8BH   002D27H   00009DH   BYTE   UNIT     CODE           ?PR?CMP_ISR?USERINTERRUPT
002D28H   002DB3H   00008CH   BYTE   UNIT     CODE           ?PR?STARRAMPDEALWITH?ADDFUNCTION
002DB4H   002E3FH   00008CH   BYTE   UNIT     CODE           ?C_C51STARTUP
002E40H   002EC5H   000086H   BYTE   UNIT     CODE           ?PR?FLASHLOOPPRO?USERFLASH
002EC6H   002F40H   00007BH   BYTE   UNIT     CODE           ?PR?EK_DEAL?USERADDFUNC
002F41H   002FB8H   000078H   BYTE   UNIT     CODE           ?PR?VSPIBUSRAMP?USERFRAME
002FB9H   003030H   000078H   BYTE   UNIT     CODE           ?PR?MOTOR_ALIGN?FOCCONTROLFUNCTION
003031H   0030A5H   000075H   BYTE   UNIT     CODE           ?PR?ADC_INIT?ADCINIT
0030A6H   003114H   00006FH   BYTE   UNIT     CODE           ?PR?_MDU_DIV_XDATA_U32?MDUINIT
003115H   003179H   000065H   BYTE   UNIT     CODE           ?PR?VARIABLESPREINIT?FOCCONTROLFUNCTION
00317AH   0031DDH   000064H   BYTE   UNIT     CODE           ?PR?VSPSPEEDRAMP?USERFRAME
0031DEH   00323BH   00005EH   BYTE   UNIT     CODE           ?PR?FLASHEARSEANDWRITE?USERFLASH
00323CH   003299H   00005EH   BYTE   UNIT     CODE           ?PR?_MDU_DIV_IDATA_U32?MDUINIT
00329AH   0032F5H   00005CH   BYTE   UNIT     CODE           ?PR?DRIVER_INIT?DRIVERINIT
0032F6H   00334DH   000058H   BYTE   UNIT     CODE           ?PR?CALALARMFLAG?USERFRAME
00334EH   00339FH   000052H   BYTE   UNIT     CODE           ?PR?GPIO_INIT?GPIOINIT
0033A0H   0033EBH   00004CH   BYTE   UNIT     CODE           ?PR?FOC_INT?USERINTERRUPT
0033ECH   003436H   00004BH   BYTE   UNIT     CODE           ?PR?FLASHWRITEDATA?USERFLASH
003437H   003481H   00004BH   BYTE   UNIT     CODE           ?PR?_VREFCONFIG?FU68XX_2_SYSTEM
003482H   0034C3H   000042H   BYTE   UNIT     CODE           ?PR?FO_INT?USERINTERRUPT
0034C4H   003502H   00003FH   BYTE   UNIT     CODE           ?PR?CMP3_INIT?CMPINIT
003503H   00353DH   00003BH   BYTE   UNIT     CODE           ?PR?APP_DIV?ADDFUNCTION
00353EH   003574H   000037H   BYTE   UNIT     CODE           ?PR?SETFAULTRESATRT?USERADDFUNC
003575H   0035AAH   000036H   BYTE   UNIT     CODE           ?PR?MOTOR_READY?FOCCONTROLFUNCTION
0035ABH   0035E0H   000036H   BYTE   UNIT     CODE           ?PR?FOCTAILWINDTIMELIMIT?FOCTAILDECT
0035E1H   003614H   000034H   BYTE   UNIT     CODE           ?PR?_CALTEMPEROFFSET?USERCALCULATE
003615H   003646H   000032H   BYTE   UNIT     CODE           ?PR?_FLASH_SECTOR_ERASE?FU68XX_2_SYSTEM
003647H   003677H   000031H   BYTE   UNIT     CODE           ?PR?_FLASH_SECTOR_WRITE?FU68XX_2_SYSTEM
003678H   0036A6H   00002FH   BYTE   UNIT     CODE           ?PR?USERPARAS?USERFRAME
0036A7H   0036D3H   00002DH   BYTE   UNIT     CODE           ?PR?_LPFFUNCTION?ADDFUNCTION
0036D4H   003700H   00002DH   BYTE   UNIT     CODE           ?PR?PI_INIT?PIINIT
003701H   00372AH   00002AH   BYTE   UNIT     CODE           ?C_INITSEG
00372BH   00374FH   000025H   BYTE   UNIT     CODE           ?PR?CALSPEEDSTEPTOCMD?USERDRYER
003750H   003773H   000024H   BYTE   UNIT     CODE           ?PR?ZEROCROSSING_INIT?EXTIINIT
003774H   003794H   000021H   BYTE   UNIT     CODE           ?PR?EXTERN_INT?USERINTERRUPT
003795H   0037B4H   000020H   BYTE   UNIT     CODE           ?PR?TIM3_INT?INTERRUPT
0037B5H   0037D4H   000020H   BYTE   UNIT     CODE           ?PR?CALHEATSTEPTOCMD?USERDRYER
0037D5H   0037F1H   00001DH   BYTE   UNIT     CODE           ?PR?TIM2_INT?INTERRUPT
0037F2H   00380EH   00001DH   BYTE   UNIT     CODE           ?PR?MOTOR_INIT?FOCCONTROLFUNCTION
00380FH   00382AH   00001CH   BYTE   UNIT     CODE           ?PR?SHUTPERFORM?USERADDFUNC
00382BH   003845H   00001BH   BYTE   UNIT     CODE           ?PR?AMP_INIT?AMPINIT
003846H   00385DH   000018H   BYTE   UNIT     CODE           ?PR?_IBUSPI?USERADDFUNC
00385EH   00386FH   000012H   BYTE   UNIT     CODE           ?PR?CMP3_INTER_INIT?CMPINIT
003870H   00387DH   00000EH   BYTE   UNIT     CODE           ?PR?TIM1MS_INIT?TIMERINIT
00387EH   00388AH   00000DH   BYTE   UNIT     CODE           ?PR?DRYERKEYSDEFAULT?USERDRYER
00388BH   003896H   00000CH   BYTE   UNIT     CODE           ?PR?CANCLERESATRT?USERADDFUNC
003897H   0038A1H   00000BH   BYTE   UNIT     CODE           ?PR?USART_INT?USERINTERRUPT
0038A2H   0038A8H   000007H   BYTE   UNIT     CODE           ?PR?CALCOOLLVTOCMD?USERDRYER

* * * * * * * * * * *  X D A T A   M E M O R Y  * * * * * * * * * * * * *
LX51 LINKER/LOCATER V4.66.100.0                                                       04/25/2024  14:24:29  PAGE 6


000000H   0000E7H   0000E8H   BYTE   UNIT     XDATA          ?XD?ADDFUNCTION
0000E8H   000143H   00005CH   BYTE   UNIT     XDATA          ?XD?USERFRAME
000144H   00017CH   000039H   BYTE   UNIT     XDATA          ?XD?UARTINIT
00017DH   0001A8H   00002CH   BYTE   UNIT     XDATA          ?XD?RPD
0001A9H   0001CDH   000025H   BYTE   UNIT     XDATA          ?XD?EXTIINIT
0001CEH   0001EFH   000022H   BYTE   UNIT     XDATA          ?XD?USERCALCULATE
0001F0H   000211H   000022H   BYTE   UNIT     XDATA          ?XD?BEMFDETECT
000212H   00022AH   000019H   BYTE   UNIT     XDATA          ?XD?FOCTAILDECT
00022BH   000243H   000019H   BYTE   UNIT     XDATA          ?XD?KEYSCAN
000244H   00025AH   000017H   BYTE   UNIT     XDATA          ?XD?FOCCONTROLFUNCTION
00025BH   00026DH   000013H   BYTE   UNIT     XDATA          ?XD?USERUART
00026EH   00027FH   000012H   BYTE   UNIT     XDATA          ?XD?USERADDFUNC
000280H   000290H   000011H   BYTE   UNIT     XDATA          ?XD?USERDRYER
000291H   00029EH   00000EH   BYTE   UNIT     XDATA          _XDATA_GROUP_
00029FH   0002A9H   00000BH   BYTE   UNIT     XDATA          ?XD?USERSIGNAL
0002AAH   0002B4H   00000BH   BYTE   UNIT     XDATA          ?XD?USERFLASH
0002B5H   0002BEH   00000AH   BYTE   UNIT     XDATA          ?XD?INTERRUPT
0002BFH   0002C6H   000008H   BYTE   UNIT     XDATA          ?XD?LED
0002C7H   0002CAH   000004H   BYTE   UNIT     XDATA          ?XD?FOCCONTROL
0002CBH   0002CCH   000002H   BYTE   UNIT     XDATA          ?XD?USERMAIN
0002CDH   0002CEH   000002H   BYTE   UNIT     XDATA          ?XD?FLASH

* * * * * * * * *   R E M O V E D     S E G M E N T S   * * * * * * * *
   *DEL*:           000001H   BYTE   UNIT     CODE           ?PR?DEBUGSET?MAIN
   *DEL*:           000016H   BYTE   UNIT     CODE           ?PR?SOFTWAREINIT?MAIN
   *DEL*:           000019H   BYTE   UNIT     CODE           ?PR?HARDWAREINIT?MAIN
   *DEL*:           000052H   BYTE   UNIT     CODE           ?PR?OUTLOOPPARAMETERSET?ADDFUNCTION
   *DEL*:           000040H   BYTE   UNIT     CODE           ?PR?_KLPF_VALUE?ADDFUNCTION
   *DEL*:           000004H   BYTE   UNIT     XDATA          ?XD?_KLPF_VALUE?ADDFUNCTION
   *DEL*:           000014H   BYTE   UNIT     CODE           ?PR?FAULTPROCESS?ADDFUNCTION
   *DEL*:           000019H   BYTE   UNIT     CODE           ?PR?_ABS_F16?ADDFUNCTION
   *DEL*:           000040H   BYTE   UNIT     CODE           ?PR?_ABS_F32?ADDFUNCTION
   *DEL*:           000004H   BYTE   UNIT     XDATA          ?XD?_ABS_F32?ADDFUNCTION
   *DEL*:           0001EEH   BYTE   UNIT     CODE           ?PR?PWMINPUTCAPTURE?ADDFUNCTION
   *DEL*:           000002H   BYTE   UNIT     XDATA          ?XD?PWMINPUTCAPTURE?ADDFUNCTION
   *DEL*:           000308H   BYTE   UNIT     CODE           ?PR?_FAULT_OVERUNDERVOLTAGE?ADDFUNCTION
   *DEL*:           000003H   BYTE   UNIT     XDATA          ?XD?_FAULT_OVERUNDERVOLTAGE?ADDFUNCTION
   *DEL*:           00005DH   BYTE   UNIT     CODE           ?PR?_FAULT_POWER?ADDFUNCTION
   *DEL*:           0001D3H   BYTE   UNIT     CODE           ?PR?_FAULT_TEMPERATURE?ADDFUNCTION
   *DEL*:           000003H   BYTE   UNIT     XDATA          ?XD?_FAULT_TEMPERATURE?ADDFUNCTION
   *DEL*:           000121H   BYTE   UNIT     CODE           ?PR?_FAULT_OVERCURRENT?ADDFUNCTION
   *DEL*:           000056H   BYTE   UNIT     CODE           ?PR?_FAULT_OVERCURRENTRECOVER?ADDFUNCTION
   *DEL*:           000050H   BYTE   UNIT     CODE           ?PR?_FAULT_OVERPOWERRECOVER?ADDFUNCTION
   *DEL*:           000130H   BYTE   UNIT     CODE           ?PR?_FAULT_START?ADDFUNCTION
   *DEL*:           0000FEH   BYTE   UNIT     CODE           ?PR?_FAULT_STALL?ADDFUNCTION
   *DEL*:           000006H   BYTE   UNIT     XDATA          ?XD?_FAULT_STALL?ADDFUNCTION
   *DEL*:           0001EEH   BYTE   UNIT     CODE           ?PR?_FAULT_PHASELOSS?ADDFUNCTION
   *DEL*:           000087H   BYTE   UNIT     CODE           ?PR?FAULT_DETECTION?ADDFUNCTION
   *DEL*:           0000DCH   BYTE   UNIT     CODE           ?PR?_ONOFF_STARTTEST?ADDFUNCTION
   *DEL*:           000003H   BYTE   UNIT     XDATA          ?XD?_ONOFF_STARTTEST?ADDFUNCTION
   *DEL*:           000132H   BYTE   UNIT     CODE           ?PR?SPEED_RESPONSE?ADDFUNCTION
   *DEL*:           000076H   BYTE   UNIT     CODE           ?PR?FGOUTPUT?ADDFUNCTION
   *DEL*:           000089H   BYTE   UNIT     CODE           ?PR?_SOFTLPF?ADDFUNCTION
   *DEL*:           00000CH   BYTE   UNIT     XDATA          ?XD?_SOFTLPF?ADDFUNCTION
   *DEL*:           000085H   BYTE   UNIT     CODE           ?PR?LED_DISPLAY?ADDFUNCTION
   *DEL*:           0000B4H   BYTE   UNIT     CODE           ?PR?_LED_ONOFF?ADDFUNCTION
   *DEL*:           000001H   BYTE   UNIT     XDATA          ?XD?_LED_ONOFF?ADDFUNCTION
   *DEL*:           000117H   BYTE   UNIT     CODE           ?PR?_MC_RAMP?ADDFUNCTION
   *DEL*:           000003H   BYTE   UNIT     XDATA          ?XD?_MC_RAMP?ADDFUNCTION
   *DEL*:           000019H   BYTE   UNIT     CODE           ?PR?_HW_ONE_PI?ADDFUNCTION
   *DEL*:           000078H   BYTE   UNIT     CODE           ?PR?_HW_PI_CONTROL?ADDFUNCTION
   *DEL*:           00006BH   BYTE   UNIT     CODE           ?PR?SLEEPMODE?ADDFUNCTION
   *DEL*:           000001H   BYTE   UNIT     CODE           ?PR?CALMAXRPM?USERCALCULATE
   *DEL*:           000001H   BYTE   UNIT     CODE           ?PR?CALCVSPREF?USERCALCULATE
   *DEL*:           000001H   BYTE   UNIT     CODE           ?PR?LEDFAULTSPARK?USERSIGNAL
LX51 LINKER/LOCATER V4.66.100.0                                                       04/25/2024  14:24:29  PAGE 7


   *DEL*:           000012H   BYTE   UNIT     CODE           ?PR?UARTDATAINIT?USERUART
   *DEL*:           000061H   BYTE   UNIT     CODE           ?PR?UARTGETDATA?USERUART
   *DEL*:           000041H   BYTE   UNIT     CODE           ?PR?UARTSETDATA?USERUART
   *DEL*:           000100H   BYTE   UNIT     CODE           ?PR?UARTPER1MS?USERUART
   *DEL*:           00013DH   BYTE   UNIT     CODE           ?PR?MOTOR_PLLSTART?FOCCONTROLFUNCTION
   *DEL*:           00001CH   BYTE   UNIT     CODE           ?PR?MOTOR_TAILWIND?FOCCONTROLFUNCTION
   *DEL*:           000010H   BYTE   UNIT     CODE           ?PR?MC_STOP?FOCCONTROLFUNCTION
   *DEL*:           000035H   BYTE   UNIT     CODE           ?PR?BEMFDETECTINIT?BEMFDETECT
   *DEL*:           00003EH   BYTE   UNIT     CODE           ?PR?CMP_BMEF_INIT?BEMFDETECT
   *DEL*:           00002EH   BYTE   UNIT     CODE           ?PR?TIME2_BMEF_INIT?BEMFDETECT
   *DEL*:           000019H   BYTE   UNIT     CODE           ?PR?GETBEMFSTATUS?BEMFDETECT
   *DEL*:           0000B6H   BYTE   UNIT     CODE           ?PR?_CWCCWDETECT?BEMFDETECT
   *DEL*:           000106H   BYTE   UNIT     CODE           ?PR?BEMFSPEEDDETECT?BEMFDETECT
   *DEL*:           00001FH   BYTE   UNIT     CODE           ?PR?BEMFSPEEDCAL?BEMFDETECT
   *DEL*:           000057H   BYTE   UNIT     CODE           ?PR?BEMFDETECTFUNC?BEMFDETECT
   *DEL*:           00010FH   BYTE   UNIT     CODE           ?PR?BEMFDEALWITH?BEMFDETECT
   *DEL*:           000113H   BYTE   UNIT     CODE           ?PR?BEMFFOCCLOSELOOPSTART?BEMFDETECT
   *DEL*:           000068H   BYTE   UNIT     CODE           ?PR?TAILWINDDETECTINIT?FOCTAILDECT
   *DEL*:           00011AH   BYTE   UNIT     CODE           ?PR?TAILWINDSPEEDDETECT?FOCTAILDECT
   *DEL*:           000111H   BYTE   UNIT     CODE           ?PR?FOCCLOSELOOPSTART?FOCTAILDECT
   *DEL*:           000004H   BYTE   UNIT     CODE           ?PR?FOCTAILWINDDEALWITH?FOCTAILDECT
   *DEL*:           00014AH   BYTE   UNIT     CODE           ?PR?SMO_TAILWINDDEALWITH?FOCTAILDECT
   *DEL*:           000118H   BYTE   UNIT     CODE           ?PR?PLL_TAILWINDDEALWITH?FOCTAILDECT
   *DEL*:           0000BCH   BYTE   UNIT     CODE           ?PR?RPD_INIT?RPD
   *DEL*:           000026H   BYTE   UNIT     CODE           ?PR?TIME2_RPD_INIT?RPD
   *DEL*:           0000D1H   BYTE   UNIT     CODE           ?PR?RPD?RPD
   *DEL*:           000040H   BYTE   UNIT     CODE           ?PR?RSDDETECTINIT?RSDDETECT
   *DEL*:           00002FH   BYTE   UNIT     CODE           ?PR?CMP_RSD_INIT?RSDDETECT
   *DEL*:           00002EH   BYTE   UNIT     CODE           ?PR?TIME2_RSD_INIT?RSDDETECT
   *DEL*:           0000F3H   BYTE   UNIT     CODE           ?PR?RSDFRDETECT?RSDDETECT
   *DEL*:           00019BH   BYTE   UNIT     CODE           ?PR?RSDDEALWITH?RSDDETECT
   *DEL*:           00016EH   BYTE   UNIT     CODE           ?PR?RSDFOCCLOSELOOPSTART?RSDDETECT
   *DEL*:           000094H   BYTE   UNIT     CODE           ?PR?KEYINIT?KEYSCAN
   *DEL*:           00014CH   BYTE   UNIT     CODE           ?PR?KEYVALUE?KEYSCAN
   *DEL*:           000018H   BYTE   UNIT     CODE           ?PR?KEYSCAN?KEYSCAN
   *DEL*:           000001H   BYTE   UNIT     CODE           ?PR?LEDCONTROL?LED
   *DEL*:           000073H   BYTE   UNIT     CODE           ?PR?MOTOR_EN?LED
   *DEL*:           00001CH   BYTE   UNIT     CODE           ?PR?KEYCONTROL?LED
   *DEL*:           000106H   BYTE   UNIT     CODE           ?PR?_WRITE2BYTE2FLASH?FLASH
   *DEL*:           000007H   BYTE   UNIT     XDATA          ?XD?_WRITE2BYTE2FLASH?FLASH
   *DEL*:           00006FH   BYTE   UNIT     CODE           ?PR?_WRITE1BYTE2FLASH?FLASH
   *DEL*:           000004H   BYTE   UNIT     XDATA          ?XD?_WRITE1BYTE2FLASH?FLASH
   *DEL*:           000042H   BYTE   UNIT     CODE           ?PR?_GET1BYTEFROMFLASH?FLASH
   *DEL*:           000019H   BYTE   UNIT     CODE           ?PR?EXTI_INIT?EXTIINIT
   *DEL*:           00001DH   BYTE   UNIT     CODE           ?PR?SLEEPMODE_INIT?EXTIINIT
   *DEL*:           00007CH   BYTE   UNIT     CODE           ?PR?TEMPERATUREPID?EXTIINIT
   *DEL*:           0000A9H   BYTE   UNIT     CODE           ?PR?TEMPAVERAGE?EXTIINIT
   *DEL*:           000001H   BYTE   UNIT     XDATA          ?XD?TEMPAVERAGE?EXTIINIT
   *DEL*:           000014H   BYTE   UNIT     CODE           ?PR?_GET_GCD?EXTIINIT
   *DEL*:           000042H   BYTE   UNIT     CONST          ?CO?EXTIINIT
   *DEL*:           000037H   BYTE   UNIT     CODE           ?PR?SPI_INIT?SPIINIT
   *DEL*:           000059H   BYTE   UNIT     CODE           ?PR?_SPI_SENDDATA?SPIINIT
   *DEL*:           000001H   BYTE   UNIT     CODE           ?PR?TIM0_INIT?TIMERINIT
   *DEL*:           000001H   BYTE   UNIT     CODE           ?PR?TIM1_INIT?TIMERINIT
   *DEL*:           000030H   BYTE   UNIT     CODE           ?PR?TIM2_INIT?TIMERINIT
   *DEL*:           000044H   BYTE   UNIT     CODE           ?PR?TIM3_INIT?TIMERINIT
   *DEL*:           000040H   BYTE   UNIT     CODE           ?PR?TIM4_INIT?TIMERINIT
   *DEL*:           00002AH   BYTE   UNIT     CODE           ?PR?GPIO_DEFAULT_INIT?GPIOINIT
   *DEL*:           000048H   BYTE   UNIT     CODE           ?PR?_MDU_DIV_XDATA_U16?MDUINIT
   *DEL*:           000002H   BYTE   UNIT     XDATA          ?XD?_MDU_DIV_XDATA_U16?MDUINIT
   *DEL*:           00003CH   BYTE   UNIT     CODE           ?PR?_MDU_DIV_IDATA_U16?MDUINIT
   *DEL*:           000002H   BYTE   UNIT     XDATA          ?XD?_MDU_DIV_IDATA_U16?MDUINIT
   *DEL*:           000030H   BYTE   UNIT     CODE           ?PR?_MDU_16MUL16_INT?MDUINIT
   *DEL*:           000032H   BYTE   UNIT     CODE           ?PR?_MDU_MUL_XDATA_U32?MDUINIT
   *DEL*:           000064H   BYTE   UNIT     CODE           ?PR?_MDU_MUL_XDATA_RIGHT_U32?MDUINIT
LX51 LINKER/LOCATER V4.66.100.0                                                       04/25/2024  14:24:29  PAGE 8


   *DEL*:           000007H   BYTE   UNIT     XDATA          ?XD?_MDU_MUL_XDATA_RIGHT_U32?MDUINIT
   *DEL*:           000022H   BYTE   UNIT     CODE           ?PR?_MDU_MUL_XDATA_U16?MDUINIT
   *DEL*:           000025H   BYTE   UNIT     CODE           ?PR?_MDU_MUL_IDATA_U32?MDUINIT
   *DEL*:           000022H   BYTE   UNIT     CODE           ?PR?UART_INIT?UARTINIT
   *DEL*:           000063H   BYTE   UNIT     CODE           ?PR?_UARTTXDATE?UARTINIT
   *DEL*:           000009H   BYTE   UNIT     XDATA          ?XD?_UARTTXDATE?UARTINIT
   *DEL*:           00000EH   BYTE   UNIT     CODE           ?PR?_UART_SENDDATA?UARTINIT
   *DEL*:           000001H   BYTE   UNIT     CODE           ?PR?UARTDEALRESPONSE?UARTINIT
   *DEL*:           000103H   BYTE   UNIT     CODE           ?PR?UARTDEALCOMM?UARTINIT
   *DEL*:           000004H   BYTE   UNIT     XDATA          ?XD?UARTDEALCOMM?UARTINIT
   *DEL*:           000017H   BYTE   UNIT     CODE           ?PR?VHALFCONFIG?FU68XX_2_SYSTEM
   *DEL*:           000000H.1 BIT    UNIT     BIT            ?BI?VHALFCONFIG?FU68XX_2_SYSTEM
   *DEL*:           00003EH   BYTE   UNIT     CODE           ?PR?_WATCHDOGCONFIG?FU68XX_2_SYSTEM
   *DEL*:           000000H.1 BIT    UNIT     BIT            ?BI?_WATCHDOGCONFIG?FU68XX_2_SYSTEM
   *DEL*:           000008H   BYTE   UNIT     CODE           ?PR?WATCHDOGREFRESH?FU68XX_2_SYSTEM
   *DEL*:           000007H   BYTE   UNIT     CODE           ?PR?_INIT_DMA?FU68XX_2_DMA
   *DEL*:           000072H   BYTE   UNIT     CODE           ?PR?_SET_DMA?FU68XX_2_DMA
   *DEL*:           000006H   BYTE   UNIT     XDATA          ?XD?_SET_DMA?FU68XX_2_DMA
   *DEL*:           000033H   BYTE   UNIT     CODE           ?PR?_SET_DBG_DMA?FU68XX_2_DMA
   *DEL*:           00001EH   BYTE   UNIT     CODE           ?PR?RPD_0_VWINIT?FU68XX_2_OTHER
   *DEL*:           00001EH   BYTE   UNIT     CODE           ?PR?RPD_1_WVINIT?FU68XX_2_OTHER
   *DEL*:           00001EH   BYTE   UNIT     CODE           ?PR?RPD_2_UVINIT?FU68XX_2_OTHER
   *DEL*:           00001EH   BYTE   UNIT     CODE           ?PR?RPD_3_VUINIT?FU68XX_2_OTHER
   *DEL*:           00001EH   BYTE   UNIT     CODE           ?PR?RPD_4_WUINIT?FU68XX_2_OTHER
   *DEL*:           00001EH   BYTE   UNIT     CODE           ?PR?RPD_5_UWINIT?FU68XX_2_OTHER
   *DEL*:           00007DH   BYTE   UNIT     CODE           ?PR?RPD_INJECT?FU68XX_2_OTHER
   *DEL*:           000174H   BYTE   UNIT     CODE           ?PR?RPD_DETECT?FU68XX_2_OTHER
   *DEL*:           000084H   BYTE   UNIT     CODE           ?PR?RSDCLOSEDEAL?FU68XX_2_OTHER



OVERLAY MAP OF MODULE:   .\Output\FOC_Fortior (MAIN)


FUNCTION/MODULE                             BIT_GROUP   XDATA_GROUP
--> CALLED FUNCTION/MODULE                 START  STOP  START  STOP
===================================================================
TIM2_INT/INTERRUPT                         ----- -----  ----- -----

*** NEW ROOT *****************************

TIM3_INT/INTERRUPT                         ----- -----  ----- -----

*** NEW ROOT *****************************

INT0/INTERRUPT                             ----- -----  ----- -----

*** NEW ROOT *****************************

INT5/INTERRUPT                             ----- -----  ----- -----

*** NEW ROOT *****************************

INT6/INTERRUPT                             ----- -----  ----- -----

*** NEW ROOT *****************************

INT8/INTERRUPT                             ----- -----  ----- -----

*** NEW ROOT *****************************

INT11/INTERRUPT                            ----- -----  ----- -----

*** NEW ROOT *****************************

LX51 LINKER/LOCATER V4.66.100.0                                                       04/25/2024  14:24:29  PAGE 9


INT13/INTERRUPT                            ----- -----  ----- -----

*** NEW ROOT *****************************

INT14/INTERRUPT                            ----- -----  ----- -----

*** NEW ROOT *****************************

INT15/INTERRUPT                            ----- -----  ----- -----

*** NEW ROOT *****************************

FO_INT/USERINTERRUPT                       ----- -----  ----- -----
  +--> SHUTPERFORM/USERADDFUNC
  +--> SETFAULTRESATRT/USERADDFUNC

SHUTPERFORM/USERADDFUNC                    ----- -----  ----- -----

SETFAULTRESATRT/USERADDFUNC                ----- -----  ----- -----
  +--> CANCLERESATRT/USERADDFUNC

CANCLERESATRT/USERADDFUNC                  ----- -----  ----- -----

*** NEW ROOT *****************************

EXTERN_INT/USERINTERRUPT                   ----- -----  ----- -----

*** NEW ROOT *****************************

FOC_INT/USERINTERRUPT                      ----- -----  ----- -----
  +--> APP_DIV/ADDFUNCTION
  +--> CHECKCURRENT/USERCALCULATE

APP_DIV/ADDFUNCTION                        ----- -----  ----- -----
  +--> _MDU_DIV_IDATA_U32/MDUINIT
  +--> _MDU_DIV_XDATA_U32/MDUINIT

_MDU_DIV_IDATA_U32/MDUINIT                 ----- -----  0291H 0294H

_MDU_DIV_XDATA_U32/MDUINIT                 ----- -----  0291H 0294H

CHECKCURRENT/USERCALCULATE                 ----- -----  ----- -----
  +--> SHUTPERFORM/USERADDFUNC
  +--> SETFAULTRESATRT/USERADDFUNC

*** NEW ROOT *****************************

CMP_ISR/USERINTERRUPT                      ----- -----  ----- -----
  +--> SHUTPERFORM/USERADDFUNC
  +--> SETFAULTRESATRT/USERADDFUNC

*** NEW ROOT *****************************

TIM_1MS_INT/USERINTERRUPT                  ----- -----  ----- -----
  +--> _LPFFUNCTION/ADDFUNCTION
  +--> STARRAMPDEALWITH/ADDFUNCTION
  +--> FOCTAILWINDTIMELIMIT/FOCTAILDECT

_LPFFUNCTION/ADDFUNCTION                   ----- -----  0295H 0296H

STARRAMPDEALWITH/ADDFUNCTION               ----- -----  ----- -----

FOCTAILWINDTIMELIMIT/FOCTAILDECT           ----- -----  ----- -----

*** NEW ROOT *****************************
LX51 LINKER/LOCATER V4.66.100.0                                                       04/25/2024  14:24:29  PAGE 10



USART_INT/USERINTERRUPT                    ----- -----  ----- -----

*** NEW ROOT *****************************

?C_C51STARTUP                              ----- -----  ----- -----
  +--> MAIN/USERMAIN
  +--> ?C_INITSEG

MAIN/USERMAIN                              ----- -----  ----- -----
  +--> MOTORCONTROLINIT/FOCCONTROLFUNCTION
  +--> DRYERFLASHINIT/USERFLASH
  +--> CALSPEEDSTEPTOCMD/USERDRYER
  +--> CALHEATSTEPTOCMD/USERDRYER
  +--> CALCOOLLVTOCMD/USERDRYER
  +--> CMP3_INIT/CMPINIT
  +--> GPIO_INIT/GPIOINIT
  +--> AMP_INIT/AMPINIT
  +--> ADC_INIT/ADCINIT
  +--> CMP3_INTER_INIT/CMPINIT
  +--> DRIVER_INIT/DRIVERINIT
  +--> ZEROCROSSING_INIT/EXTIINIT
  +--> USERPARAS/USERFRAME
  +--> TIM1MS_INIT/TIMERINIT
  +--> GETCURRENTOFFSET/FOCCONTROLFUNCTION
  +--> LOOPPROPER1MS/USERFRAME
  +--> DRYERPER1MS/USERDRYER
  +--> COMMANDPER10MS/USERFRAME
  +--> MC_CONTROL/FOCCONTROL
  +--> REGULATION/USERADDFUNC
  +--> FLASHLOOPPRO/USERFLASH

MOTORCONTROLINIT/FOCCONTROLFUNCTION        ----- -----  ----- -----

DRYERFLASHINIT/USERFLASH                   ----- -----  0297H 0297H
  +--> DRYERKEYSDEFAULT/USERDRYER
  +--> FLASHEARSEANDWRITE/USERFLASH

DRYERKEYSDEFAULT/USERDRYER                 ----- -----  ----- -----

FLASHEARSEANDWRITE/USERFLASH               ----- -----  ----- -----
  +--> _FLASH_SECTOR_ERASE/FU68XX_2_SYSTEM
  +--> _FLASH_SECTOR_WRITE/FU68XX_2_SYSTEM

_FLASH_SECTOR_ERASE/FU68XX_2_SYSTEM        21H.7 21H.7  ----- -----

_FLASH_SECTOR_WRITE/FU68XX_2_SYSTEM        21H.7 21H.7  ----- -----

CALSPEEDSTEPTOCMD/USERDRYER                ----- -----  ----- -----

CALHEATSTEPTOCMD/USERDRYER                 ----- -----  ----- -----

CALCOOLLVTOCMD/USERDRYER                   ----- -----  ----- -----

CMP3_INIT/CMPINIT                          ----- -----  ----- -----

GPIO_INIT/GPIOINIT                         ----- -----  ----- -----

AMP_INIT/AMPINIT                           ----- -----  ----- -----

ADC_INIT/ADCINIT                           ----- -----  ----- -----
  +--> _VREFCONFIG/FU68XX_2_SYSTEM

_VREFCONFIG/FU68XX_2_SYSTEM                21H.7 21H.7  ----- -----

LX51 LINKER/LOCATER V4.66.100.0                                                       04/25/2024  14:24:29  PAGE 11


CMP3_INTER_INIT/CMPINIT                    ----- -----  ----- -----

DRIVER_INIT/DRIVERINIT                     ----- -----  ----- -----

ZEROCROSSING_INIT/EXTIINIT                 ----- -----  ----- -----

USERPARAS/USERFRAME                        ----- -----  ----- -----

TIM1MS_INIT/TIMERINIT                      ----- -----  ----- -----

GETCURRENTOFFSET/FOCCONTROLFUNCTION        ----- -----  ----- -----

LOOPPROPER1MS/USERFRAME                    ----- -----  ----- -----
  +--> SHUTPERFORM/USERADDFUNC
  +--> SETFAULTRESATRT/USERADDFUNC
  +--> CHECKCURRENT/USERCALCULATE
  +--> CHECKSTARTFAULT/USERADDFUNC
  +--> CHECKSTALLFAULT/USERADDFUNC
  +--> VSPIBUSRAMP/USERFRAME
  +--> VSPSPEEDRAMP/USERFRAME
  +--> CANCLERESATRT/USERADDFUNC
  +--> CHECKTEMPER/USERCALCULATE
  +--> CHECKHEATTEMPER/USERCALCULATE
  +--> SPEEDRESTRICTION/USERCALCULATE

CHECKSTARTFAULT/USERADDFUNC                ----- -----  ----- -----
  +--> SHUTPERFORM/USERADDFUNC
  +--> SETFAULTRESATRT/USERADDFUNC

CHECKSTALLFAULT/USERADDFUNC                ----- -----  ----- -----
  +--> SHUTPERFORM/USERADDFUNC
  +--> SETFAULTRESATRT/USERADDFUNC

VSPIBUSRAMP/USERFRAME                      ----- -----  ----- -----

VSPSPEEDRAMP/USERFRAME                     ----- -----  ----- -----

CHECKTEMPER/USERCALCULATE                  ----- -----  ----- -----
  +--> _CALTEMPEROFFSET/USERCALCULATE

_CALTEMPEROFFSET/USERCALCULATE             ----- -----  0297H 029EH

CHECKHEATTEMPER/USERCALCULATE              ----- -----  ----- -----
  +--> _CALTEMPEROFFSET/USERCALCULATE

SPEEDRESTRICTION/USERCALCULATE             ----- -----  ----- -----
  +--> SHUTPERFORM/USERADDFUNC
  +--> SETFAULTRESATRT/USERADDFUNC

DRYERPER1MS/USERDRYER                      ----- -----  ----- -----
  +--> CALSPEEDSTEPTOCMD/USERDRYER

COMMANDPER10MS/USERFRAME                   ----- -----  ----- -----
  +--> CALALARMFLAG/USERFRAME

CALALARMFLAG/USERFRAME                     ----- -----  ----- -----

MC_CONTROL/FOCCONTROL                      ----- -----  ----- -----
  +--> MOTOR_READY/FOCCONTROLFUNCTION
  +--> MOTOR_INIT/FOCCONTROLFUNCTION
  +--> MOTOR_CHARGE/FOCCONTROLFUNCTION
  +--> MOTOR_ALIGN/FOCCONTROLFUNCTION
  +--> MOTOR_OPEN/FOCCONTROLFUNCTION

MOTOR_READY/FOCCONTROLFUNCTION             ----- -----  ----- -----
LX51 LINKER/LOCATER V4.66.100.0                                                       04/25/2024  14:24:29  PAGE 12



MOTOR_INIT/FOCCONTROLFUNCTION              ----- -----  ----- -----
  +--> VARIABLESPREINIT/FOCCONTROLFUNCTION
  +--> PI_INIT/PIINIT

VARIABLESPREINIT/FOCCONTROLFUNCTION        ----- -----  ----- -----

PI_INIT/PIINIT                             ----- -----  ----- -----

MOTOR_CHARGE/FOCCONTROLFUNCTION            ----- -----  ----- -----

MOTOR_ALIGN/FOCCONTROLFUNCTION             ----- -----  ----- -----
  +--> FOC_INIT/FOCCONTROLFUNCTION

FOC_INIT/FOCCONTROLFUNCTION                ----- -----  ----- -----

MOTOR_OPEN/FOCCONTROLFUNCTION              ----- -----  ----- -----

REGULATION/USERADDFUNC                     ----- -----  ----- -----
  +--> _IBUSPI/USERADDFUNC
  +--> EK_DEAL/USERADDFUNC

_IBUSPI/USERADDFUNC                        ----- -----  ----- -----

EK_DEAL/USERADDFUNC                        ----- -----  ----- -----

FLASHLOOPPRO/USERFLASH                     ----- -----  ----- -----
  +--> FLASHEARSEANDWRITE/USERFLASH
  +--> FLASHWRITEDATA/USERFLASH

FLASHWRITEDATA/USERFLASH                   ----- -----  ----- -----
  +--> _FLASH_SECTOR_WRITE/FU68XX_2_SYSTEM

?C_INITSEG                                 ----- -----  ----- -----



PUBLIC SYMBOLS OF MODULE:  .\Output\FOC_Fortior (MAIN)


      VALUE       CLASS    TYPE      PUBLIC SYMBOL NAME
      =================================================
      02000297H   XDATA    BYTE      ?_CalTemperOffset?BYTE
*DEL*:00000000H   XDATA    BYTE      ?_Fault_Stall?BYTE
*DEL*:00000000H   XDATA    BYTE      ?_MDU_MUL_XDATA_RIGHT_U32?BYTE
*DEL*:00000000H   XDATA    BYTE      ?_Set_DMA?BYTE
      00000021H.7 BIT      BIT       ?_VREFConfig?BIT
*DEL*:00000000H.0 BIT      BIT       ?_WatchDogConfig?BIT
      010003D3H   CODE     ---       ?C?CASTF
      010004BCH   CODE     ---       ?C?CILDOPTR
      0100049AH   CODE     ---       ?C?CILDPTR
      0100046DH   CODE     ---       ?C?CLDOPTR
      01000454H   CODE     ---       ?C?CLDPTR
      00000000H   NUMBER   ---       ?C?CODESEG
      01000501H   CODE     ---       ?C?CSTOPTR
      010004EFH   CODE     ---       ?C?CSTPTR
      0100039FH   CODE     ---       ?C?FCASTC
      0100039AH   CODE     ---       ?C?FCASTI
      01000395H   CODE     ---       ?C?FCASTL
      01000085H   CODE     ---       ?C?FPADD
      0100031EH   CODE     ---       ?C?FPCMP
      0100031CH   CODE     ---       ?C?FPCMP3
      0100027FH   CODE     ---       ?C?FPDIV
      0100040AH   CODE     ---       ?C?FPGETOPN2
      01000176H   CODE     ---       ?C?FPMUL
LX51 LINKER/LOCATER V4.66.100.0                                                       04/25/2024  14:24:29  PAGE 13


      0100043FH   CODE     ---       ?C?FPNANRESULT
      01000449H   CODE     ---       ?C?FPOVERFLOW
      01000421H   CODE     ---       ?C?FPRESULT
      01000435H   CODE     ---       ?C?FPRESULT2
      01000081H   CODE     ---       ?C?FPSUB
      01000446H   CODE     ---       ?C?FPUNDERFLOW
      01000651H   CODE     ---       ?C?IILDOPTR
      01000619H   CODE     ---       ?C?IILDPTR
      0100058AH   CODE     ---       ?C?IILDX
      010005A0H   CODE     ---       ?C?ILDIX
      010005E1H   CODE     ---       ?C?ILDOPTR
      010005B6H   CODE     ---       ?C?ILDPTR
      01000523H   CODE     ---       ?C?IMUL
      010006BDH   CODE     ---       ?C?ISTOPTR
      0100069EH   CODE     ---       ?C?ISTPTR
      01000932H   CODE     ---       ?C?LIMUL
      010009A3H   CODE     ---       ?C?LLDCODE
      010008B7H   CODE     ---       ?C?LLDIDATA
      010008C3H   CODE     ---       ?C?LLDIDATA0
      01000863H   CODE     ---       ?C?LLDOPTR
      01000997H   CODE     ---       ?C?LLDPDATA
      0100098BH   CODE     ---       ?C?LLDXDATA
      010006EAH   CODE     ---       ?C?LMUL
      01000807H   CODE     ---       ?C?LNEG
      010008D0H   CODE     ---       ?C?LSTIDATA
      010008E8H   CODE     ---       ?C?LSTKIDATA
      01000901H   CODE     ---       ?C?LSTKXDATA
      01000893H   CODE     ---       ?C?LSTOPTR
      010009B3H   CODE     ---       ?C?LSTPDATA
      010008DCH   CODE     ---       ?C?LSTXDATA
      0100095FH   CODE     ---       ?C?MEMSET
      01000815H   CODE     ---       ?C?SLCMP
      0100084FH   CODE     ---       ?C?SLSHR
      01000535H   CODE     ---       ?C?UIDIV
      0100082BH   CODE     ---       ?C?ULCMP
      01000775H   CODE     ---       ?C?ULDIV
      0100083CH   CODE     ---       ?C?ULSHR
      00000000H   NUMBER   ---       ?C?XDATASEG
      01002DFBH   CODE     ---       ?C_START
      01000000H   CODE     ---       ?C_STARTUP
*DEL*:00000000H.0 BIT      BIT       ?VHALFConfig?BIT
*DEL*:00000000H   CODE     ---       _Abs_F16
*DEL*:00000000H   CODE     ---       _Abs_F32
      010035E1H   CODE     ---       _CalTemperOffset
*DEL*:00000000H   CODE     ---       _CWCCWDetect
*DEL*:00000000H   CODE     ---       _Fault_Overcurrent
*DEL*:00000000H   CODE     ---       _Fault_OverCurrentRecover
*DEL*:00000000H   CODE     ---       _Fault_OverPowerRecover
*DEL*:00000000H   CODE     ---       _Fault_OverUnderVoltage
*DEL*:00000000H   CODE     ---       _Fault_phaseloss
*DEL*:00000000H   CODE     ---       _Fault_Power
*DEL*:00000000H   CODE     ---       _Fault_Stall
*DEL*:00000000H   CODE     ---       _Fault_Start
*DEL*:00000000H   CODE     ---       _Fault_Temperature
      01003615H   CODE     ---       _Flash_Sector_Erase
      01003647H   CODE     ---       _Flash_Sector_Write
*DEL*:00000000H   CODE     ---       _Get1ByteFromFlash
*DEL*:00000000H   CODE     ---       _Get_Gcd
*DEL*:00000000H   CODE     ---       _HW_One_PI
*DEL*:00000000H   CODE     ---       _HW_PI_Control
      01003846H   CODE     ---       _IBusPI
*DEL*:00000000H   CODE     ---       _Init_DMA
*DEL*:00000000H   CODE     ---       _KLPF_VALUE
*DEL*:00000000H   CODE     ---       _Led_OnOff
      010036A7H   CODE     ---       _LPFFunction
LX51 LINKER/LOCATER V4.66.100.0                                                       04/25/2024  14:24:29  PAGE 14


*DEL*:00000000H   CODE     ---       _mc_ramp
*DEL*:00000000H   CODE     ---       _MDU_16MUL16_INT
*DEL*:00000000H   CODE     ---       _MDU_DIV_IDATA_U16
      0100323CH   CODE     ---       _MDU_DIV_IDATA_U32
*DEL*:00000000H   CODE     ---       _MDU_DIV_XDATA_U16
      010030A6H   CODE     ---       _MDU_DIV_XDATA_U32
*DEL*:00000000H   CODE     ---       _MDU_MUL_IDATA_U32
*DEL*:00000000H   CODE     ---       _MDU_MUL_XDATA_RIGHT_U32
*DEL*:00000000H   CODE     ---       _MDU_MUL_XDATA_U16
*DEL*:00000000H   CODE     ---       _MDU_MUL_XDATA_U32
*DEL*:00000000H   CODE     ---       _ONOFF_Starttest
*DEL*:00000000H   CODE     ---       _Set_DBG_DMA
*DEL*:00000000H   CODE     ---       _Set_DMA
*DEL*:00000000H   CODE     ---       _SoftLPF
*DEL*:00000000H   CODE     ---       _SPI_SendData
*DEL*:00000000H   CODE     ---       _UART_SendData
*DEL*:00000000H   CODE     ---       _UartTxdate
      01003437H   CODE     ---       _VREFConfig
*DEL*:00000000H   CODE     ---       _WatchDogConfig
*DEL*:00000000H   CODE     ---       _Write1Byte2Flash
*DEL*:00000000H   CODE     ---       _Write2Byte2Flash
*SFR* 000000D0H.6 DATA     BIT       AC
      000000A3H   IDATA    BYTE      ACCrossForThryrist
      01003031H   CODE     ---       ADC_Init
      020000DEH   XDATA    ---       AdcSampleValue
      00000052H   IDATA    BYTE      AlarmFlag
      00000035H   IDATA    BYTE      AlarmFlag2
      0000004EH   IDATA    BYTE      AlarmHardBeark
      00000051H   IDATA    BYTE      AlarmHighSpeed
      0000004FH   IDATA    BYTE      AlarmHighTemper
      00000033H   IDATA    BYTE      AlarmHighVolt
      0000004AH   IDATA    BYTE      AlarmLowVolt
      00000059H   IDATA    BYTE      AlarmOverCurrent
      00000039H   IDATA    BYTE      AlarmOverWind
      00000029H   IDATA    BYTE      AlarmPhaseLoss
      00000032H   IDATA    BYTE      AlarmStartLose
      00000062H   IDATA    BYTE      AlarmStuck
      02000112H   XDATA    WORD      AlarmX10msCnt
      0100382BH   CODE     ---       AMP_Init
      01003503H   CODE     ---       APP_DIV
      0200013FH   XDATA    WORD      AutostartCnt
*DEL*:00000000H   CODE     ---       BEMFDealwith
      020001F2H   XDATA    ---       BEMFDetect
*DEL*:00000000H   CODE     ---       BEMFDetectFunc
*DEL*:00000000H   CODE     ---       BEMFDetectInit
*DEL*:00000000H   CODE     ---       BEMFFOCCloseLoopStart
*DEL*:00000000H   CODE     ---       BEMFSpeedCal
*DEL*:00000000H   CODE     ---       BEMFSpeedDetect
      0200008CH   XDATA    FLOAT     brakeduty
      010032F6H   CODE     ---       CalAlarmFlag
      010038A2H   CODE     ---       CalCoolLvToCmd
*DEL*:00000000H   CODE     ---       CalcVSPRef
      010037B5H   CODE     ---       CalHeatStepToCmd
*DEL*:00000000H   CODE     ---       CalMaxRPM
      0100372BH   CODE     ---       CalSpeedStepToCmd
      0100388BH   CODE     ---       CancleResatrt
      010021A7H   CODE     ---       CheckCurrent
      01002B0CH   CODE     ---       CheckHeatTemper
      01002421H   CODE     ---       CheckStallFault
      01002045H   CODE     ---       CheckStartFault
      01002A3BH   CODE     ---       CheckTemper
      00000021H.4 BIT      BIT       CheckTemperTurn
      010034C4H   CODE     ---       CMP3_Init
      0100385EH   CODE     ---       CMP3_Inter_Init
*DEL*:00000000H   CODE     ---       CMP_BMEF_Init
LX51 LINKER/LOCATER V4.66.100.0                                                       04/25/2024  14:24:29  PAGE 15


*SFR* 000000D5H   DATA     BYTE      CMP_CR0
*SFR* 000000D6H   DATA     BYTE      CMP_CR1
*SFR* 000000DAH   DATA     BYTE      CMP_CR2
*SFR* 000000DCH   DATA     BYTE      CMP_CR3
      01002C8BH   CODE     ---       CMP_ISR
*DEL*:00000000H   CODE     ---       CMP_RSD_Init
*SFR* 000000D7H   DATA     BYTE      CMP_SR
      01001516H   CODE     ---       CommandPer10ms
      000000B8H   IDATA    BYTE      CoolCmdLv
      000000AEH   IDATA    BYTE      CoolShiftLv
*SFR* 000000D0H.7 DATA     BIT       CY
*DEL*:00000000H   CODE     ---       DebugSet
*SFR* 00000082H   DATA     WORD      DPTR
      0100329AH   CODE     ---       Driver_Init
*SFR* 000000F8H   DATA     BYTE      DRV_OUT
      02000135H   XDATA    BYTE      DrvEnFlag
      02000143H   XDATA    BYTE      DrvEnTrig
      0200011CH   XDATA    BYTE      DrvHystericLv
      0200013AH   XDATA    BYTE      DrvRefTrig
      0200012DH   XDATA    WORD      DrvTempADCSmpFilt
      0000002FH   IDATA    WORD      DrvTemperADCVal
      00000060H   IDATA    INT       DrvTemperCelsius
      01002669H   CODE     ---       DryerFlashInit
      0100387EH   CODE     ---       DryerKeysDefault
      010009BFH   CODE     ---       DryerPer1ms
*SFR* 000000A8H.7 DATA     BIT       EA
      01002EC6H   CODE     ---       EK_deal
*SFR* 000000A8H.4 DATA     BIT       ES0
*SFR* 000000D9H   DATA     BYTE      EVT_FILT
*SFR* 000000A8H.0 DATA     BIT       EX0
*SFR* 000000A8H.2 DATA     BIT       EX1
      020000ECH   XDATA    WORD      ExpectedDrvRef
      01003774H   CODE     ---       EXTERN_INT
*DEL*:00000000H   CODE     ---       EXTI_Init
*SFR* 000000D0H.5 DATA     BIT       F0
*SFR* 000000D0H.1 DATA     BIT       F1
*DEL*:00000000H   CODE     ---       Fault_Detection
      020002B0H   XDATA    BYTE      FaultOffset
*DEL*:00000000H   CODE     ---       FaultProcess
*DEL*:00000000H   CODE     ---       FGOutput
*SFR* 00000085H   DATA     BYTE      FLA_CR
*SFR* 00000084H   DATA     BYTE      FLA_KEY
      00000050H   IDATA    BYTE      FlagHardBeark
      00000058H   IDATA    BYTE      FlagHighSpeed
      00000057H   IDATA    BYTE      FlagHighTemper
      0000003CH   IDATA    BYTE      FlagHighVolt
      0000004DH   IDATA    BYTE      FlagLowVolt
      00000022H   IDATA    BYTE      FlagOverCurrent
      0000003EH   IDATA    BYTE      FlagOverWind
      00000031H   IDATA    BYTE      FlagPhaseLoss
      0000003AH   IDATA    BYTE      FlagStartLose
      0000002AH   IDATA    BYTE      FlagStuck
      020002AFH   XDATA    BYTE      FlashAddrOffset
      010031DEH   CODE     ---       FlashEarseAndWrite
      020002ABH   XDATA    BYTE      FlashInitFlag
      01002E40H   CODE     ---       FlashLoopPro
      020002AEH   XDATA    BYTE      FlashPieceNum
      020002B1H   XDATA    ---       FlashReadLine
      020002AAH   XDATA    BYTE      FlashSaveFlag
      0000000AH   IDATA    BYTE      FLASHUsingStatus
      010033ECH   CODE     ---       FlashWriteData
      020002ACH   XDATA    WORD      FlashWriteTimes
      020000F1H   XDATA    BYTE      FltReStartTrig
      01003482H   CODE     ---       FO_INT
      010022F5H   CODE     ---       FOC_Init
LX51 LINKER/LOCATER V4.66.100.0                                                       04/25/2024  14:24:29  PAGE 16


      010033A0H   CODE     ---       FOC_INT
*DEL*:00000000H   CODE     ---       FOCCloseLoopStart
      02000272H   XDATA    WORD      focek2
      020001D3H   XDATA    INT       FocIA
      020001D5H   XDATA    INT       FocIB
      020001D7H   XDATA    INT       FocIC
      020001EAH   XDATA    INT       FocIXMax
      020001ECH   XDATA    INT       FocIXMax_Max
*DEL*:00000000H   CODE     ---       FOCTailWindDealwith
      010035ABH   CODE     ---       FOCTailWindTimeLimit
*DEL*:00000000H   CODE     ---       GetBEMFStatus
      01002967H   CODE     ---       GetCurrentOffset
      02000118H   XDATA    WORD      GivenDuty_Q12
      0200011DH   XDATA    BYTE      GivenDutyDisFlag
*SFR* 00000080H.0 DATA     BIT       GP00
*SFR* 00000080H.1 DATA     BIT       GP01
*SFR* 00000080H.2 DATA     BIT       GP02
*SFR* 00000080H.3 DATA     BIT       GP03
*SFR* 00000080H.4 DATA     BIT       GP04
*SFR* 00000080H.5 DATA     BIT       GP05
*SFR* 00000080H.6 DATA     BIT       GP06
*SFR* 00000080H.7 DATA     BIT       GP07
*SFR* 00000090H.0 DATA     BIT       GP10
*SFR* 00000090H.1 DATA     BIT       GP11
*SFR* 00000090H.2 DATA     BIT       GP12
*SFR* 00000090H.3 DATA     BIT       GP13
*SFR* 00000090H.4 DATA     BIT       GP14
*SFR* 00000090H.5 DATA     BIT       GP15
*SFR* 00000090H.6 DATA     BIT       GP16
*SFR* 00000090H.7 DATA     BIT       GP17
*SFR* 000000A0H.0 DATA     BIT       GP20
*SFR* 000000A0H.1 DATA     BIT       GP21
*SFR* 000000A0H.2 DATA     BIT       GP22
*SFR* 000000A0H.3 DATA     BIT       GP23
*SFR* 000000A0H.4 DATA     BIT       GP24
*SFR* 000000A0H.5 DATA     BIT       GP25
*SFR* 000000A0H.6 DATA     BIT       GP26
*SFR* 000000A0H.7 DATA     BIT       GP27
*SFR* 000000B0H.0 DATA     BIT       GP30
*SFR* 000000B0H.1 DATA     BIT       GP31
*SFR* 000000B0H.2 DATA     BIT       GP32
*SFR* 000000B0H.3 DATA     BIT       GP33
*SFR* 000000B0H.4 DATA     BIT       GP34
*SFR* 000000B0H.5 DATA     BIT       GP35
*SFR* 000000B0H.6 DATA     BIT       GP36
*SFR* 000000B0H.7 DATA     BIT       GP37
*SFR* 000000E8H.0 DATA     BIT       GP40
*SFR* 000000E8H.1 DATA     BIT       GP41
*SFR* 000000E8H.2 DATA     BIT       GP42
*DEL*:00000000H   CODE     ---       GPIO_Default_Init
      0100334EH   CODE     ---       GPIO_Init
*DEL*:00000000H   CODE     ---       HardwareInit
      020000EFH   XDATA    BYTE      HearterPMWDutyDowm
      020000EBH   XDATA    BYTE      HearterPMWDutyRise
      00000020H.1 BIT      BIT       Heat_wire_H
      00000020H.2 BIT      BIT       Heat_wire_L
      000000A9H   IDATA    INT       HeatAdcValRef
      000000B2H   IDATA    BYTE      HeatCmdLv
      02000286H   XDATA    BYTE      HeatDisableFlag
      0200028AH   XDATA    BYTE      HeatDutyAlt
      02000280H   XDATA    BYTE      HeatDutyAltTop
      0200028FH   XDATA    BYTE      HeatDutyH
      02000290H   XDATA    BYTE      HeatDutyL
      0200028CH   XDATA    BYTE      HeatDutyMax
      0000009AH   IDATA    BYTE      HeatDutyOnCnt
LX51 LINKER/LOCATER V4.66.100.0                                                       04/25/2024  14:24:29  PAGE 17


      000000A6H   IDATA    BYTE      HeatDutyOnCnt2
      0000009BH   IDATA    BYTE      HeatDutyPeriod
      0000009DH   IDATA    WORD      HeatLv4X10ms
      0200010FH   XDATA    BYTE      HeatProtectLv
      02000288H   XDATA    BYTE      HeatRegulTmr
      000000A2H   IDATA    BYTE      HeatShiftStep
      000000B6H   IDATA    WORD      HeatTemperADCVal
      000000ACH   IDATA    INT       HeatTemperCelsius
      020001DBH   XDATA    BYTE      HighSpdInhibitLv
      020001D1H   XDATA    WORD      HighSpdInhibitX10ms
      020001DCH   XDATA    BYTE      HighSpdRestartCnt
      02000103H   XDATA    BYTE      HiSpdLv
      02000120H   XDATA    BYTE      HiTemperCnt
*DEL*:00000000H   CONST    ---       HW_Gear
      02000123H   XDATA    WORD      IbusADCOffset
      020000E9H   XDATA    WORD      IBusADCSmpFilt
      0200011EH   XDATA    WORD      IBusCommand_mA
      02000131H   XDATA    WORD      IBusCommandAlt
      0200013DH   XDATA    WORD      IBusCommandX10
      0200026EH   XDATA    INT       IBusError
      020000FEH   XDATA    WORD      IBusFilt_mA
      02000110H   XDATA    WORD      IBusOCCnt
      02000270H   XDATA    INT       IBusPIErr
      02000107H   XDATA    WORD      IBusSmp
      02000141H   XDATA    WORD      IBusWarningCnt
*SFR* 000000A8H   DATA     BYTE      IE
*SFR* 00000088H.2 DATA     BIT       IF0
      01000006H   CODE     ---       INT0
      0100000AH   CODE     ---       INT11
      0100000EH   CODE     ---       INT13
      0100000FH   CODE     ---       INT14
      01000010H   CODE     ---       INT15
      01000007H   CODE     ---       INT5
      01000008H   CODE     ---       INT6
      01000009H   CODE     ---       INT8
*SFR* 000000B8H   DATA     BYTE      IP0
*SFR* 000000C0H   DATA     BYTE      IP1
*SFR* 000000C8H   DATA     BYTE      IP2
*SFR* 000000D8H   DATA     BYTE      IP3
*SFR* 00000088H.0 DATA     BIT       IT00
*SFR* 00000088H.1 DATA     BIT       IT01
*SFR* 00000088H.3 DATA     BIT       IT10
*SFR* 00000088H.4 DATA     BIT       IT11
      020001CEH   XDATA    INT       IXMaxOCCnt
*DEL*:00000000H   CODE     ---       KEYControl
      02000287H   XDATA    ---       KeyCool
      020002C1H   XDATA    WORD      KeyCount_Dd
      020002C5H   XDATA    WORD      KeyCount_Dd1
      020002BFH   XDATA    WORD      KeyCount_Long
      020002C3H   XDATA    WORD      KeyCount_Up
      020000F2H   XDATA    WORD      KeyGoDuty
      02000114H   XDATA    WORD      KeyGoDutyMax
      02000285H   XDATA    ---       KeyHeat
*DEL*:00000000H   CODE     ---       KeyInit
      0200013BH   XDATA    ---       KeyOn
      000000A0H   IDATA    BYTE      KeyOnLockKeepCnt
      000000A5H   IDATA    BYTE      KeyOnLockLv
      000000B3H   IDATA    BYTE      KeyOnLockLvPre
      000000ABH   IDATA    BYTE      KeyOnLockSmpNew
      000000A7H   IDATA    BYTE      KeyOnLockSmpOld
      02000281H   XDATA    ---       KeyOnOff
      02000100H   XDATA    BYTE      KeyOnOffCmd
      02000104H   XDATA    BYTE      KeyOnOffTrig
      02000284H   XDATA    BYTE      KeyPro1msTmr
*DEL*:00000000H   CODE     ---       KeyScan
LX51 LINKER/LOCATER V4.66.100.0                                                       04/25/2024  14:24:29  PAGE 18


      02000282H   XDATA    ---       KeySpeed
      000000AFH   IDATA    BYTE      KeySpeedActX10ms
*DEL*:00000000H   CODE     ---       KeyValue
      0200022BH   XDATA    ---       KS
*DEL*:00000000H   CODE     ---       LED_Display
      02000283H   XDATA    BYTE      LedAlarmFlashCnt
      000000B0H   IDATA    WORD      LedAltX10ms
*DEL*:00000000H   CODE     ---       LEDControl
*DEL*:00000000H   CODE     ---       LEDFaultSpark
      00000020H.3 BIT      BIT       LedHeat1
      00000020H.4 BIT      BIT       LedHeat2
      00000020H.5 BIT      BIT       LedHeat3
      00000021H.0 BIT      BIT       LedSpd1
      00000021H.1 BIT      BIT       LedSpd2
      00000021H.2 BIT      BIT       LedSpd3
      00000021H.6 BIT      BIT       LH_Gear
      00000021H.5 BIT      BIT       LightTurn
      020000EEH   XDATA    BYTE      Loop10msCnt
      02000134H   XDATA    BYTE      Loop10msFlag
      02000130H   XDATA    BYTE      Loop1msCnt
      0200010EH   XDATA    BYTE      Loop1msFlag
      0100107FH   CODE     ---       LoopProPer1ms
      02000105H   XDATA    BYTE      LowVoltLv
*SFR* 000000DDH   DATA     BYTE      LPF_K
*SFR* 000000DEH   DATA     WORD      LPF_X
*SFR* 000000E6H   DATA     WORD      LPF_Y
*SFR* 000000DBH   DATA     BYTE      LVSR
      01002548H   CODE     ---       main
      00000044H   IDATA    WORD      MaxPower
      0000005AH   IDATA    DWORD     MaxRPMOfStop
      020001D0H   XDATA    BYTE      MaxSpdFiltCnt
      0000003FH   IDATA    WORD      MaxSpdOfStop
      020001EEH   XDATA    WORD      MaxSpdX10ms
      01001D43H   CODE     ---       MC_Control
*DEL*:00000000H   CODE     ---       MC_Stop
      02000246H   XDATA    ---       mcCurOffset
      00000081H   IDATA    ---       mcCurVarible
      02000090H   XDATA    ---       mcFaultDect
      0200008BH   XDATA    BYTE      mcFaultSource
      02000000H   XDATA    ---       mcFocCtrl
      020000DAH   XDATA    ---       mcFRState
      02000101H   XDATA    WORD      McIdleX1ms
      02000084H   XDATA    ---       mcLedDisplay
      0000008EH   IDATA    ---       mcProtectTime
      02000045H   XDATA    ---       mcPwmInput
      020000C9H   XDATA    ---       mcSpeedRamp
      020002C7H   XDATA    ---       McStaSet
      020002CAH   XDATA    BYTE      mcState
*SFR* 000000C1H   DATA     BYTE      MDU_CR
*SFR* 000000C4H   DATA     BYTE      MDU_DA0
*SFR* 000000C4H   DATA     WORD      MDU_DA01
*SFR* 000000C5H   DATA     BYTE      MDU_DA1
*SFR* 000000C6H   DATA     BYTE      MDU_DA2
*SFR* 000000C6H   DATA     WORD      MDU_DA23
*SFR* 000000C7H   DATA     BYTE      MDU_DA3
*SFR* 000000CCH   DATA     BYTE      MDU_DB0
*SFR* 000000CCH   DATA     WORD      MDU_DB01
*SFR* 000000CDH   DATA     BYTE      MDU_DB1
*SFR* 000000C2H   DATA     WORD      MDU_MA
*SFR* 000000CAH   DATA     WORD      MDU_MB
      00000042H   IDATA    WORD      MinPower
*SFR* 000000F8H.7 DATA     BIT       MOE
      01002FB9H   CODE     ---       Motor_Align
      01002881H   CODE     ---       Motor_Charge
*DEL*:00000000H   CODE     ---       Motor_EN
LX51 LINKER/LOCATER V4.66.100.0                                                       04/25/2024  14:24:29  PAGE 19


      010037F2H   CODE     ---       Motor_Init
      01002BDDH   CODE     ---       Motor_Open
*DEL*:00000000H   CODE     ---       Motor_PllStart
      01003575H   CODE     ---       Motor_Ready
*DEL*:00000000H   CODE     ---       Motor_TailWind
      01002786H   CODE     ---       MotorcontrolInit
      00000023H   IDATA    DWORD     MotorRPM
      020001E5H   XDATA    BYTE      NormalSpdFiltCnt
      020001D9H   XDATA    WORD      NormalSpdX10ms
      00000041H   IDATA    BYTE      NoVZeroCrossX1ms
      0200012FH   XDATA    BYTE      OCLv
*SFR* 000000F8H.0 DATA     BIT       OISUH
*SFR* 000000F8H.1 DATA     BIT       OISUL
*SFR* 000000F8H.2 DATA     BIT       OISVH
*SFR* 000000F8H.3 DATA     BIT       OISVL
*SFR* 000000F8H.4 DATA     BIT       OISWXH
*SFR* 000000F8H.5 DATA     BIT       OISWXL
      02000060H   XDATA    ---       ONOFFTest
*DEL*:00000000H   CODE     ---       OutLoopParameterSet
*SFR* 000000D0H.2 DATA     BIT       OV
*SFR* 000000D0H.0 DATA     BIT       P
*SFR* 00000080H   DATA     BYTE      P0
*SFR* 000000FCH   DATA     BYTE      P0_OE
*SFR* 00000090H   DATA     BYTE      P1
*SFR* 000000D1H   DATA     BYTE      P1_IE
*SFR* 000000D2H   DATA     BYTE      P1_IF
*SFR* 000000FDH   DATA     BYTE      P1_OE
*SFR* 000000A0H   DATA     BYTE      P2
*SFR* 000000D3H   DATA     BYTE      P2_IE
*SFR* 000000D4H   DATA     BYTE      P2_IF
*SFR* 000000FEH   DATA     BYTE      P2_OE
*SFR* 000000B0H   DATA     BYTE      P3
*SFR* 000000FFH   DATA     BYTE      P3_OE
*SFR* 000000E8H   DATA     BYTE      P4
*SFR* 000000E9H   DATA     BYTE      P4_OE
*SFR* 000000C0H.4 DATA     BIT       PADC0
*SFR* 000000C0H.5 DATA     BIT       PADC1
*SFR* 000000C0H.6 DATA     BIT       PCMP0
*SFR* 000000C0H.7 DATA     BIT       PCMP1
*SFR* 00000087H   DATA     BYTE      PCON
*SFR* 000000D8H.6 DATA     BIT       PDMA0
*SFR* 000000D8H.7 DATA     BIT       PDMA1
*SFR* 000000B8H.6 DATA     BIT       PDRV0
*SFR* 000000B8H.7 DATA     BIT       PDRV1
*SFR* 000000D8H.2 DATA     BIT       PI2C0
*SFR* 000000D8H.3 DATA     BIT       PI2C1
*SFR* 000000EAH   DATA     WORD      PI_EK
      010036D4H   CODE     ---       PI_Init
*SFR* 000000F2H   DATA     WORD      PI_KI
*SFR* 000000EEH   DATA     WORD      PI_KP
*SFR* 000000F9H   DATA     BYTE      PI_LPF_CR
*SFR* 000000ECH   DATA     WORD      PI_UK
*SFR* 000000F4H   DATA     WORD      PI_UKMAX
*SFR* 000000F6H   DATA     WORD      PI_UKMIN
*DEL*:00000000H   CODE     ---       PLL_TailWindDealwith
*SFR* 000000B8H.0 DATA     BIT       PLVW0
*SFR* 000000B8H.1 DATA     BIT       PLVW1
      020002B5H   XDATA    WORD      Power_Currt
      020000D8H   XDATA    WORD      POWER_VSP
      02000106H   XDATA    BYTE      PowerLose
      020002CBH   XDATA    WORD      PowerUpCnt
      0200028BH   XDATA    BYTE      PowerVoltDownBase
      02000289H   XDATA    BYTE      PowerVoltRiseBase
*SFR* 000000D8H.4 DATA     BIT       PSPI0
*SFR* 000000D8H.5 DATA     BIT       PSPI1
LX51 LINKER/LOCATER V4.66.100.0                                                       04/25/2024  14:24:29  PAGE 20


*SFR* 000000D0H   DATA     BYTE      PSW
*SFR* 000000C0H.2 DATA     BIT       PTIM10
*SFR* 000000C0H.3 DATA     BIT       PTIM11
*SFR* 000000C0H.0 DATA     BIT       PTIM20
*SFR* 000000C0H.1 DATA     BIT       PTIM21
*SFR* 000000C8H.2 DATA     BIT       PTIM30
*SFR* 000000C8H.3 DATA     BIT       PTIM31
*SFR* 000000C8H.4 DATA     BIT       PTIM4S0
*SFR* 000000C8H.5 DATA     BIT       PTIM4S1
*SFR* 000000C8H.6 DATA     BIT       PTSD0
*SFR* 000000C8H.7 DATA     BIT       PTSD1
*SFR* 000000D8H.0 DATA     BIT       PUART0
*SFR* 000000D8H.1 DATA     BIT       PUART1
      02000121H   XDATA    INT       PulseDuty_Q12
*DEL*:00000000H   CODE     ---       PWMInputCapture
      0200028DH   XDATA    BYTE      PwrOnStage
      02000138H   XDATA    WORD      PwrOnX1ms
*SFR* 000000B8H.2 DATA     BIT       PX00
*SFR* 000000B8H.3 DATA     BIT       PX01
*SFR* 000000B8H.4 DATA     BIT       PX10
*SFR* 000000B8H.5 DATA     BIT       PX11
      020000F7H   XDATA    BYTE      QuickStartFlag
*SFR* 00000098H.2 DATA     BIT       RB8
      01001B44H   CODE     ---       Regulation
*SFR* 00000098H.4 DATA     BIT       REN
      0200010CH   XDATA    WORD      RePowerRunDly
      0000009FH   IDATA    BYTE      RePowerRunTrig
      0200012CH   XDATA    BYTE      Restart10msCnt
      0200013CH   XDATA    BYTE      ReStartCnt
      020000F0H   XDATA    BYTE      ReStartDlyCmd
      020000FBH   XDATA    WORD      ReStartDlyX10ms
      00000020H.6 BIT      BIT       ReverseCleanCmd
      00000020H.7 BIT      BIT       ReverseCleanTrig
      000000B4H   IDATA    WORD      ReverseCleanX10ms
*SFR* 00000098H.0 DATA     BIT       RI
      020002CDH   XDATA    ---       Rom
*DEL*:00000000H   CODE     ---       RPD
*DEL*:00000000H   CODE     ---       RPD_0_VWinit
*DEL*:00000000H   CODE     ---       RPD_1_WVinit
*DEL*:00000000H   CODE     ---       RPD_2_UVinit
*DEL*:00000000H   CODE     ---       RPD_3_VUinit
*DEL*:00000000H   CODE     ---       RPD_4_WUinit
*DEL*:00000000H   CODE     ---       RPD_5_UWinit
*DEL*:00000000H   CODE     ---       RPD_Detect
*DEL*:00000000H   CODE     ---       RPD_Init
*DEL*:00000000H   CODE     ---       RPD_Inject
      0200017DH   XDATA    BYTE      RPD_Status
      0200017EH   XDATA    ---       RPDPara
*SFR* 000000D0H.3 DATA     BIT       RS0
*SFR* 000000D0H.4 DATA     BIT       RS1
*DEL*:00000000H   CODE     ---       RSDCloseDeal
*DEL*:00000000H   CODE     ---       RSDDealwith
      00000063H   IDATA    ---       RSDDetect
*DEL*:00000000H   CODE     ---       RSDDetectInit
*DEL*:00000000H   CODE     ---       RSDFOCCloseLoopStart
*DEL*:00000000H   CODE     ---       RSDFRDetect
*SFR* 000000C9H   DATA     BYTE      RST_SR
      02000129H   XDATA    WORD      RunningX1ms
      020000FAH   XDATA    BYTE      RunTrigger
      0100353EH   CODE     ---       SetFaultResatrt
      0100380FH   CODE     ---       ShutPerform
*DEL*:00000000H   CODE     ---       Sleepmode
*DEL*:00000000H   CODE     ---       Sleepmode_Init
      0200007BH   XDATA    ---       SleepSet
*SFR* 00000098H.5 DATA     BIT       SM2
LX51 LINKER/LOCATER V4.66.100.0                                                       04/25/2024  14:24:29  PAGE 21


*DEL*:00000000H   CODE     ---       SMO_TailWindDealwith
*DEL*:00000000H   CODE     ---       SoftwareInit
      0200029FH   XDATA    WORD      SparkBlinkPrd
      020002A6H   XDATA    WORD      SparkClock
      020002A1H   XDATA    BYTE      SparkErrCode
      020002A8H   XDATA    BYTE      SparkErrCodeH
      020002A9H   XDATA    BYTE      SparkErrCodeL
      020002A2H   XDATA    BYTE      SparkErrStep
      020002A4H   XDATA    WORD      SparkOnPrd
      020002A3H   XDATA    BYTE      SparkStepSum
      02000278H   XDATA    LONG      SpdErr
      0200027EH   XDATA    INT       SpdPIErr
*DEL*:00000000H   CODE     ---       Speed_response
      000000A8H   IDATA    BYTE      SpeedCmdLv
      02000069H   XDATA    ---       SpeedPICtrl
      01001EE2H   CODE     ---       SpeedRestriction
      0000009CH   IDATA    BYTE      SpeedShiftStep
*DEL*:00000000H   CODE     ---       SPI_Init
      020002B7H   XDATA    ---       spidebug
*SFR* 000000A8H.3 DATA     BIT       SPIIE
      01002D28H   CODE     ---       StarRampDealwith
      0200013BH   XDATA    BYTE      StartCmdLv
      020000F6H   XDATA    BYTE      StartCmdLvAlt
      0200012BH   XDATA    BYTE      StartFailLv
      02000128H   XDATA    BYTE      StuckLv
      020000FDH   XDATA    BYTE      SumUpTrig
      02000214H   XDATA    ---       TailWindDetect
*DEL*:00000000H   CODE     ---       TailWindDetectInit
*DEL*:00000000H   CODE     ---       TailWindSpeedDetect
*SFR* 00000098H.3 DATA     BIT       TB8
*SFR* 00000088H   DATA     BYTE      TCON
*DEL*:00000000H   CODE     ---       TempAverage
*DEL*:00000000H   CODE     ---       TemperaturePID
      00000008H   IDATA    WORD      TermTmr
      00000021H.3 BIT      BIT       TestMode
      000000A4H   IDATA    BYTE      ThryristTrigKeepCnt
      000000B9H   IDATA    BYTE      ThryristTrigKeepCnt2
*SFR* 00000098H.1 DATA     BIT       TI
*DEL*:00000000H   CODE     ---       TIM0_Init
*DEL*:00000000H   CODE     ---       TIM1_Init
      01003870H   CODE     ---       TIM1ms_Init
*SFR* 000000AEH   DATA     WORD      TIM2__ARR
*SFR* 000000AAH   DATA     WORD      TIM2__CNTR
*SFR* 000000ACH   DATA     WORD      TIM2__DR
*SFR* 000000A1H   DATA     BYTE      TIM2_CR0
*SFR* 000000A9H   DATA     BYTE      TIM2_CR1
*DEL*:00000000H   CODE     ---       TIM2_Init
      010037D5H   CODE     ---       TIM2_INT
*SFR* 000000A6H   DATA     WORD      TIM3__ARR
*SFR* 000000A2H   DATA     WORD      TIM3__CNTR
*SFR* 000000A4H   DATA     WORD      TIM3__DR
*SFR* 0000009CH   DATA     BYTE      TIM3_CR0
*SFR* 0000009DH   DATA     BYTE      TIM3_CR1
*DEL*:00000000H   CODE     ---       TIM3_Init
      01003795H   CODE     ---       TIM3_INT
*SFR* 00000096H   DATA     WORD      TIM4__ARR
*SFR* 00000092H   DATA     WORD      TIM4__CNTR
*SFR* 00000094H   DATA     WORD      TIM4__DR
*SFR* 0000009EH   DATA     BYTE      TIM4_CR0
*SFR* 0000009FH   DATA     BYTE      TIM4_CR1
*DEL*:00000000H   CODE     ---       TIM4_Init
      010018EBH   CODE     ---       TIM_1MS_INT
*DEL*:00000000H   CODE     ---       Time2_BMEF_Init
*DEL*:00000000H   CODE     ---       Time2_RPD_Init
*DEL*:00000000H   CODE     ---       Time2_RSD_Init
LX51 LINKER/LOCATER V4.66.100.0                                                       04/25/2024  14:24:29  PAGE 22


      020002C8H   XDATA    WORD      TimeCnt
*SFR* 000000A8H.1 DATA     BIT       TSDIE
*SFR* 00000088H.5 DATA     BIT       TSDIF
      02000144H   XDATA    ---       Uart
*DEL*:00000000H   CODE     ---       UART_Init
*DEL*:00000000H   CODE     ---       UARTDataInit
*DEL*:00000000H   CODE     ---       UartDealComm
*DEL*:00000000H   CODE     ---       UartDealResponse
      000000C5H   IDATA    BYTE      UartErr
      000000C2H   IDATA    BYTE      UartFrameErr
*DEL*:00000000H   CODE     ---       UARTGetData
      000000C4H   IDATA    BYTE      UartHeadErr
      000000C6H   IDATA    BYTE      UartNoRxErr
*DEL*:00000000H   CODE     ---       UARTPer1ms
      000000BCH   IDATA    BYTE      UartRxCnt
      000000C8H   IDATA    BYTE      UartRxData
      000000C7H   IDATA    BYTE      UartRxFlag
      0200026AH   XDATA    WORD      UartRxIdleX1ms
      0200025DH   XDATA    WORD      UartRxInvalidX1ms
      000000CBH   IDATA    ---       UartRxLine
*DEL*:00000000H   CODE     ---       UARTSetData
      000000BAH   IDATA    BYTE      UartSumErr
      000000BEH   IDATA    BYTE      UartTimeOutErr
      000000BDH   IDATA    BYTE      UartTxCnt
      000000CAH   IDATA    BYTE      UartTxData
      000000C9H   IDATA    BYTE      UartTxFlag
      000000D1H   IDATA    ---       UartTxLine
      000000BBH   IDATA    BYTE      UartTxTrig
      020000F8H   XDATA    WORD      UBusADCSmpFilt
      020000E8H   XDATA    BYTE      UBusFall
      0200010BH   XDATA    BYTE      UBusHighCnt
      02000133H   XDATA    BYTE      UBusLowCnt
      02000136H   XDATA    WORD      UBusLowKeepCnt
      02000109H   XDATA    WORD      UBusMax
      02000127H   XDATA    BYTE      UBusMaxCnt
      02000125H   XDATA    WORD      UBusNormKeepCnt
      02000116H   XDATA    WORD      UBusSmp
      0200011AH   XDATA    WORD      UBusX10
      02000274H   XDATA    LONG      UIErr
      0200027CH   XDATA    INT       UIPIErr
      020001E6H   XDATA    WORD      UltraSpdX10ms
      02000268H   XDATA    WORD      URXCmdPwr
      02000264H   XDATA    DWORD     URXCmdRpm
      02000260H   XDATA    DWORD     URXCmdSpd
      0200025FH   XDATA    BYTE      URXCmdVal
      000000BFH   IDATA    BYTE      URXCnt
      0200026CH   XDATA    WORD      URXGoDuty
      0200025BH   XDATA    BYTE      URXMark
      000000C1H   IDATA    BYTE      URXSum
      01003897H   CODE     ---       USART_INT
      020001AAH   XDATA    ---       User
      01003678H   CODE     ---       UserParas
*SFR* 0000009AH   DATA     WORD      UT_BAUD
*SFR* 00000098H   DATA     BYTE      UT_CR
*SFR* 00000099H   DATA     BYTE      UT_DR
*SFR* 00000098H.6 DATA     BIT       UT_MOD0
*SFR* 00000098H.7 DATA     BIT       UT_MOD1
      000000C0H   IDATA    BYTE      UTXCnt
      0200025CH   XDATA    BYTE      UTXMark
      000000C3H   IDATA    BYTE      UTXSum
      00000046H   IDATA    DWORD     UxISmp
      01003115H   CODE     ---       VariablesPreInit
*DEL*:00000000H   CODE     ---       VHALFConfig
      020000F4H   XDATA    WORD      VoltKeepLowCnt
      020000E6H   XDATA    INT       VSP
LX51 LINKER/LOCATER V4.66.100.0                                                       04/25/2024  14:24:29  PAGE 23


      0000004BH   IDATA    INT       Vsp_Q12
      020001E8H   XDATA    WORD      VspIBusAlt
      01002F41H   CODE     ---       VspIBusRamp
      00000053H   IDATA    DWORD     VspPowerAlt
      0000002BH   IDATA    DWORD     VspPwrCmd
      020001E1H   XDATA    LONG      VspRPMAlt
      020001DDH   XDATA    LONG      VspRPMCmd
      00000027H   IDATA    INT       VspSpdAlt
      0000005EH   IDATA    INT       VspSpdCmd
      00000037H   IDATA    INT       VspSpdCmdMax
      0100317AH   CODE     ---       VspSpeedRamp
      0000003DH   IDATA    BYTE      VZeroCrossCnt
      0000003BH   IDATA    BYTE      VZeroCrossGetFlag
      00000034H   IDATA    BYTE      VZeroCrossLose
      00000036H   IDATA    BYTE      VZeroCrossOK
*DEL*:00000000H   CODE     ---       WatchDogRefresh
      0200028EH   XDATA    BYTE      WindTemperDelta
      00000020H.0 BIT      BIT       WindTemperHigh
      000000A1H   IDATA    CHAR      WindTemperRef
      01003750H   CODE     ---       ZeroCrossing_Init



SYMBOL TABLE OF MODULE:  .\Output\FOC_Fortior (MAIN)

      VALUE       REP       CLASS    TYPE      SYMBOL NAME
      ====================================================
      ---         MODULE    ---      ---       MAIN
      000000B0H.4 SFRSYM    DATA     BIT       GP34
      000000A0H.5 SFRSYM    DATA     BIT       GP25
      00000090H.6 SFRSYM    DATA     BIT       GP16
      00000080H.7 SFRSYM    DATA     BIT       GP07
      000000CDH   SFRSYM    DATA     BYTE      MDU_DB1
      000000C6H   SFRSYM    DATA     BYTE      MDU_DA2
      00000088H.1 SFRSYM    DATA     BIT       IT01
      00000088H.3 SFRSYM    DATA     BIT       IT10
      000000B0H.5 SFRSYM    DATA     BIT       GP35
      000000A0H.6 SFRSYM    DATA     BIT       GP26
      00000090H.7 SFRSYM    DATA     BIT       GP17
      00000080H   SFRSYM    DATA     BYTE      P0
      000000F6H   SFRSYM    DATA     WORD      PI_UKMIN
      000000C7H   SFRSYM    DATA     BYTE      MDU_DA3
      00000088H.4 SFRSYM    DATA     BIT       IT11
      000000C9H   SFRSYM    DATA     BYTE      RST_SR
      000000D9H   SFRSYM    DATA     BYTE      EVT_FILT
      000000B0H.6 SFRSYM    DATA     BIT       GP36
      000000A0H.7 SFRSYM    DATA     BIT       GP27
      00000090H   SFRSYM    DATA     BYTE      P1
      000000B0H.7 SFRSYM    DATA     BIT       GP37
      000000A0H   SFRSYM    DATA     BYTE      P2
      000000F4H   SFRSYM    DATA     WORD      PI_UKMAX
      000000B0H   SFRSYM    DATA     BYTE      P3
      000000E8H   SFRSYM    DATA     BYTE      P4
      000000D0H.6 SFRSYM    DATA     BIT       AC
      000000A8H.7 SFRSYM    DATA     BIT       EA
      000000D5H   SFRSYM    DATA     BYTE      CMP_CR0
      000000D6H   SFRSYM    DATA     BYTE      CMP_CR1
      000000DAH   SFRSYM    DATA     BYTE      CMP_CR2
      000000B8H.2 SFRSYM    DATA     BIT       PX00
      000000DCH   SFRSYM    DATA     BYTE      CMP_CR3
      000000F8H.0 SFRSYM    DATA     BIT       OISUH
      000000EAH   SFRSYM    DATA     WORD      PI_EK
      000000B8H.3 SFRSYM    DATA     BIT       PX01
      000000B8H.4 SFRSYM    DATA     BIT       PX10
      000000F8H.2 SFRSYM    DATA     BIT       OISVH
LX51 LINKER/LOCATER V4.66.100.0                                                       04/25/2024  14:24:29  PAGE 24


      000000B8H.5 SFRSYM    DATA     BIT       PX11
      000000F8H.1 SFRSYM    DATA     BIT       OISUL
      000000DDH   SFRSYM    DATA     BYTE      LPF_K
      000000F2H   SFRSYM    DATA     WORD      PI_KI
      000000A8H   SFRSYM    DATA     BYTE      IE
      000000F8H.3 SFRSYM    DATA     BIT       OISVL
      000000EEH   SFRSYM    DATA     WORD      PI_KP
      000000AAH   SFRSYM    DATA     WORD      TIM2__CNTR
      000000A2H   SFRSYM    DATA     WORD      TIM3__CNTR
      00000092H   SFRSYM    DATA     WORD      TIM4__CNTR
      000000ECH   SFRSYM    DATA     WORD      PI_UK
      000000DEH   SFRSYM    DATA     WORD      LPF_X
      00000098H.0 SFRSYM    DATA     BIT       RI
      00000098H.6 SFRSYM    DATA     BIT       UT_MOD0
      000000E6H   SFRSYM    DATA     WORD      LPF_Y
      00000098H.7 SFRSYM    DATA     BIT       UT_MOD1
      000000D0H.7 SFRSYM    DATA     BIT       CY
      00000098H.1 SFRSYM    DATA     BIT       TI
      000000C0H.2 SFRSYM    DATA     BIT       PTIM10
      00000084H   SFRSYM    DATA     BYTE      FLA_KEY
      000000C0H.0 SFRSYM    DATA     BIT       PTIM20
      000000C0H.3 SFRSYM    DATA     BIT       PTIM11
      00000098H   SFRSYM    DATA     BYTE      UT_CR
      000000C8H.2 SFRSYM    DATA     BIT       PTIM30
      000000C0H.1 SFRSYM    DATA     BIT       PTIM21
      00000099H   SFRSYM    DATA     BYTE      UT_DR
      000000C8H.3 SFRSYM    DATA     BIT       PTIM31
      000000D0H.2 SFRSYM    DATA     BIT       OV
      0000009AH   SFRSYM    DATA     WORD      UT_BAUD
      000000C4H   SFRSYM    DATA     WORD      MDU_DA01
      000000CCH   SFRSYM    DATA     WORD      MDU_DB01
      00000087H   SFRSYM    DATA     BYTE      PCON
      000000C6H   SFRSYM    DATA     WORD      MDU_DA23
      00000088H   SFRSYM    DATA     BYTE      TCON
      00000082H   SFRSYM    DATA     WORD      DPTR
      000000D8H.0 SFRSYM    DATA     BIT       PUART0
      000000D8H.1 SFRSYM    DATA     BIT       PUART1
      000000D8H.2 SFRSYM    DATA     BIT       PI2C0
      00000088H.2 SFRSYM    DATA     BIT       IF0
      000000D8H.3 SFRSYM    DATA     BIT       PI2C1
      000000AEH   SFRSYM    DATA     WORD      TIM2__ARR
      000000A1H   SFRSYM    DATA     BYTE      TIM2_CR0
      000000A6H   SFRSYM    DATA     WORD      TIM3__ARR
      0000009CH   SFRSYM    DATA     BYTE      TIM3_CR0
      000000A9H   SFRSYM    DATA     BYTE      TIM2_CR1
      00000096H   SFRSYM    DATA     WORD      TIM4__ARR
      0000009EH   SFRSYM    DATA     BYTE      TIM4_CR0
      0000009DH   SFRSYM    DATA     BYTE      TIM3_CR1
      000000F8H   SFRSYM    DATA     BYTE      DRV_OUT
      0000009FH   SFRSYM    DATA     BYTE      TIM4_CR1
      000000DBH   SFRSYM    DATA     BYTE      LVSR
      000000A8H.4 SFRSYM    DATA     BIT       ES0
      00000085H   SFRSYM    DATA     BYTE      FLA_CR
      000000C0H.4 SFRSYM    DATA     BIT       PADC0
      000000B8H   SFRSYM    DATA     BYTE      IP0
      000000C0H.5 SFRSYM    DATA     BIT       PADC1
      000000C0H   SFRSYM    DATA     BYTE      IP1
      000000C8H   SFRSYM    DATA     BYTE      IP2
      00000098H.2 SFRSYM    DATA     BIT       RB8
      000000D8H   SFRSYM    DATA     BYTE      IP3
      000000A8H.0 SFRSYM    DATA     BIT       EX0
      00000098H.3 SFRSYM    DATA     BIT       TB8
      000000A8H.2 SFRSYM    DATA     BIT       EX1
      000000D0H.0 SFRSYM    DATA     BIT       P
      000000F9H   SFRSYM    DATA     BYTE      PI_LPF_CR
LX51 LINKER/LOCATER V4.66.100.0                                                       04/25/2024  14:24:29  PAGE 25


      00000098H.5 SFRSYM    DATA     BIT       SM2
      000000D8H.6 SFRSYM    DATA     BIT       PDMA0
      000000D8H.7 SFRSYM    DATA     BIT       PDMA1
      000000C2H   SFRSYM    DATA     WORD      MDU_MA
      000000D0H.3 SFRSYM    DATA     BIT       RS0
      000000CAH   SFRSYM    DATA     WORD      MDU_MB
      000000D0H.4 SFRSYM    DATA     BIT       RS1
      000000C1H   SFRSYM    DATA     BYTE      MDU_CR
      000000F8H.7 SFRSYM    DATA     BIT       MOE
      000000C0H.6 SFRSYM    DATA     BIT       PCMP0
      000000C0H.7 SFRSYM    DATA     BIT       PCMP1
      000000F8H.4 SFRSYM    DATA     BIT       OISWXH
      00000098H.4 SFRSYM    DATA     BIT       REN
      000000D7H   SFRSYM    DATA     BYTE      CMP_SR
      000000F8H.5 SFRSYM    DATA     BIT       OISWXL
      000000C8H.6 SFRSYM    DATA     BIT       PTSD0
      000000D8H.4 SFRSYM    DATA     BIT       PSPI0
      000000C8H.7 SFRSYM    DATA     BIT       PTSD1
      000000B8H.6 SFRSYM    DATA     BIT       PDRV0
      000000D8H.5 SFRSYM    DATA     BIT       PSPI1
      000000B8H.7 SFRSYM    DATA     BIT       PDRV1
      000000D1H   SFRSYM    DATA     BYTE      P1_IE
      000000D3H   SFRSYM    DATA     BYTE      P2_IE
      000000D2H   SFRSYM    DATA     BYTE      P1_IF
      000000D4H   SFRSYM    DATA     BYTE      P2_IF
      000000ACH   SFRSYM    DATA     WORD      TIM2__DR
      000000C8H.4 SFRSYM    DATA     BIT       PTIM4S0
      000000FCH   SFRSYM    DATA     BYTE      P0_OE
      000000A4H   SFRSYM    DATA     WORD      TIM3__DR
      000000C8H.5 SFRSYM    DATA     BIT       PTIM4S1
      000000FDH   SFRSYM    DATA     BYTE      P1_OE
      00000094H   SFRSYM    DATA     WORD      TIM4__DR
      000000D0H.5 SFRSYM    DATA     BIT       F0
      000000FEH   SFRSYM    DATA     BYTE      P2_OE
      000000D0H.1 SFRSYM    DATA     BIT       F1
      000000FFH   SFRSYM    DATA     BYTE      P3_OE
      00000080H.0 SFRSYM    DATA     BIT       GP00
      000000E9H   SFRSYM    DATA     BYTE      P4_OE
      00000090H.0 SFRSYM    DATA     BIT       GP10
      00000080H.1 SFRSYM    DATA     BIT       GP01
      000000A0H.0 SFRSYM    DATA     BIT       GP20
      00000090H.1 SFRSYM    DATA     BIT       GP11
      00000080H.2 SFRSYM    DATA     BIT       GP02
      000000B0H.0 SFRSYM    DATA     BIT       GP30
      000000A0H.1 SFRSYM    DATA     BIT       GP21
      00000090H.2 SFRSYM    DATA     BIT       GP12
      00000080H.3 SFRSYM    DATA     BIT       GP03
      000000B8H.0 SFRSYM    DATA     BIT       PLVW0
      000000A8H.1 SFRSYM    DATA     BIT       TSDIE
      000000D0H   SFRSYM    DATA     BYTE      PSW
      000000E8H.0 SFRSYM    DATA     BIT       GP40
      000000B0H.1 SFRSYM    DATA     BIT       GP31
      000000A0H.2 SFRSYM    DATA     BIT       GP22
      00000090H.3 SFRSYM    DATA     BIT       GP13
      00000080H.4 SFRSYM    DATA     BIT       GP04
      000000B8H.1 SFRSYM    DATA     BIT       PLVW1
      000000A8H.3 SFRSYM    DATA     BIT       SPIIE
      00000088H.5 SFRSYM    DATA     BIT       TSDIF
      000000E8H.1 SFRSYM    DATA     BIT       GP41
      000000B0H.2 SFRSYM    DATA     BIT       GP32
      000000A0H.3 SFRSYM    DATA     BIT       GP23
      00000090H.4 SFRSYM    DATA     BIT       GP14
      00000080H.5 SFRSYM    DATA     BIT       GP05
      000000C4H   SFRSYM    DATA     BYTE      MDU_DA0
      000000E8H.2 SFRSYM    DATA     BIT       GP42
LX51 LINKER/LOCATER V4.66.100.0                                                       04/25/2024  14:24:29  PAGE 26


      000000B0H.3 SFRSYM    DATA     BIT       GP33
      000000A0H.4 SFRSYM    DATA     BIT       GP24
      00000090H.5 SFRSYM    DATA     BIT       GP15
      00000080H.6 SFRSYM    DATA     BIT       GP06
      000000CCH   SFRSYM    DATA     BYTE      MDU_DB0
      000000C5H   SFRSYM    DATA     BYTE      MDU_DA1
      00000088H.0 SFRSYM    DATA     BIT       IT00

      ---         MODULE    ---      ---       INTERRUPT
      020002B7H   PUBLIC    XDATA    ---       spidebug
      020002B5H   PUBLIC    XDATA    WORD      Power_Currt
      01000010H   PUBLIC    CODE     ---       INT15
      0100000FH   PUBLIC    CODE     ---       INT14
      0100000EH   PUBLIC    CODE     ---       INT13
      0100000AH   PUBLIC    CODE     ---       INT11
      01000009H   PUBLIC    CODE     ---       INT8
      01000008H   PUBLIC    CODE     ---       INT6
      01000007H   PUBLIC    CODE     ---       INT5
      01000006H   PUBLIC    CODE     ---       INT0
      01003795H   PUBLIC    CODE     ---       TIM3_INT
      010037D5H   PUBLIC    CODE     ---       TIM2_INT
      000000B0H.4 SFRSYM    DATA     BIT       GP34
      000000A0H.5 SFRSYM    DATA     BIT       GP25
      00000090H.6 SFRSYM    DATA     BIT       GP16
      00000080H.7 SFRSYM    DATA     BIT       GP07
      000000CDH   SFRSYM    DATA     BYTE      MDU_DB1
      000000C6H   SFRSYM    DATA     BYTE      MDU_DA2
      00000088H.1 SFRSYM    DATA     BIT       IT01
      00000088H.3 SFRSYM    DATA     BIT       IT10
      000000B0H.5 SFRSYM    DATA     BIT       GP35
      000000A0H.6 SFRSYM    DATA     BIT       GP26
      00000090H.7 SFRSYM    DATA     BIT       GP17
      00000080H   SFRSYM    DATA     BYTE      P0
      000000F6H   SFRSYM    DATA     WORD      PI_UKMIN
      000000C7H   SFRSYM    DATA     BYTE      MDU_DA3
      00000088H.4 SFRSYM    DATA     BIT       IT11
      000000C9H   SFRSYM    DATA     BYTE      RST_SR
      000000D9H   SFRSYM    DATA     BYTE      EVT_FILT
      000000B0H.6 SFRSYM    DATA     BIT       GP36
      000000A0H.7 SFRSYM    DATA     BIT       GP27
      00000090H   SFRSYM    DATA     BYTE      P1
      000000B0H.7 SFRSYM    DATA     BIT       GP37
      000000A0H   SFRSYM    DATA     BYTE      P2
      000000F4H   SFRSYM    DATA     WORD      PI_UKMAX
      000000B0H   SFRSYM    DATA     BYTE      P3
      000000E8H   SFRSYM    DATA     BYTE      P4
      000000D0H.6 SFRSYM    DATA     BIT       AC
      000000A8H.7 SFRSYM    DATA     BIT       EA
      000000D5H   SFRSYM    DATA     BYTE      CMP_CR0
      000000D6H   SFRSYM    DATA     BYTE      CMP_CR1
      000000DAH   SFRSYM    DATA     BYTE      CMP_CR2
      000000B8H.2 SFRSYM    DATA     BIT       PX00
      000000DCH   SFRSYM    DATA     BYTE      CMP_CR3
      000000F8H.0 SFRSYM    DATA     BIT       OISUH
      000000EAH   SFRSYM    DATA     WORD      PI_EK
      000000B8H.3 SFRSYM    DATA     BIT       PX01
      000000B8H.4 SFRSYM    DATA     BIT       PX10
      000000F8H.2 SFRSYM    DATA     BIT       OISVH
      000000B8H.5 SFRSYM    DATA     BIT       PX11
      000000F8H.1 SFRSYM    DATA     BIT       OISUL
      000000DDH   SFRSYM    DATA     BYTE      LPF_K
      000000F2H   SFRSYM    DATA     WORD      PI_KI
      000000A8H   SFRSYM    DATA     BYTE      IE
      000000F8H.3 SFRSYM    DATA     BIT       OISVL
      000000EEH   SFRSYM    DATA     WORD      PI_KP
LX51 LINKER/LOCATER V4.66.100.0                                                       04/25/2024  14:24:29  PAGE 27


      000000AAH   SFRSYM    DATA     WORD      TIM2__CNTR
      000000A2H   SFRSYM    DATA     WORD      TIM3__CNTR
      00000092H   SFRSYM    DATA     WORD      TIM4__CNTR
      000000ECH   SFRSYM    DATA     WORD      PI_UK
      000000DEH   SFRSYM    DATA     WORD      LPF_X
      00000098H.0 SFRSYM    DATA     BIT       RI
      00000098H.6 SFRSYM    DATA     BIT       UT_MOD0
      000000E6H   SFRSYM    DATA     WORD      LPF_Y
      00000098H.7 SFRSYM    DATA     BIT       UT_MOD1
      000000D0H.7 SFRSYM    DATA     BIT       CY
      00000098H.1 SFRSYM    DATA     BIT       TI
      000000C0H.2 SFRSYM    DATA     BIT       PTIM10
      00000084H   SFRSYM    DATA     BYTE      FLA_KEY
      000000C0H.0 SFRSYM    DATA     BIT       PTIM20
      000000C0H.3 SFRSYM    DATA     BIT       PTIM11
      00000098H   SFRSYM    DATA     BYTE      UT_CR
      000000C8H.2 SFRSYM    DATA     BIT       PTIM30
      000000C0H.1 SFRSYM    DATA     BIT       PTIM21
      00000099H   SFRSYM    DATA     BYTE      UT_DR
      000000C8H.3 SFRSYM    DATA     BIT       PTIM31
      000000D0H.2 SFRSYM    DATA     BIT       OV
      0000009AH   SFRSYM    DATA     WORD      UT_BAUD
      000000C4H   SFRSYM    DATA     WORD      MDU_DA01
      000000CCH   SFRSYM    DATA     WORD      MDU_DB01
      00000087H   SFRSYM    DATA     BYTE      PCON
      000000C6H   SFRSYM    DATA     WORD      MDU_DA23
      00000088H   SFRSYM    DATA     BYTE      TCON
      00000082H   SFRSYM    DATA     WORD      DPTR
      000000D8H.0 SFRSYM    DATA     BIT       PUART0
      000000D8H.1 SFRSYM    DATA     BIT       PUART1
      000000D8H.2 SFRSYM    DATA     BIT       PI2C0
      00000088H.2 SFRSYM    DATA     BIT       IF0
      000000D8H.3 SFRSYM    DATA     BIT       PI2C1
      000000AEH   SFRSYM    DATA     WORD      TIM2__ARR
      000000A1H   SFRSYM    DATA     BYTE      TIM2_CR0
      000000A6H   SFRSYM    DATA     WORD      TIM3__ARR
      0000009CH   SFRSYM    DATA     BYTE      TIM3_CR0
      000000A9H   SFRSYM    DATA     BYTE      TIM2_CR1
      00000096H   SFRSYM    DATA     WORD      TIM4__ARR
      0000009EH   SFRSYM    DATA     BYTE      TIM4_CR0
      0000009DH   SFRSYM    DATA     BYTE      TIM3_CR1
      000000F8H   SFRSYM    DATA     BYTE      DRV_OUT
      0000009FH   SFRSYM    DATA     BYTE      TIM4_CR1
      000000DBH   SFRSYM    DATA     BYTE      LVSR
      000000A8H.4 SFRSYM    DATA     BIT       ES0
      00000085H   SFRSYM    DATA     BYTE      FLA_CR
      000000C0H.4 SFRSYM    DATA     BIT       PADC0
      000000B8H   SFRSYM    DATA     BYTE      IP0
      000000C0H.5 SFRSYM    DATA     BIT       PADC1
      000000C0H   SFRSYM    DATA     BYTE      IP1
      000000C8H   SFRSYM    DATA     BYTE      IP2
      00000098H.2 SFRSYM    DATA     BIT       RB8
      000000D8H   SFRSYM    DATA     BYTE      IP3
      000000A8H.0 SFRSYM    DATA     BIT       EX0
      00000098H.3 SFRSYM    DATA     BIT       TB8
      000000A8H.2 SFRSYM    DATA     BIT       EX1
      000000D0H.0 SFRSYM    DATA     BIT       P
      000000F9H   SFRSYM    DATA     BYTE      PI_LPF_CR
      00000098H.5 SFRSYM    DATA     BIT       SM2
      000000D8H.6 SFRSYM    DATA     BIT       PDMA0
      000000D8H.7 SFRSYM    DATA     BIT       PDMA1
      000000C2H   SFRSYM    DATA     WORD      MDU_MA
      000000D0H.3 SFRSYM    DATA     BIT       RS0
      000000CAH   SFRSYM    DATA     WORD      MDU_MB
      000000D0H.4 SFRSYM    DATA     BIT       RS1
LX51 LINKER/LOCATER V4.66.100.0                                                       04/25/2024  14:24:29  PAGE 28


      000000C1H   SFRSYM    DATA     BYTE      MDU_CR
      000000F8H.7 SFRSYM    DATA     BIT       MOE
      000000C0H.6 SFRSYM    DATA     BIT       PCMP0
      000000C0H.7 SFRSYM    DATA     BIT       PCMP1
      000000F8H.4 SFRSYM    DATA     BIT       OISWXH
      00000098H.4 SFRSYM    DATA     BIT       REN
      000000D7H   SFRSYM    DATA     BYTE      CMP_SR
      000000F8H.5 SFRSYM    DATA     BIT       OISWXL
      000000C8H.6 SFRSYM    DATA     BIT       PTSD0
      000000D8H.4 SFRSYM    DATA     BIT       PSPI0
      000000C8H.7 SFRSYM    DATA     BIT       PTSD1
      000000B8H.6 SFRSYM    DATA     BIT       PDRV0
      000000D8H.5 SFRSYM    DATA     BIT       PSPI1
      000000B8H.7 SFRSYM    DATA     BIT       PDRV1
      000000D1H   SFRSYM    DATA     BYTE      P1_IE
      000000D3H   SFRSYM    DATA     BYTE      P2_IE
      000000D2H   SFRSYM    DATA     BYTE      P1_IF
      000000D4H   SFRSYM    DATA     BYTE      P2_IF
      000000ACH   SFRSYM    DATA     WORD      TIM2__DR
      000000C8H.4 SFRSYM    DATA     BIT       PTIM4S0
      000000FCH   SFRSYM    DATA     BYTE      P0_OE
      000000A4H   SFRSYM    DATA     WORD      TIM3__DR
      000000C8H.5 SFRSYM    DATA     BIT       PTIM4S1
      000000FDH   SFRSYM    DATA     BYTE      P1_OE
      00000094H   SFRSYM    DATA     WORD      TIM4__DR
      000000D0H.5 SFRSYM    DATA     BIT       F0
      000000FEH   SFRSYM    DATA     BYTE      P2_OE
      000000D0H.1 SFRSYM    DATA     BIT       F1
      000000FFH   SFRSYM    DATA     BYTE      P3_OE
      00000080H.0 SFRSYM    DATA     BIT       GP00
      000000E9H   SFRSYM    DATA     BYTE      P4_OE
      00000090H.0 SFRSYM    DATA     BIT       GP10
      00000080H.1 SFRSYM    DATA     BIT       GP01
      000000A0H.0 SFRSYM    DATA     BIT       GP20
      00000090H.1 SFRSYM    DATA     BIT       GP11
      00000080H.2 SFRSYM    DATA     BIT       GP02
      000000B0H.0 SFRSYM    DATA     BIT       GP30
      000000A0H.1 SFRSYM    DATA     BIT       GP21
      00000090H.2 SFRSYM    DATA     BIT       GP12
      00000080H.3 SFRSYM    DATA     BIT       GP03
      000000B8H.0 SFRSYM    DATA     BIT       PLVW0
      000000A8H.1 SFRSYM    DATA     BIT       TSDIE
      000000D0H   SFRSYM    DATA     BYTE      PSW
      000000E8H.0 SFRSYM    DATA     BIT       GP40
      000000B0H.1 SFRSYM    DATA     BIT       GP31
      000000A0H.2 SFRSYM    DATA     BIT       GP22
      00000090H.3 SFRSYM    DATA     BIT       GP13
      00000080H.4 SFRSYM    DATA     BIT       GP04
      000000B8H.1 SFRSYM    DATA     BIT       PLVW1
      000000A8H.3 SFRSYM    DATA     BIT       SPIIE
      00000088H.5 SFRSYM    DATA     BIT       TSDIF
      000000E8H.1 SFRSYM    DATA     BIT       GP41
      000000B0H.2 SFRSYM    DATA     BIT       GP32
      000000A0H.3 SFRSYM    DATA     BIT       GP23
      00000090H.4 SFRSYM    DATA     BIT       GP14
      00000080H.5 SFRSYM    DATA     BIT       GP05
      000000C4H   SFRSYM    DATA     BYTE      MDU_DA0
      000000E8H.2 SFRSYM    DATA     BIT       GP42
      000000B0H.3 SFRSYM    DATA     BIT       GP33
      000000A0H.4 SFRSYM    DATA     BIT       GP24
      00000090H.5 SFRSYM    DATA     BIT       GP15
      00000080H.6 SFRSYM    DATA     BIT       GP06
      000000CCH   SFRSYM    DATA     BYTE      MDU_DB0
      000000C5H   SFRSYM    DATA     BYTE      MDU_DA1
      00000088H.0 SFRSYM    DATA     BIT       IT00
LX51 LINKER/LOCATER V4.66.100.0                                                       04/25/2024  14:24:29  PAGE 29



      010037D5H   BLOCK     CODE     ---       LVL=0
      010037D5H   LINE      CODE     ---       #126
      010037D7H   LINE      CODE     ---       #128
      010037DCH   LINE      CODE     ---       #129
      010037DCH   LINE      CODE     ---       #130
      010037DFH   LINE      CODE     ---       #131
      010037DFH   LINE      CODE     ---       #132
      010037E4H   LINE      CODE     ---       #133
      010037E4H   LINE      CODE     ---       #138
      010037E7H   LINE      CODE     ---       #139
      010037E7H   LINE      CODE     ---       #140
      010037ECH   LINE      CODE     ---       #141
      010037ECH   LINE      CODE     ---       #147
      010037EFH   LINE      CODE     ---       #148
      010037EFH   LINE      CODE     ---       #149
      ---         BLOCKEND  ---      ---       LVL=0

      01003795H   BLOCK     CODE     ---       LVL=0
      01003795H   LINE      CODE     ---       #191
      01003797H   LINE      CODE     ---       #193
      0100379CH   LINE      CODE     ---       #194
      0100379CH   LINE      CODE     ---       #195
      0100379FH   LINE      CODE     ---       #196
      0100379FH   LINE      CODE     ---       #197
      010037A4H   LINE      CODE     ---       #198
      010037A4H   LINE      CODE     ---       #199
      010037A7H   LINE      CODE     ---       #200
      010037A7H   LINE      CODE     ---       #201
      010037ACH   LINE      CODE     ---       #202
      010037ACH   LINE      CODE     ---       #203
      010037AFH   LINE      CODE     ---       #204
      010037B2H   LINE      CODE     ---       #205
      010037B2H   LINE      CODE     ---       #206
      ---         BLOCKEND  ---      ---       LVL=0

      01000006H   BLOCK     CODE     ---       LVL=0
      01000006H   LINE      CODE     ---       #342
      01000006H   LINE      CODE     ---       #344
      ---         BLOCKEND  ---      ---       LVL=0

      01000007H   BLOCK     CODE     ---       LVL=0
      01000007H   LINE      CODE     ---       #345
      01000007H   LINE      CODE     ---       #347
      ---         BLOCKEND  ---      ---       LVL=0

      01000008H   BLOCK     CODE     ---       LVL=0
      01000008H   LINE      CODE     ---       #348
      01000008H   LINE      CODE     ---       #350
      ---         BLOCKEND  ---      ---       LVL=0

      01000009H   BLOCK     CODE     ---       LVL=0
      01000009H   LINE      CODE     ---       #351
      01000009H   LINE      CODE     ---       #353
      ---         BLOCKEND  ---      ---       LVL=0

      0100000AH   BLOCK     CODE     ---       LVL=0
      0100000AH   LINE      CODE     ---       #354
      0100000AH   LINE      CODE     ---       #356
      ---         BLOCKEND  ---      ---       LVL=0

      0100000EH   BLOCK     CODE     ---       LVL=0
      0100000EH   LINE      CODE     ---       #357
      0100000EH   LINE      CODE     ---       #359
      ---         BLOCKEND  ---      ---       LVL=0
LX51 LINKER/LOCATER V4.66.100.0                                                       04/25/2024  14:24:29  PAGE 30



      0100000FH   BLOCK     CODE     ---       LVL=0
      0100000FH   LINE      CODE     ---       #360
      0100000FH   LINE      CODE     ---       #362
      ---         BLOCKEND  ---      ---       LVL=0

      01000010H   BLOCK     CODE     ---       LVL=0
      01000010H   LINE      CODE     ---       #363
      01000010H   LINE      CODE     ---       #365
      ---         BLOCKEND  ---      ---       LVL=0

      ---         MODULE    ---      ---       ADDFUNCTION
      020000E6H   PUBLIC    XDATA    INT       VSP
      020000DEH   PUBLIC    XDATA    ---       AdcSampleValue
      020000DAH   PUBLIC    XDATA    ---       mcFRState
      020000D8H   PUBLIC    XDATA    WORD      POWER_VSP
      020000C9H   PUBLIC    XDATA    ---       mcSpeedRamp
      02000090H   PUBLIC    XDATA    ---       mcFaultDect
      0200008CH   PUBLIC    XDATA    FLOAT     brakeduty
      0000008EH   PUBLIC    IDATA    ---       mcProtectTime
      00000081H   PUBLIC    IDATA    ---       mcCurVarible
      00000063H   PUBLIC    IDATA    ---       RSDDetect
      0200008BH   PUBLIC    XDATA    BYTE      mcFaultSource
      02000084H   PUBLIC    XDATA    ---       mcLedDisplay
      0200007BH   PUBLIC    XDATA    ---       SleepSet
      02000069H   PUBLIC    XDATA    ---       SpeedPICtrl
      02000060H   PUBLIC    XDATA    ---       ONOFFTest
      02000045H   PUBLIC    XDATA    ---       mcPwmInput
      02000000H   PUBLIC    XDATA    ---       mcFocCtrl
      01002D28H   PUBLIC    CODE     ---       StarRampDealwith
      010036A7H   PUBLIC    CODE     ---       _LPFFunction
      01003503H   PUBLIC    CODE     ---       APP_DIV
      000000B0H.4 SFRSYM    DATA     BIT       GP34
      000000A0H.5 SFRSYM    DATA     BIT       GP25
      00000090H.6 SFRSYM    DATA     BIT       GP16
      00000080H.7 SFRSYM    DATA     BIT       GP07
      000000CDH   SFRSYM    DATA     BYTE      MDU_DB1
      000000C6H   SFRSYM    DATA     BYTE      MDU_DA2
      00000088H.1 SFRSYM    DATA     BIT       IT01
      00000088H.3 SFRSYM    DATA     BIT       IT10
      000000B0H.5 SFRSYM    DATA     BIT       GP35
      000000A0H.6 SFRSYM    DATA     BIT       GP26
      00000090H.7 SFRSYM    DATA     BIT       GP17
      00000080H   SFRSYM    DATA     BYTE      P0
      000000F6H   SFRSYM    DATA     WORD      PI_UKMIN
      000000C7H   SFRSYM    DATA     BYTE      MDU_DA3
      00000088H.4 SFRSYM    DATA     BIT       IT11
      000000C9H   SFRSYM    DATA     BYTE      RST_SR
      000000D9H   SFRSYM    DATA     BYTE      EVT_FILT
      000000B0H.6 SFRSYM    DATA     BIT       GP36
      000000A0H.7 SFRSYM    DATA     BIT       GP27
      00000090H   SFRSYM    DATA     BYTE      P1
      000000B0H.7 SFRSYM    DATA     BIT       GP37
      000000A0H   SFRSYM    DATA     BYTE      P2
      000000F4H   SFRSYM    DATA     WORD      PI_UKMAX
      000000B0H   SFRSYM    DATA     BYTE      P3
      000000E8H   SFRSYM    DATA     BYTE      P4
      000000D0H.6 SFRSYM    DATA     BIT       AC
      000000A8H.7 SFRSYM    DATA     BIT       EA
      000000D5H   SFRSYM    DATA     BYTE      CMP_CR0
      000000D6H   SFRSYM    DATA     BYTE      CMP_CR1
      000000DAH   SFRSYM    DATA     BYTE      CMP_CR2
      000000B8H.2 SFRSYM    DATA     BIT       PX00
      000000DCH   SFRSYM    DATA     BYTE      CMP_CR3
      000000F8H.0 SFRSYM    DATA     BIT       OISUH
LX51 LINKER/LOCATER V4.66.100.0                                                       04/25/2024  14:24:29  PAGE 31


      000000EAH   SFRSYM    DATA     WORD      PI_EK
      000000B8H.3 SFRSYM    DATA     BIT       PX01
      000000B8H.4 SFRSYM    DATA     BIT       PX10
      000000F8H.2 SFRSYM    DATA     BIT       OISVH
      000000B8H.5 SFRSYM    DATA     BIT       PX11
      000000F8H.1 SFRSYM    DATA     BIT       OISUL
      000000DDH   SFRSYM    DATA     BYTE      LPF_K
      000000F2H   SFRSYM    DATA     WORD      PI_KI
      000000A8H   SFRSYM    DATA     BYTE      IE
      000000F8H.3 SFRSYM    DATA     BIT       OISVL
      000000EEH   SFRSYM    DATA     WORD      PI_KP
      000000AAH   SFRSYM    DATA     WORD      TIM2__CNTR
      000000A2H   SFRSYM    DATA     WORD      TIM3__CNTR
      00000092H   SFRSYM    DATA     WORD      TIM4__CNTR
      000000ECH   SFRSYM    DATA     WORD      PI_UK
      000000DEH   SFRSYM    DATA     WORD      LPF_X
      00000098H.0 SFRSYM    DATA     BIT       RI
      00000098H.6 SFRSYM    DATA     BIT       UT_MOD0
      000000E6H   SFRSYM    DATA     WORD      LPF_Y
      00000098H.7 SFRSYM    DATA     BIT       UT_MOD1
      000000D0H.7 SFRSYM    DATA     BIT       CY
      00000098H.1 SFRSYM    DATA     BIT       TI
      000000C0H.2 SFRSYM    DATA     BIT       PTIM10
      00000084H   SFRSYM    DATA     BYTE      FLA_KEY
      000000C0H.0 SFRSYM    DATA     BIT       PTIM20
      000000C0H.3 SFRSYM    DATA     BIT       PTIM11
      00000098H   SFRSYM    DATA     BYTE      UT_CR
      000000C8H.2 SFRSYM    DATA     BIT       PTIM30
      000000C0H.1 SFRSYM    DATA     BIT       PTIM21
      00000099H   SFRSYM    DATA     BYTE      UT_DR
      000000C8H.3 SFRSYM    DATA     BIT       PTIM31
      000000D0H.2 SFRSYM    DATA     BIT       OV
      0000009AH   SFRSYM    DATA     WORD      UT_BAUD
      000000C4H   SFRSYM    DATA     WORD      MDU_DA01
      000000CCH   SFRSYM    DATA     WORD      MDU_DB01
      00000087H   SFRSYM    DATA     BYTE      PCON
      000000C6H   SFRSYM    DATA     WORD      MDU_DA23
      00000088H   SFRSYM    DATA     BYTE      TCON
      00000082H   SFRSYM    DATA     WORD      DPTR
      000000D8H.0 SFRSYM    DATA     BIT       PUART0
      000000D8H.1 SFRSYM    DATA     BIT       PUART1
      000000D8H.2 SFRSYM    DATA     BIT       PI2C0
      00000088H.2 SFRSYM    DATA     BIT       IF0
      000000D8H.3 SFRSYM    DATA     BIT       PI2C1
      000000AEH   SFRSYM    DATA     WORD      TIM2__ARR
      000000A1H   SFRSYM    DATA     BYTE      TIM2_CR0
      000000A6H   SFRSYM    DATA     WORD      TIM3__ARR
      0000009CH   SFRSYM    DATA     BYTE      TIM3_CR0
      000000A9H   SFRSYM    DATA     BYTE      TIM2_CR1
      00000096H   SFRSYM    DATA     WORD      TIM4__ARR
      0000009EH   SFRSYM    DATA     BYTE      TIM4_CR0
      0000009DH   SFRSYM    DATA     BYTE      TIM3_CR1
      000000F8H   SFRSYM    DATA     BYTE      DRV_OUT
      0000009FH   SFRSYM    DATA     BYTE      TIM4_CR1
      000000DBH   SFRSYM    DATA     BYTE      LVSR
      000000A8H.4 SFRSYM    DATA     BIT       ES0
      00000085H   SFRSYM    DATA     BYTE      FLA_CR
      000000C0H.4 SFRSYM    DATA     BIT       PADC0
      000000B8H   SFRSYM    DATA     BYTE      IP0
      000000C0H.5 SFRSYM    DATA     BIT       PADC1
      000000C0H   SFRSYM    DATA     BYTE      IP1
      000000C8H   SFRSYM    DATA     BYTE      IP2
      00000098H.2 SFRSYM    DATA     BIT       RB8
      000000D8H   SFRSYM    DATA     BYTE      IP3
      000000A8H.0 SFRSYM    DATA     BIT       EX0
LX51 LINKER/LOCATER V4.66.100.0                                                       04/25/2024  14:24:29  PAGE 32


      00000098H.3 SFRSYM    DATA     BIT       TB8
      000000A8H.2 SFRSYM    DATA     BIT       EX1
      000000D0H.0 SFRSYM    DATA     BIT       P
      000000F9H   SFRSYM    DATA     BYTE      PI_LPF_CR
      00000098H.5 SFRSYM    DATA     BIT       SM2
      000000D8H.6 SFRSYM    DATA     BIT       PDMA0
      000000D8H.7 SFRSYM    DATA     BIT       PDMA1
      000000C2H   SFRSYM    DATA     WORD      MDU_MA
      000000D0H.3 SFRSYM    DATA     BIT       RS0
      000000CAH   SFRSYM    DATA     WORD      MDU_MB
      000000D0H.4 SFRSYM    DATA     BIT       RS1
      000000C1H   SFRSYM    DATA     BYTE      MDU_CR
      000000F8H.7 SFRSYM    DATA     BIT       MOE
      000000C0H.6 SFRSYM    DATA     BIT       PCMP0
      000000C0H.7 SFRSYM    DATA     BIT       PCMP1
      000000F8H.4 SFRSYM    DATA     BIT       OISWXH
      00000098H.4 SFRSYM    DATA     BIT       REN
      000000D7H   SFRSYM    DATA     BYTE      CMP_SR
      000000F8H.5 SFRSYM    DATA     BIT       OISWXL
      000000C8H.6 SFRSYM    DATA     BIT       PTSD0
      000000D8H.4 SFRSYM    DATA     BIT       PSPI0
      000000C8H.7 SFRSYM    DATA     BIT       PTSD1
      000000B8H.6 SFRSYM    DATA     BIT       PDRV0
      000000D8H.5 SFRSYM    DATA     BIT       PSPI1
      000000B8H.7 SFRSYM    DATA     BIT       PDRV1
      000000D1H   SFRSYM    DATA     BYTE      P1_IE
      000000D3H   SFRSYM    DATA     BYTE      P2_IE
      000000D2H   SFRSYM    DATA     BYTE      P1_IF
      000000D4H   SFRSYM    DATA     BYTE      P2_IF
      000000ACH   SFRSYM    DATA     WORD      TIM2__DR
      000000C8H.4 SFRSYM    DATA     BIT       PTIM4S0
      000000FCH   SFRSYM    DATA     BYTE      P0_OE
      000000A4H   SFRSYM    DATA     WORD      TIM3__DR
      000000C8H.5 SFRSYM    DATA     BIT       PTIM4S1
      000000FDH   SFRSYM    DATA     BYTE      P1_OE
      00000094H   SFRSYM    DATA     WORD      TIM4__DR
      000000D0H.5 SFRSYM    DATA     BIT       F0
      000000FEH   SFRSYM    DATA     BYTE      P2_OE
      000000D0H.1 SFRSYM    DATA     BIT       F1
      000000FFH   SFRSYM    DATA     BYTE      P3_OE
      00000080H.0 SFRSYM    DATA     BIT       GP00
      000000E9H   SFRSYM    DATA     BYTE      P4_OE
      00000090H.0 SFRSYM    DATA     BIT       GP10
      00000080H.1 SFRSYM    DATA     BIT       GP01
      000000A0H.0 SFRSYM    DATA     BIT       GP20
      00000090H.1 SFRSYM    DATA     BIT       GP11
      00000080H.2 SFRSYM    DATA     BIT       GP02
      000000B0H.0 SFRSYM    DATA     BIT       GP30
      000000A0H.1 SFRSYM    DATA     BIT       GP21
      00000090H.2 SFRSYM    DATA     BIT       GP12
      00000080H.3 SFRSYM    DATA     BIT       GP03
      000000B8H.0 SFRSYM    DATA     BIT       PLVW0
      000000A8H.1 SFRSYM    DATA     BIT       TSDIE
      000000D0H   SFRSYM    DATA     BYTE      PSW
      000000E8H.0 SFRSYM    DATA     BIT       GP40
      000000B0H.1 SFRSYM    DATA     BIT       GP31
      000000A0H.2 SFRSYM    DATA     BIT       GP22
      00000090H.3 SFRSYM    DATA     BIT       GP13
      00000080H.4 SFRSYM    DATA     BIT       GP04
      000000B8H.1 SFRSYM    DATA     BIT       PLVW1
      000000A8H.3 SFRSYM    DATA     BIT       SPIIE
      00000088H.5 SFRSYM    DATA     BIT       TSDIF
      000000E8H.1 SFRSYM    DATA     BIT       GP41
      000000B0H.2 SFRSYM    DATA     BIT       GP32
      000000A0H.3 SFRSYM    DATA     BIT       GP23
LX51 LINKER/LOCATER V4.66.100.0                                                       04/25/2024  14:24:29  PAGE 33


      00000090H.4 SFRSYM    DATA     BIT       GP14
      00000080H.5 SFRSYM    DATA     BIT       GP05
      000000C4H   SFRSYM    DATA     BYTE      MDU_DA0
      000000E8H.2 SFRSYM    DATA     BIT       GP42
      000000B0H.3 SFRSYM    DATA     BIT       GP33
      000000A0H.4 SFRSYM    DATA     BIT       GP24
      00000090H.5 SFRSYM    DATA     BIT       GP15
      00000080H.6 SFRSYM    DATA     BIT       GP06
      000000CCH   SFRSYM    DATA     BYTE      MDU_DB0
      000000C5H   SFRSYM    DATA     BYTE      MDU_DA1
      00000088H.0 SFRSYM    DATA     BIT       IT00
      00000006H   SYMBOL    DATA     INT       Result
      00000004H   SYMBOL    DATA     INT       value

      01003503H   BLOCK     CODE     ---       LVL=0
      01003503H   LINE      CODE     ---       #144
      01003503H   LINE      CODE     ---       #145
      01003503H   LINE      CODE     ---       #146
      0100350AH   LINE      CODE     ---       #147
      0100350AH   LINE      CODE     ---       #148
      01003519H   LINE      CODE     ---       #149
      0100351EH   LINE      CODE     ---       #150
      0100351EH   LINE      CODE     ---       #151
      01003525H   LINE      CODE     ---       #152
      01003525H   LINE      CODE     ---       #153
      01003538H   LINE      CODE     ---       #154
      0100353DH   LINE      CODE     ---       #155
      0100353DH   LINE      CODE     ---       #156
      ---         BLOCKEND  ---      ---       LVL=0
      00000001H   SYMBOL    DATA     ---       h_Fault
      00000001H   SYMBOL    DATA     ---       h_Cur
      00000001H   SYMBOL    DATA     ---       h_Fault
      00000001H   SYMBOL    DATA     ---       h_Fault
      00000001H   SYMBOL    DATA     ---       h_Fault
      00000001H   SYMBOL    DATA     ---       h_Fault
      00000001H   SYMBOL    DATA     ---       h_Fault
      00000001H   SYMBOL    DATA     ---       hLedDisplay
      00000006H   SYMBOL    DATA     INT       Xn1
      00000001H   SYMBOL    DATA     ---       PIPara

      010036A7H   BLOCK     CODE     ---       LVL=0
      02000295H   SYMBOL    XDATA    INT       Xn1
      00000004H   SYMBOL    DATA     INT       Xn0
      00000003H   SYMBOL    DATA     CHAR      K
      010036A7H   LINE      CODE     ---       #1270
      010036AFH   LINE      CODE     ---       #1271
      010036AFH   LINE      CODE     ---       #1272
      010036B3H   LINE      CODE     ---       #1273
      010036BFH   LINE      CODE     ---       #1274
      010036C7H   LINE      CODE     ---       #1275
      010036CAH   LINE      CODE     ---       #1276
      010036CFH   LINE      CODE     ---       #1277
      010036D3H   LINE      CODE     ---       #1278
      ---         BLOCKEND  ---      ---       LVL=0

      01002D28H   BLOCK     CODE     ---       LVL=0
      01002D28H   LINE      CODE     ---       #1315
      01002D28H   LINE      CODE     ---       #1316
      01002D28H   LINE      CODE     ---       #1317
      01002D33H   LINE      CODE     ---       #1318
      01002D33H   LINE      CODE     ---       #1319
      01002D42H   LINE      CODE     ---       #1320
      01002D42H   LINE      CODE     ---       #1321
      01002D4CH   LINE      CODE     ---       #1322
      01002D53H   LINE      CODE     ---       #1323
LX51 LINKER/LOCATER V4.66.100.0                                                       04/25/2024  14:24:29  PAGE 34


      01002D54H   LINE      CODE     ---       #1324
      01002D5AH   LINE      CODE     ---       #1325
      01002D5AH   LINE      CODE     ---       #1326
      01002D64H   LINE      CODE     ---       #1327
      01002D6BH   LINE      CODE     ---       #1328
      01002D6CH   LINE      CODE     ---       #1329
      01002D72H   LINE      CODE     ---       #1330
      01002D72H   LINE      CODE     ---       #1331
      01002D7CH   LINE      CODE     ---       #1332
      01002D83H   LINE      CODE     ---       #1333
      01002D84H   LINE      CODE     ---       #1334
      01002D8AH   LINE      CODE     ---       #1335
      01002D8AH   LINE      CODE     ---       #1336
      01002D94H   LINE      CODE     ---       #1337
      01002D9BH   LINE      CODE     ---       #1338
      01002D9CH   LINE      CODE     ---       #1339
      01002DA2H   LINE      CODE     ---       #1340
      01002DA2H   LINE      CODE     ---       #1341
      01002DACH   LINE      CODE     ---       #1342
      01002DB3H   LINE      CODE     ---       #1343
      01002DB3H   LINE      CODE     ---       #1345
      01002DB3H   LINE      CODE     ---       #1346
      ---         BLOCKEND  ---      ---       LVL=0

      ---         MODULE    ---      ---       USERMAIN
      020002CBH   PUBLIC    XDATA    WORD      PowerUpCnt
      00000021H.3 PUBLIC    BIT      BIT       TestMode
      01002548H   PUBLIC    CODE     ---       main
      000000B0H.4 SFRSYM    DATA     BIT       GP34
      000000A0H.5 SFRSYM    DATA     BIT       GP25
      00000090H.6 SFRSYM    DATA     BIT       GP16
      00000080H.7 SFRSYM    DATA     BIT       GP07
      000000CDH   SFRSYM    DATA     BYTE      MDU_DB1
      000000C6H   SFRSYM    DATA     BYTE      MDU_DA2
      00000088H.1 SFRSYM    DATA     BIT       IT01
      00000088H.3 SFRSYM    DATA     BIT       IT10
      000000B0H.5 SFRSYM    DATA     BIT       GP35
      000000A0H.6 SFRSYM    DATA     BIT       GP26
      00000090H.7 SFRSYM    DATA     BIT       GP17
      00000080H   SFRSYM    DATA     BYTE      P0
      000000F6H   SFRSYM    DATA     WORD      PI_UKMIN
      000000C7H   SFRSYM    DATA     BYTE      MDU_DA3
      00000088H.4 SFRSYM    DATA     BIT       IT11
      000000C9H   SFRSYM    DATA     BYTE      RST_SR
      000000D9H   SFRSYM    DATA     BYTE      EVT_FILT
      000000B0H.6 SFRSYM    DATA     BIT       GP36
      000000A0H.7 SFRSYM    DATA     BIT       GP27
      00000090H   SFRSYM    DATA     BYTE      P1
      000000B0H.7 SFRSYM    DATA     BIT       GP37
      000000A0H   SFRSYM    DATA     BYTE      P2
      000000F4H   SFRSYM    DATA     WORD      PI_UKMAX
      000000B0H   SFRSYM    DATA     BYTE      P3
      000000E8H   SFRSYM    DATA     BYTE      P4
      000000D0H.6 SFRSYM    DATA     BIT       AC
      000000A8H.7 SFRSYM    DATA     BIT       EA
      000000D5H   SFRSYM    DATA     BYTE      CMP_CR0
      000000D6H   SFRSYM    DATA     BYTE      CMP_CR1
      000000DAH   SFRSYM    DATA     BYTE      CMP_CR2
      000000B8H.2 SFRSYM    DATA     BIT       PX00
      000000DCH   SFRSYM    DATA     BYTE      CMP_CR3
      000000F8H.0 SFRSYM    DATA     BIT       OISUH
      000000EAH   SFRSYM    DATA     WORD      PI_EK
      000000B8H.3 SFRSYM    DATA     BIT       PX01
      000000B8H.4 SFRSYM    DATA     BIT       PX10
      000000F8H.2 SFRSYM    DATA     BIT       OISVH
LX51 LINKER/LOCATER V4.66.100.0                                                       04/25/2024  14:24:29  PAGE 35


      000000B8H.5 SFRSYM    DATA     BIT       PX11
      000000F8H.1 SFRSYM    DATA     BIT       OISUL
      000000DDH   SFRSYM    DATA     BYTE      LPF_K
      000000F2H   SFRSYM    DATA     WORD      PI_KI
      000000A8H   SFRSYM    DATA     BYTE      IE
      000000F8H.3 SFRSYM    DATA     BIT       OISVL
      000000EEH   SFRSYM    DATA     WORD      PI_KP
      000000AAH   SFRSYM    DATA     WORD      TIM2__CNTR
      000000A2H   SFRSYM    DATA     WORD      TIM3__CNTR
      00000092H   SFRSYM    DATA     WORD      TIM4__CNTR
      000000ECH   SFRSYM    DATA     WORD      PI_UK
      000000DEH   SFRSYM    DATA     WORD      LPF_X
      00000098H.0 SFRSYM    DATA     BIT       RI
      00000098H.6 SFRSYM    DATA     BIT       UT_MOD0
      000000E6H   SFRSYM    DATA     WORD      LPF_Y
      00000098H.7 SFRSYM    DATA     BIT       UT_MOD1
      000000D0H.7 SFRSYM    DATA     BIT       CY
      00000098H.1 SFRSYM    DATA     BIT       TI
      000000C0H.2 SFRSYM    DATA     BIT       PTIM10
      00000084H   SFRSYM    DATA     BYTE      FLA_KEY
      000000C0H.0 SFRSYM    DATA     BIT       PTIM20
      000000C0H.3 SFRSYM    DATA     BIT       PTIM11
      00000098H   SFRSYM    DATA     BYTE      UT_CR
      000000C8H.2 SFRSYM    DATA     BIT       PTIM30
      000000C0H.1 SFRSYM    DATA     BIT       PTIM21
      00000099H   SFRSYM    DATA     BYTE      UT_DR
      000000C8H.3 SFRSYM    DATA     BIT       PTIM31
      000000D0H.2 SFRSYM    DATA     BIT       OV
      0000009AH   SFRSYM    DATA     WORD      UT_BAUD
      000000C4H   SFRSYM    DATA     WORD      MDU_DA01
      000000CCH   SFRSYM    DATA     WORD      MDU_DB01
      00000087H   SFRSYM    DATA     BYTE      PCON
      000000C6H   SFRSYM    DATA     WORD      MDU_DA23
      00000088H   SFRSYM    DATA     BYTE      TCON
      00000082H   SFRSYM    DATA     WORD      DPTR
      000000D8H.0 SFRSYM    DATA     BIT       PUART0
      000000D8H.1 SFRSYM    DATA     BIT       PUART1
      000000D8H.2 SFRSYM    DATA     BIT       PI2C0
      00000088H.2 SFRSYM    DATA     BIT       IF0
      000000D8H.3 SFRSYM    DATA     BIT       PI2C1
      000000AEH   SFRSYM    DATA     WORD      TIM2__ARR
      000000A1H   SFRSYM    DATA     BYTE      TIM2_CR0
      000000A6H   SFRSYM    DATA     WORD      TIM3__ARR
      0000009CH   SFRSYM    DATA     BYTE      TIM3_CR0
      000000A9H   SFRSYM    DATA     BYTE      TIM2_CR1
      00000096H   SFRSYM    DATA     WORD      TIM4__ARR
      0000009EH   SFRSYM    DATA     BYTE      TIM4_CR0
      0000009DH   SFRSYM    DATA     BYTE      TIM3_CR1
      000000F8H   SFRSYM    DATA     BYTE      DRV_OUT
      0000009FH   SFRSYM    DATA     BYTE      TIM4_CR1
      000000DBH   SFRSYM    DATA     BYTE      LVSR
      000000A8H.4 SFRSYM    DATA     BIT       ES0
      00000085H   SFRSYM    DATA     BYTE      FLA_CR
      000000C0H.4 SFRSYM    DATA     BIT       PADC0
      000000B8H   SFRSYM    DATA     BYTE      IP0
      000000C0H.5 SFRSYM    DATA     BIT       PADC1
      000000C0H   SFRSYM    DATA     BYTE      IP1
      000000C8H   SFRSYM    DATA     BYTE      IP2
      00000098H.2 SFRSYM    DATA     BIT       RB8
      000000D8H   SFRSYM    DATA     BYTE      IP3
      000000A8H.0 SFRSYM    DATA     BIT       EX0
      00000098H.3 SFRSYM    DATA     BIT       TB8
      000000A8H.2 SFRSYM    DATA     BIT       EX1
      000000D0H.0 SFRSYM    DATA     BIT       P
      000000F9H   SFRSYM    DATA     BYTE      PI_LPF_CR
LX51 LINKER/LOCATER V4.66.100.0                                                       04/25/2024  14:24:29  PAGE 36


      00000098H.5 SFRSYM    DATA     BIT       SM2
      000000D8H.6 SFRSYM    DATA     BIT       PDMA0
      000000D8H.7 SFRSYM    DATA     BIT       PDMA1
      000000C2H   SFRSYM    DATA     WORD      MDU_MA
      000000D0H.3 SFRSYM    DATA     BIT       RS0
      000000CAH   SFRSYM    DATA     WORD      MDU_MB
      000000D0H.4 SFRSYM    DATA     BIT       RS1
      000000C1H   SFRSYM    DATA     BYTE      MDU_CR
      000000F8H.7 SFRSYM    DATA     BIT       MOE
      000000C0H.6 SFRSYM    DATA     BIT       PCMP0
      000000C0H.7 SFRSYM    DATA     BIT       PCMP1
      000000F8H.4 SFRSYM    DATA     BIT       OISWXH
      00000098H.4 SFRSYM    DATA     BIT       REN
      000000D7H   SFRSYM    DATA     BYTE      CMP_SR
      000000F8H.5 SFRSYM    DATA     BIT       OISWXL
      000000C8H.6 SFRSYM    DATA     BIT       PTSD0
      000000D8H.4 SFRSYM    DATA     BIT       PSPI0
      000000C8H.7 SFRSYM    DATA     BIT       PTSD1
      000000B8H.6 SFRSYM    DATA     BIT       PDRV0
      000000D8H.5 SFRSYM    DATA     BIT       PSPI1
      000000B8H.7 SFRSYM    DATA     BIT       PDRV1
      000000D1H   SFRSYM    DATA     BYTE      P1_IE
      000000D3H   SFRSYM    DATA     BYTE      P2_IE
      000000D2H   SFRSYM    DATA     BYTE      P1_IF
      000000D4H   SFRSYM    DATA     BYTE      P2_IF
      000000ACH   SFRSYM    DATA     WORD      TIM2__DR
      000000C8H.4 SFRSYM    DATA     BIT       PTIM4S0
      000000FCH   SFRSYM    DATA     BYTE      P0_OE
      000000A4H   SFRSYM    DATA     WORD      TIM3__DR
      000000C8H.5 SFRSYM    DATA     BIT       PTIM4S1
      000000FDH   SFRSYM    DATA     BYTE      P1_OE
      00000094H   SFRSYM    DATA     WORD      TIM4__DR
      000000D0H.5 SFRSYM    DATA     BIT       F0
      000000FEH   SFRSYM    DATA     BYTE      P2_OE
      000000D0H.1 SFRSYM    DATA     BIT       F1
      000000FFH   SFRSYM    DATA     BYTE      P3_OE
      00000080H.0 SFRSYM    DATA     BIT       GP00
      000000E9H   SFRSYM    DATA     BYTE      P4_OE
      00000090H.0 SFRSYM    DATA     BIT       GP10
      00000080H.1 SFRSYM    DATA     BIT       GP01
      000000A0H.0 SFRSYM    DATA     BIT       GP20
      00000090H.1 SFRSYM    DATA     BIT       GP11
      00000080H.2 SFRSYM    DATA     BIT       GP02
      000000B0H.0 SFRSYM    DATA     BIT       GP30
      000000A0H.1 SFRSYM    DATA     BIT       GP21
      00000090H.2 SFRSYM    DATA     BIT       GP12
      00000080H.3 SFRSYM    DATA     BIT       GP03
      000000B8H.0 SFRSYM    DATA     BIT       PLVW0
      000000A8H.1 SFRSYM    DATA     BIT       TSDIE
      000000D0H   SFRSYM    DATA     BYTE      PSW
      000000E8H.0 SFRSYM    DATA     BIT       GP40
      000000B0H.1 SFRSYM    DATA     BIT       GP31
      000000A0H.2 SFRSYM    DATA     BIT       GP22
      00000090H.3 SFRSYM    DATA     BIT       GP13
      00000080H.4 SFRSYM    DATA     BIT       GP04
      000000B8H.1 SFRSYM    DATA     BIT       PLVW1
      000000A8H.3 SFRSYM    DATA     BIT       SPIIE
      00000088H.5 SFRSYM    DATA     BIT       TSDIF
      000000E8H.1 SFRSYM    DATA     BIT       GP41
      000000B0H.2 SFRSYM    DATA     BIT       GP32
      000000A0H.3 SFRSYM    DATA     BIT       GP23
      00000090H.4 SFRSYM    DATA     BIT       GP14
      00000080H.5 SFRSYM    DATA     BIT       GP05
      000000C4H   SFRSYM    DATA     BYTE      MDU_DA0
      000000E8H.2 SFRSYM    DATA     BIT       GP42
LX51 LINKER/LOCATER V4.66.100.0                                                       04/25/2024  14:24:29  PAGE 37


      000000B0H.3 SFRSYM    DATA     BIT       GP33
      000000A0H.4 SFRSYM    DATA     BIT       GP24
      00000090H.5 SFRSYM    DATA     BIT       GP15
      00000080H.6 SFRSYM    DATA     BIT       GP06
      000000CCH   SFRSYM    DATA     BYTE      MDU_DB0
      000000C5H   SFRSYM    DATA     BYTE      MDU_DA1
      00000088H.0 SFRSYM    DATA     BIT       IT00

      01002548H   BLOCK     CODE     ---       LVL=0
      01002548H   BLOCK     CODE     NEAR LAB  LVL=1
      00000006H   SYMBOL    DATA     ---       addr_x
      00000007H   SYMBOL    DATA     ---       addr_i
      ---         BLOCKEND  ---      ---       LVL=1
      01002548H   LINE      CODE     ---       #41
      01002548H   LINE      CODE     ---       #42
      01002548H   LINE      CODE     ---       #51
      0100254FH   LINE      CODE     ---       #52
      01002564H   LINE      CODE     ---       #53
      01002564H   LINE      CODE     ---       #55
      0100256CH   LINE      CODE     ---       #56
      01002573H   LINE      CODE     ---       #59
      0100257FH   LINE      CODE     ---       #60
      0100258CH   LINE      CODE     ---       #65
      01002590H   LINE      CODE     ---       #70
      01002593H   LINE      CODE     ---       #76
      01002598H   LINE      CODE     ---       #77
      0100259CH   LINE      CODE     ---       #84
      0100259FH   LINE      CODE     ---       #87
      010025A2H   LINE      CODE     ---       #88
      010025A5H   LINE      CODE     ---       #89
      010025A8H   LINE      CODE     ---       #104
      010025ABH   LINE      CODE     ---       #111
      010025AEH   LINE      CODE     ---       #114
      010025B1H   LINE      CODE     ---       #117
      010025B4H   LINE      CODE     ---       #120
      010025B7H   LINE      CODE     ---       #123
      010025BAH   LINE      CODE     ---       #126
      010025C0H   LINE      CODE     ---       #127
      010025C0H   LINE      CODE     ---       #128
      010025C2H   LINE      CODE     ---       #130
      010025C6H   LINE      CODE     ---       #131
      010025CAH   LINE      CODE     ---       #133
      010025CEH   LINE      CODE     ---       #134
      010025D2H   LINE      CODE     ---       #136
      010025D6H   LINE      CODE     ---       #137
      010025D9H   LINE      CODE     ---       #138
      010025D9H   LINE      CODE     ---       #141
      010025DCH   LINE      CODE     ---       #154
      010025DFH   LINE      CODE     ---       #160
      010025E2H   LINE      CODE     ---       #164
      010025E2H   LINE      CODE     ---       #165
      010025E2H   LINE      CODE     ---       #166
      010025E8H   LINE      CODE     ---       #167
      010025E8H   LINE      CODE     ---       #168
      010025EBH   LINE      CODE     ---       #172
      010025F2H   LINE      CODE     ---       #173
      010025F2H   LINE      CODE     ---       #174
      010025F9H   LINE      CODE     ---       #175
      01002608H   LINE      CODE     ---       #176
      01002608H   LINE      CODE     ---       #177
      0100260AH   LINE      CODE     ---       #179
      0100260AH   LINE      CODE     ---       #181
      01002611H   LINE      CODE     ---       #182
      01002611H   LINE      CODE     ---       #183
      01002613H   LINE      CODE     ---       #185
LX51 LINKER/LOCATER V4.66.100.0                                                       04/25/2024  14:24:29  PAGE 38


      01002616H   LINE      CODE     ---       #188
      01002619H   LINE      CODE     ---       #192
      01002620H   LINE      CODE     ---       #193
      01002620H   LINE      CODE     ---       #194
      01002622H   LINE      CODE     ---       #195
      01002625H   LINE      CODE     ---       #196
      01002625H   LINE      CODE     ---       #199
      01002636H   LINE      CODE     ---       #200
      01002636H   LINE      CODE     ---       #201
      0100263CH   LINE      CODE     ---       #202
      01002644H   LINE      CODE     ---       #203
      01002646H   LINE      CODE     ---       #204
      01002651H   LINE      CODE     ---       #205
      01002651H   LINE      CODE     ---       #206
      01002656H   LINE      CODE     ---       #207
      0100265CH   LINE      CODE     ---       #208
      0100265CH   LINE      CODE     ---       #211
      0100265FH   LINE      CODE     ---       #214
      01002662H   LINE      CODE     ---       #218
      01002665H   LINE      CODE     ---       #224
      01002665H   LINE      CODE     ---       #225
      01002665H   LINE      CODE     ---       #226
      ---         BLOCKEND  ---      ---       LVL=0

      ---         MODULE    ---      ---       USERINTERRUPT
      01003897H   PUBLIC    CODE     ---       USART_INT
      010018EBH   PUBLIC    CODE     ---       TIM_1MS_INT
      01002C8BH   PUBLIC    CODE     ---       CMP_ISR
      010033A0H   PUBLIC    CODE     ---       FOC_INT
      01003774H   PUBLIC    CODE     ---       EXTERN_INT
      01003482H   PUBLIC    CODE     ---       FO_INT
      000000B0H.4 SFRSYM    DATA     BIT       GP34
      000000A0H.5 SFRSYM    DATA     BIT       GP25
      00000090H.6 SFRSYM    DATA     BIT       GP16
      00000080H.7 SFRSYM    DATA     BIT       GP07
      000000CDH   SFRSYM    DATA     BYTE      MDU_DB1
      000000C6H   SFRSYM    DATA     BYTE      MDU_DA2
      00000088H.1 SFRSYM    DATA     BIT       IT01
      00000088H.3 SFRSYM    DATA     BIT       IT10
      000000B0H.5 SFRSYM    DATA     BIT       GP35
      000000A0H.6 SFRSYM    DATA     BIT       GP26
      00000090H.7 SFRSYM    DATA     BIT       GP17
      00000080H   SFRSYM    DATA     BYTE      P0
      000000F6H   SFRSYM    DATA     WORD      PI_UKMIN
      000000C7H   SFRSYM    DATA     BYTE      MDU_DA3
      00000088H.4 SFRSYM    DATA     BIT       IT11
      000000C9H   SFRSYM    DATA     BYTE      RST_SR
      000000D9H   SFRSYM    DATA     BYTE      EVT_FILT
      000000B0H.6 SFRSYM    DATA     BIT       GP36
      000000A0H.7 SFRSYM    DATA     BIT       GP27
      00000090H   SFRSYM    DATA     BYTE      P1
      000000B0H.7 SFRSYM    DATA     BIT       GP37
      000000A0H   SFRSYM    DATA     BYTE      P2
      000000F4H   SFRSYM    DATA     WORD      PI_UKMAX
      000000B0H   SFRSYM    DATA     BYTE      P3
      000000E8H   SFRSYM    DATA     BYTE      P4
      000000D0H.6 SFRSYM    DATA     BIT       AC
      000000A8H.7 SFRSYM    DATA     BIT       EA
      000000D5H   SFRSYM    DATA     BYTE      CMP_CR0
      000000D6H   SFRSYM    DATA     BYTE      CMP_CR1
      000000DAH   SFRSYM    DATA     BYTE      CMP_CR2
      000000B8H.2 SFRSYM    DATA     BIT       PX00
      000000DCH   SFRSYM    DATA     BYTE      CMP_CR3
      000000F8H.0 SFRSYM    DATA     BIT       OISUH
      000000EAH   SFRSYM    DATA     WORD      PI_EK
LX51 LINKER/LOCATER V4.66.100.0                                                       04/25/2024  14:24:29  PAGE 39


      000000B8H.3 SFRSYM    DATA     BIT       PX01
      000000B8H.4 SFRSYM    DATA     BIT       PX10
      000000F8H.2 SFRSYM    DATA     BIT       OISVH
      000000B8H.5 SFRSYM    DATA     BIT       PX11
      000000F8H.1 SFRSYM    DATA     BIT       OISUL
      000000DDH   SFRSYM    DATA     BYTE      LPF_K
      000000F2H   SFRSYM    DATA     WORD      PI_KI
      000000A8H   SFRSYM    DATA     BYTE      IE
      000000F8H.3 SFRSYM    DATA     BIT       OISVL
      000000EEH   SFRSYM    DATA     WORD      PI_KP
      000000AAH   SFRSYM    DATA     WORD      TIM2__CNTR
      000000A2H   SFRSYM    DATA     WORD      TIM3__CNTR
      00000092H   SFRSYM    DATA     WORD      TIM4__CNTR
      000000ECH   SFRSYM    DATA     WORD      PI_UK
      000000DEH   SFRSYM    DATA     WORD      LPF_X
      00000098H.0 SFRSYM    DATA     BIT       RI
      00000098H.6 SFRSYM    DATA     BIT       UT_MOD0
      000000E6H   SFRSYM    DATA     WORD      LPF_Y
      00000098H.7 SFRSYM    DATA     BIT       UT_MOD1
      000000D0H.7 SFRSYM    DATA     BIT       CY
      00000098H.1 SFRSYM    DATA     BIT       TI
      000000C0H.2 SFRSYM    DATA     BIT       PTIM10
      00000084H   SFRSYM    DATA     BYTE      FLA_KEY
      000000C0H.0 SFRSYM    DATA     BIT       PTIM20
      000000C0H.3 SFRSYM    DATA     BIT       PTIM11
      00000098H   SFRSYM    DATA     BYTE      UT_CR
      000000C8H.2 SFRSYM    DATA     BIT       PTIM30
      000000C0H.1 SFRSYM    DATA     BIT       PTIM21
      00000099H   SFRSYM    DATA     BYTE      UT_DR
      000000C8H.3 SFRSYM    DATA     BIT       PTIM31
      000000D0H.2 SFRSYM    DATA     BIT       OV
      0000009AH   SFRSYM    DATA     WORD      UT_BAUD
      000000C4H   SFRSYM    DATA     WORD      MDU_DA01
      000000CCH   SFRSYM    DATA     WORD      MDU_DB01
      00000087H   SFRSYM    DATA     BYTE      PCON
      000000C6H   SFRSYM    DATA     WORD      MDU_DA23
      00000088H   SFRSYM    DATA     BYTE      TCON
      00000082H   SFRSYM    DATA     WORD      DPTR
      000000D8H.0 SFRSYM    DATA     BIT       PUART0
      000000D8H.1 SFRSYM    DATA     BIT       PUART1
      000000D8H.2 SFRSYM    DATA     BIT       PI2C0
      00000088H.2 SFRSYM    DATA     BIT       IF0
      000000D8H.3 SFRSYM    DATA     BIT       PI2C1
      000000AEH   SFRSYM    DATA     WORD      TIM2__ARR
      000000A1H   SFRSYM    DATA     BYTE      TIM2_CR0
      000000A6H   SFRSYM    DATA     WORD      TIM3__ARR
      0000009CH   SFRSYM    DATA     BYTE      TIM3_CR0
      000000A9H   SFRSYM    DATA     BYTE      TIM2_CR1
      00000096H   SFRSYM    DATA     WORD      TIM4__ARR
      0000009EH   SFRSYM    DATA     BYTE      TIM4_CR0
      0000009DH   SFRSYM    DATA     BYTE      TIM3_CR1
      000000F8H   SFRSYM    DATA     BYTE      DRV_OUT
      0000009FH   SFRSYM    DATA     BYTE      TIM4_CR1
      000000DBH   SFRSYM    DATA     BYTE      LVSR
      000000A8H.4 SFRSYM    DATA     BIT       ES0
      00000085H   SFRSYM    DATA     BYTE      FLA_CR
      000000C0H.4 SFRSYM    DATA     BIT       PADC0
      000000B8H   SFRSYM    DATA     BYTE      IP0
      000000C0H.5 SFRSYM    DATA     BIT       PADC1
      000000C0H   SFRSYM    DATA     BYTE      IP1
      000000C8H   SFRSYM    DATA     BYTE      IP2
      00000098H.2 SFRSYM    DATA     BIT       RB8
      000000D8H   SFRSYM    DATA     BYTE      IP3
      000000A8H.0 SFRSYM    DATA     BIT       EX0
      00000098H.3 SFRSYM    DATA     BIT       TB8
LX51 LINKER/LOCATER V4.66.100.0                                                       04/25/2024  14:24:29  PAGE 40


      000000A8H.2 SFRSYM    DATA     BIT       EX1
      000000D0H.0 SFRSYM    DATA     BIT       P
      000000F9H   SFRSYM    DATA     BYTE      PI_LPF_CR
      00000098H.5 SFRSYM    DATA     BIT       SM2
      000000D8H.6 SFRSYM    DATA     BIT       PDMA0
      000000D8H.7 SFRSYM    DATA     BIT       PDMA1
      000000C2H   SFRSYM    DATA     WORD      MDU_MA
      000000D0H.3 SFRSYM    DATA     BIT       RS0
      000000CAH   SFRSYM    DATA     WORD      MDU_MB
      000000D0H.4 SFRSYM    DATA     BIT       RS1
      000000C1H   SFRSYM    DATA     BYTE      MDU_CR
      000000F8H.7 SFRSYM    DATA     BIT       MOE
      000000C0H.6 SFRSYM    DATA     BIT       PCMP0
      000000C0H.7 SFRSYM    DATA     BIT       PCMP1
      000000F8H.4 SFRSYM    DATA     BIT       OISWXH
      00000098H.4 SFRSYM    DATA     BIT       REN
      000000D7H   SFRSYM    DATA     BYTE      CMP_SR
      000000F8H.5 SFRSYM    DATA     BIT       OISWXL
      000000C8H.6 SFRSYM    DATA     BIT       PTSD0
      000000D8H.4 SFRSYM    DATA     BIT       PSPI0
      000000C8H.7 SFRSYM    DATA     BIT       PTSD1
      000000B8H.6 SFRSYM    DATA     BIT       PDRV0
      000000D8H.5 SFRSYM    DATA     BIT       PSPI1
      000000B8H.7 SFRSYM    DATA     BIT       PDRV1
      000000D1H   SFRSYM    DATA     BYTE      P1_IE
      000000D3H   SFRSYM    DATA     BYTE      P2_IE
      000000D2H   SFRSYM    DATA     BYTE      P1_IF
      000000D4H   SFRSYM    DATA     BYTE      P2_IF
      000000ACH   SFRSYM    DATA     WORD      TIM2__DR
      000000C8H.4 SFRSYM    DATA     BIT       PTIM4S0
      000000FCH   SFRSYM    DATA     BYTE      P0_OE
      000000A4H   SFRSYM    DATA     WORD      TIM3__DR
      000000C8H.5 SFRSYM    DATA     BIT       PTIM4S1
      000000FDH   SFRSYM    DATA     BYTE      P1_OE
      00000094H   SFRSYM    DATA     WORD      TIM4__DR
      000000D0H.5 SFRSYM    DATA     BIT       F0
      000000FEH   SFRSYM    DATA     BYTE      P2_OE
      000000D0H.1 SFRSYM    DATA     BIT       F1
      000000FFH   SFRSYM    DATA     BYTE      P3_OE
      00000080H.0 SFRSYM    DATA     BIT       GP00
      000000E9H   SFRSYM    DATA     BYTE      P4_OE
      00000090H.0 SFRSYM    DATA     BIT       GP10
      00000080H.1 SFRSYM    DATA     BIT       GP01
      000000A0H.0 SFRSYM    DATA     BIT       GP20
      00000090H.1 SFRSYM    DATA     BIT       GP11
      00000080H.2 SFRSYM    DATA     BIT       GP02
      000000B0H.0 SFRSYM    DATA     BIT       GP30
      000000A0H.1 SFRSYM    DATA     BIT       GP21
      00000090H.2 SFRSYM    DATA     BIT       GP12
      00000080H.3 SFRSYM    DATA     BIT       GP03
      000000B8H.0 SFRSYM    DATA     BIT       PLVW0
      000000A8H.1 SFRSYM    DATA     BIT       TSDIE
      000000D0H   SFRSYM    DATA     BYTE      PSW
      000000E8H.0 SFRSYM    DATA     BIT       GP40
      000000B0H.1 SFRSYM    DATA     BIT       GP31
      000000A0H.2 SFRSYM    DATA     BIT       GP22
      00000090H.3 SFRSYM    DATA     BIT       GP13
      00000080H.4 SFRSYM    DATA     BIT       GP04
      000000B8H.1 SFRSYM    DATA     BIT       PLVW1
      000000A8H.3 SFRSYM    DATA     BIT       SPIIE
      00000088H.5 SFRSYM    DATA     BIT       TSDIF
      000000E8H.1 SFRSYM    DATA     BIT       GP41
      000000B0H.2 SFRSYM    DATA     BIT       GP32
      000000A0H.3 SFRSYM    DATA     BIT       GP23
      00000090H.4 SFRSYM    DATA     BIT       GP14
LX51 LINKER/LOCATER V4.66.100.0                                                       04/25/2024  14:24:29  PAGE 41


      00000080H.5 SFRSYM    DATA     BIT       GP05
      000000C4H   SFRSYM    DATA     BYTE      MDU_DA0
      000000E8H.2 SFRSYM    DATA     BIT       GP42
      000000B0H.3 SFRSYM    DATA     BIT       GP33
      000000A0H.4 SFRSYM    DATA     BIT       GP24
      00000090H.5 SFRSYM    DATA     BIT       GP15
      00000080H.6 SFRSYM    DATA     BIT       GP06
      000000CCH   SFRSYM    DATA     BYTE      MDU_DB0
      000000C5H   SFRSYM    DATA     BYTE      MDU_DA1
      00000088H.0 SFRSYM    DATA     BIT       IT00

      01003482H   BLOCK     CODE     ---       LVL=0
      01003482H   LINE      CODE     ---       #32
      0100349FH   LINE      CODE     ---       #34
      010034A2H   LINE      CODE     ---       #35
      010034A5H   LINE      CODE     ---       #36
      010034A9H   LINE      CODE     ---       #37
      ---         BLOCKEND  ---      ---       LVL=0

      01003774H   BLOCK     CODE     ---       LVL=0
      01003774H   LINE      CODE     ---       #44
      0100377BH   LINE      CODE     ---       #46
      0100377DH   LINE      CODE     ---       #47
      01003781H   LINE      CODE     ---       #48
      01003785H   LINE      CODE     ---       #49
      01003788H   LINE      CODE     ---       #50
      0100378CH   LINE      CODE     ---       #51
      01003790H   LINE      CODE     ---       #52
      ---         BLOCKEND  ---      ---       LVL=0

      010033A0H   BLOCK     CODE     ---       LVL=0
      010033A0H   LINE      CODE     ---       #59
      010033BDH   LINE      CODE     ---       #61
      010033C4H   LINE      CODE     ---       #62
      010033C4H   LINE      CODE     ---       #63
      010033C7H   LINE      CODE     ---       #64
      010033CAH   LINE      CODE     ---       #65
      010033D1H   LINE      CODE     ---       #66
      010033D1H   LINE      CODE     ---       #67
      ---         BLOCKEND  ---      ---       LVL=0

      01002C8BH   BLOCK     CODE     ---       LVL=0
      01002C8BH   LINE      CODE     ---       #75
      01002CA8H   LINE      CODE     ---       #77
      01002CADH   LINE      CODE     ---       #78
      01002CADH   LINE      CODE     ---       #79
      01002CB5H   LINE      CODE     ---       #80
      01002CB5H   LINE      CODE     ---       #84
      01002CB8H   LINE      CODE     ---       #85
      01002CBBH   LINE      CODE     ---       #86
      01002CBFH   LINE      CODE     ---       #87
      01002CC1H   LINE      CODE     ---       #89
      01002CC1H   LINE      CODE     ---       #90
      01002CC3H   LINE      CODE     ---       #91
      01002CDAH   LINE      CODE     ---       #92
      01002CFFH   LINE      CODE     ---       #93
      01002D04H   LINE      CODE     ---       #94
      01002D0AH   LINE      CODE     ---       #95
      01002D0AH   LINE      CODE     ---       #96
      01002D0DH   LINE      CODE     ---       #97
      01002D0DH   LINE      CODE     ---       #103
      ---         BLOCKEND  ---      ---       LVL=0

      010018EBH   BLOCK     CODE     ---       LVL=0
      010018EBH   LINE      CODE     ---       #110
LX51 LINKER/LOCATER V4.66.100.0                                                       04/25/2024  14:24:29  PAGE 42


      01001908H   LINE      CODE     ---       #112
      01001912H   LINE      CODE     ---       #113
      01001912H   LINE      CODE     ---       #114
      01001919H   LINE      CODE     ---       #116
      0100191FH   LINE      CODE     ---       #119
      01001926H   LINE      CODE     ---       #120
      01001926H   LINE      CODE     ---       #121
      01001940H   LINE      CODE     ---       #122
      0100195BH   LINE      CODE     ---       #123
      0100195BH   LINE      CODE     ---       #126
      01001967H   LINE      CODE     ---       #127
      01001967H   LINE      CODE     ---       #128
      01001984H   LINE      CODE     ---       #129
      010019A1H   LINE      CODE     ---       #130
      010019A3H   LINE      CODE     ---       #132
      010019A3H   LINE      CODE     ---       #133
      010019AAH   LINE      CODE     ---       #134
      010019AAH   LINE      CODE     ---       #137
      010019C7H   LINE      CODE     ---       #138
      010019E4H   LINE      CODE     ---       #141
      01001A0AH   LINE      CODE     ---       #144
      01001A23H   LINE      CODE     ---       #145
      01001A40H   LINE      CODE     ---       #148
      01001A59H   LINE      CODE     ---       #149
      01001A76H   LINE      CODE     ---       #152
      01001A9CH   LINE      CODE     ---       #155
      01001AB7H   LINE      CODE     ---       #156
      01001ACAH   LINE      CODE     ---       #157
      01001AD6H   LINE      CODE     ---       #159
      01001AE5H   LINE      CODE     ---       #160
      01001AE5H   LINE      CODE     ---       #161
      01001AF1H   LINE      CODE     ---       #162
      01001AF4H   LINE      CODE     ---       #163
      01001AF4H   LINE      CODE     ---       #165
      01001AFBH   LINE      CODE     ---       #166
      01001AFBH   LINE      CODE     ---       #167
      01001B0AH   LINE      CODE     ---       #168
      01001B16H   LINE      CODE     ---       #169
      01001B16H   LINE      CODE     ---       #172
      01001B19H   LINE      CODE     ---       #175
      01001B20H   LINE      CODE     ---       #176
      01001B20H   LINE      CODE     ---       #179
      01001B20H   LINE      CODE     ---       #180
      01001B23H   LINE      CODE     ---       #181
      01001B23H   LINE      CODE     ---       #183
      01001B23H   LINE      CODE     ---       #184
      01001B26H   LINE      CODE     ---       #185
      01001B26H   LINE      CODE     ---       #187
      01001B26H   LINE      CODE     ---       #188
      01001B29H   LINE      CODE     ---       #189
      01001B29H   LINE      CODE     ---       #190
      ---         BLOCKEND  ---      ---       LVL=0

      01003897H   BLOCK     CODE     ---       LVL=0
      01003897H   LINE      CODE     ---       #198
      01003897H   LINE      CODE     ---       #200
      0100389AH   LINE      CODE     ---       #201
      0100389AH   LINE      CODE     ---       #205
      0100389CH   LINE      CODE     ---       #206
      0100389CH   LINE      CODE     ---       #208
      0100389FH   LINE      CODE     ---       #209
      0100389FH   LINE      CODE     ---       #213
      010038A1H   LINE      CODE     ---       #214
      010038A1H   LINE      CODE     ---       #215
      ---         BLOCKEND  ---      ---       LVL=0
LX51 LINKER/LOCATER V4.66.100.0                                                       04/25/2024  14:24:29  PAGE 43



      ---         MODULE    ---      ---       USERADDFUNC
      0200027EH   PUBLIC    XDATA    INT       SpdPIErr
      0200027CH   PUBLIC    XDATA    INT       UIPIErr
      02000278H   PUBLIC    XDATA    LONG      SpdErr
      02000274H   PUBLIC    XDATA    LONG      UIErr
      02000272H   PUBLIC    XDATA    WORD      focek2
      02000270H   PUBLIC    XDATA    INT       IBusPIErr
      0200026EH   PUBLIC    XDATA    INT       IBusError
      01002421H   PUBLIC    CODE     ---       CheckStallFault
      01002045H   PUBLIC    CODE     ---       CheckStartFault
      01001B44H   PUBLIC    CODE     ---       Regulation
      01002EC6H   PUBLIC    CODE     ---       EK_deal
      01003846H   PUBLIC    CODE     ---       _IBusPI
      0100353EH   PUBLIC    CODE     ---       SetFaultResatrt
      0100388BH   PUBLIC    CODE     ---       CancleResatrt
      0100380FH   PUBLIC    CODE     ---       ShutPerform
      000000B0H.4 SFRSYM    DATA     BIT       GP34
      000000A0H.5 SFRSYM    DATA     BIT       GP25
      00000090H.6 SFRSYM    DATA     BIT       GP16
      00000080H.7 SFRSYM    DATA     BIT       GP07
      000000CDH   SFRSYM    DATA     BYTE      MDU_DB1
      000000C6H   SFRSYM    DATA     BYTE      MDU_DA2
      00000088H.1 SFRSYM    DATA     BIT       IT01
      00000088H.3 SFRSYM    DATA     BIT       IT10
      000000B0H.5 SFRSYM    DATA     BIT       GP35
      000000A0H.6 SFRSYM    DATA     BIT       GP26
      00000090H.7 SFRSYM    DATA     BIT       GP17
      00000080H   SFRSYM    DATA     BYTE      P0
      000000F6H   SFRSYM    DATA     WORD      PI_UKMIN
      000000C7H   SFRSYM    DATA     BYTE      MDU_DA3
      00000088H.4 SFRSYM    DATA     BIT       IT11
      000000C9H   SFRSYM    DATA     BYTE      RST_SR
      000000D9H   SFRSYM    DATA     BYTE      EVT_FILT
      000000B0H.6 SFRSYM    DATA     BIT       GP36
      000000A0H.7 SFRSYM    DATA     BIT       GP27
      00000090H   SFRSYM    DATA     BYTE      P1
      000000B0H.7 SFRSYM    DATA     BIT       GP37
      000000A0H   SFRSYM    DATA     BYTE      P2
      000000F4H   SFRSYM    DATA     WORD      PI_UKMAX
      000000B0H   SFRSYM    DATA     BYTE      P3
      000000E8H   SFRSYM    DATA     BYTE      P4
      000000D0H.6 SFRSYM    DATA     BIT       AC
      000000A8H.7 SFRSYM    DATA     BIT       EA
      000000D5H   SFRSYM    DATA     BYTE      CMP_CR0
      000000D6H   SFRSYM    DATA     BYTE      CMP_CR1
      000000DAH   SFRSYM    DATA     BYTE      CMP_CR2
      000000B8H.2 SFRSYM    DATA     BIT       PX00
      000000DCH   SFRSYM    DATA     BYTE      CMP_CR3
      000000F8H.0 SFRSYM    DATA     BIT       OISUH
      000000EAH   SFRSYM    DATA     WORD      PI_EK
      000000B8H.3 SFRSYM    DATA     BIT       PX01
      000000B8H.4 SFRSYM    DATA     BIT       PX10
      000000F8H.2 SFRSYM    DATA     BIT       OISVH
      000000B8H.5 SFRSYM    DATA     BIT       PX11
      000000F8H.1 SFRSYM    DATA     BIT       OISUL
      000000DDH   SFRSYM    DATA     BYTE      LPF_K
      000000F2H   SFRSYM    DATA     WORD      PI_KI
      000000A8H   SFRSYM    DATA     BYTE      IE
      000000F8H.3 SFRSYM    DATA     BIT       OISVL
      000000EEH   SFRSYM    DATA     WORD      PI_KP
      000000AAH   SFRSYM    DATA     WORD      TIM2__CNTR
      000000A2H   SFRSYM    DATA     WORD      TIM3__CNTR
      00000092H   SFRSYM    DATA     WORD      TIM4__CNTR
      000000ECH   SFRSYM    DATA     WORD      PI_UK
LX51 LINKER/LOCATER V4.66.100.0                                                       04/25/2024  14:24:29  PAGE 44


      000000DEH   SFRSYM    DATA     WORD      LPF_X
      00000098H.0 SFRSYM    DATA     BIT       RI
      00000098H.6 SFRSYM    DATA     BIT       UT_MOD0
      000000E6H   SFRSYM    DATA     WORD      LPF_Y
      00000098H.7 SFRSYM    DATA     BIT       UT_MOD1
      000000D0H.7 SFRSYM    DATA     BIT       CY
      00000098H.1 SFRSYM    DATA     BIT       TI
      000000C0H.2 SFRSYM    DATA     BIT       PTIM10
      00000084H   SFRSYM    DATA     BYTE      FLA_KEY
      000000C0H.0 SFRSYM    DATA     BIT       PTIM20
      000000C0H.3 SFRSYM    DATA     BIT       PTIM11
      00000098H   SFRSYM    DATA     BYTE      UT_CR
      000000C8H.2 SFRSYM    DATA     BIT       PTIM30
      000000C0H.1 SFRSYM    DATA     BIT       PTIM21
      00000099H   SFRSYM    DATA     BYTE      UT_DR
      000000C8H.3 SFRSYM    DATA     BIT       PTIM31
      000000D0H.2 SFRSYM    DATA     BIT       OV
      0000009AH   SFRSYM    DATA     WORD      UT_BAUD
      000000C4H   SFRSYM    DATA     WORD      MDU_DA01
      000000CCH   SFRSYM    DATA     WORD      MDU_DB01
      00000087H   SFRSYM    DATA     BYTE      PCON
      000000C6H   SFRSYM    DATA     WORD      MDU_DA23
      00000088H   SFRSYM    DATA     BYTE      TCON
      00000082H   SFRSYM    DATA     WORD      DPTR
      000000D8H.0 SFRSYM    DATA     BIT       PUART0
      000000D8H.1 SFRSYM    DATA     BIT       PUART1
      000000D8H.2 SFRSYM    DATA     BIT       PI2C0
      00000088H.2 SFRSYM    DATA     BIT       IF0
      000000D8H.3 SFRSYM    DATA     BIT       PI2C1
      000000AEH   SFRSYM    DATA     WORD      TIM2__ARR
      000000A1H   SFRSYM    DATA     BYTE      TIM2_CR0
      000000A6H   SFRSYM    DATA     WORD      TIM3__ARR
      0000009CH   SFRSYM    DATA     BYTE      TIM3_CR0
      000000A9H   SFRSYM    DATA     BYTE      TIM2_CR1
      00000096H   SFRSYM    DATA     WORD      TIM4__ARR
      0000009EH   SFRSYM    DATA     BYTE      TIM4_CR0
      0000009DH   SFRSYM    DATA     BYTE      TIM3_CR1
      000000F8H   SFRSYM    DATA     BYTE      DRV_OUT
      0000009FH   SFRSYM    DATA     BYTE      TIM4_CR1
      000000DBH   SFRSYM    DATA     BYTE      LVSR
      000000A8H.4 SFRSYM    DATA     BIT       ES0
      00000085H   SFRSYM    DATA     BYTE      FLA_CR
      000000C0H.4 SFRSYM    DATA     BIT       PADC0
      000000B8H   SFRSYM    DATA     BYTE      IP0
      000000C0H.5 SFRSYM    DATA     BIT       PADC1
      000000C0H   SFRSYM    DATA     BYTE      IP1
      000000C8H   SFRSYM    DATA     BYTE      IP2
      00000098H.2 SFRSYM    DATA     BIT       RB8
      000000D8H   SFRSYM    DATA     BYTE      IP3
      000000A8H.0 SFRSYM    DATA     BIT       EX0
      00000098H.3 SFRSYM    DATA     BIT       TB8
      000000A8H.2 SFRSYM    DATA     BIT       EX1
      000000D0H.0 SFRSYM    DATA     BIT       P
      000000F9H   SFRSYM    DATA     BYTE      PI_LPF_CR
      00000098H.5 SFRSYM    DATA     BIT       SM2
      000000D8H.6 SFRSYM    DATA     BIT       PDMA0
      000000D8H.7 SFRSYM    DATA     BIT       PDMA1
      000000C2H   SFRSYM    DATA     WORD      MDU_MA
      000000D0H.3 SFRSYM    DATA     BIT       RS0
      000000CAH   SFRSYM    DATA     WORD      MDU_MB
      000000D0H.4 SFRSYM    DATA     BIT       RS1
      000000C1H   SFRSYM    DATA     BYTE      MDU_CR
      000000F8H.7 SFRSYM    DATA     BIT       MOE
      000000C0H.6 SFRSYM    DATA     BIT       PCMP0
      000000C0H.7 SFRSYM    DATA     BIT       PCMP1
LX51 LINKER/LOCATER V4.66.100.0                                                       04/25/2024  14:24:29  PAGE 45


      000000F8H.4 SFRSYM    DATA     BIT       OISWXH
      00000098H.4 SFRSYM    DATA     BIT       REN
      000000D7H   SFRSYM    DATA     BYTE      CMP_SR
      000000F8H.5 SFRSYM    DATA     BIT       OISWXL
      000000C8H.6 SFRSYM    DATA     BIT       PTSD0
      000000D8H.4 SFRSYM    DATA     BIT       PSPI0
      000000C8H.7 SFRSYM    DATA     BIT       PTSD1
      000000B8H.6 SFRSYM    DATA     BIT       PDRV0
      000000D8H.5 SFRSYM    DATA     BIT       PSPI1
      000000B8H.7 SFRSYM    DATA     BIT       PDRV1
      000000D1H   SFRSYM    DATA     BYTE      P1_IE
      000000D3H   SFRSYM    DATA     BYTE      P2_IE
      000000D2H   SFRSYM    DATA     BYTE      P1_IF
      000000D4H   SFRSYM    DATA     BYTE      P2_IF
      000000ACH   SFRSYM    DATA     WORD      TIM2__DR
      000000C8H.4 SFRSYM    DATA     BIT       PTIM4S0
      000000FCH   SFRSYM    DATA     BYTE      P0_OE
      000000A4H   SFRSYM    DATA     WORD      TIM3__DR
      000000C8H.5 SFRSYM    DATA     BIT       PTIM4S1
      000000FDH   SFRSYM    DATA     BYTE      P1_OE
      00000094H   SFRSYM    DATA     WORD      TIM4__DR
      000000D0H.5 SFRSYM    DATA     BIT       F0
      000000FEH   SFRSYM    DATA     BYTE      P2_OE
      000000D0H.1 SFRSYM    DATA     BIT       F1
      000000FFH   SFRSYM    DATA     BYTE      P3_OE
      00000080H.0 SFRSYM    DATA     BIT       GP00
      000000E9H   SFRSYM    DATA     BYTE      P4_OE
      00000090H.0 SFRSYM    DATA     BIT       GP10
      00000080H.1 SFRSYM    DATA     BIT       GP01
      000000A0H.0 SFRSYM    DATA     BIT       GP20
      00000090H.1 SFRSYM    DATA     BIT       GP11
      00000080H.2 SFRSYM    DATA     BIT       GP02
      000000B0H.0 SFRSYM    DATA     BIT       GP30
      000000A0H.1 SFRSYM    DATA     BIT       GP21
      00000090H.2 SFRSYM    DATA     BIT       GP12
      00000080H.3 SFRSYM    DATA     BIT       GP03
      000000B8H.0 SFRSYM    DATA     BIT       PLVW0
      000000A8H.1 SFRSYM    DATA     BIT       TSDIE
      000000D0H   SFRSYM    DATA     BYTE      PSW
      000000E8H.0 SFRSYM    DATA     BIT       GP40
      000000B0H.1 SFRSYM    DATA     BIT       GP31
      000000A0H.2 SFRSYM    DATA     BIT       GP22
      00000090H.3 SFRSYM    DATA     BIT       GP13
      00000080H.4 SFRSYM    DATA     BIT       GP04
      000000B8H.1 SFRSYM    DATA     BIT       PLVW1
      000000A8H.3 SFRSYM    DATA     BIT       SPIIE
      00000088H.5 SFRSYM    DATA     BIT       TSDIF
      000000E8H.1 SFRSYM    DATA     BIT       GP41
      000000B0H.2 SFRSYM    DATA     BIT       GP32
      000000A0H.3 SFRSYM    DATA     BIT       GP23
      00000090H.4 SFRSYM    DATA     BIT       GP14
      00000080H.5 SFRSYM    DATA     BIT       GP05
      000000C4H   SFRSYM    DATA     BYTE      MDU_DA0
      000000E8H.2 SFRSYM    DATA     BIT       GP42
      000000B0H.3 SFRSYM    DATA     BIT       GP33
      000000A0H.4 SFRSYM    DATA     BIT       GP24
      00000090H.5 SFRSYM    DATA     BIT       GP15
      00000080H.6 SFRSYM    DATA     BIT       GP06
      000000CCH   SFRSYM    DATA     BYTE      MDU_DB0
      000000C5H   SFRSYM    DATA     BYTE      MDU_DA1
      00000088H.0 SFRSYM    DATA     BIT       IT00

      0100380FH   BLOCK     CODE     ---       LVL=0
      0100380FH   LINE      CODE     ---       #46
      0100380FH   LINE      CODE     ---       #47
LX51 LINKER/LOCATER V4.66.100.0                                                       04/25/2024  14:24:29  PAGE 46


      0100380FH   LINE      CODE     ---       #48
      01003811H   LINE      CODE     ---       #49
      01003818H   LINE      CODE     ---       #50
      0100381DH   LINE      CODE     ---       #52
      01003821H   LINE      CODE     ---       #53
      01003826H   LINE      CODE     ---       #55
      0100382AH   LINE      CODE     ---       #56
      ---         BLOCKEND  ---      ---       LVL=0

      0100388BH   BLOCK     CODE     ---       LVL=0
      0100388BH   LINE      CODE     ---       #60
      0100388BH   LINE      CODE     ---       #61
      0100388BH   LINE      CODE     ---       #62
      01003890H   LINE      CODE     ---       #63
      01003896H   LINE      CODE     ---       #64
      ---         BLOCKEND  ---      ---       LVL=0

      0100353EH   BLOCK     CODE     ---       LVL=0
      0100353EH   LINE      CODE     ---       #68
      0100353EH   LINE      CODE     ---       #69
      0100353EH   LINE      CODE     ---       #70
      01003544H   LINE      CODE     ---       #71
      01003544H   LINE      CODE     ---       #72
      01003546H   LINE      CODE     ---       #74
      0100355EH   LINE      CODE     ---       #75
      0100355EH   LINE      CODE     ---       #76
      01003568H   LINE      CODE     ---       #77
      01003570H   LINE      CODE     ---       #78
      01003571H   LINE      CODE     ---       #80
      01003574H   LINE      CODE     ---       #81
      01003574H   LINE      CODE     ---       #82
      ---         BLOCKEND  ---      ---       LVL=0

      01003846H   BLOCK     CODE     ---       LVL=0
      00000006H   SYMBOL    DATA     INT       err
      01003846H   LINE      CODE     ---       #113
      01003846H   LINE      CODE     ---       #114
      01003846H   LINE      CODE     ---       #116
      0100384AH   LINE      CODE     ---       #117
      0100384DH   LINE      CODE     ---       #118
      01003853H   LINE      CODE     ---       #120
      0100385DH   LINE      CODE     ---       #129
      ---         BLOCKEND  ---      ---       LVL=0

      01002EC6H   BLOCK     CODE     ---       LVL=0
      01002EC6H   LINE      CODE     ---       #131
      01002EC6H   LINE      CODE     ---       #132
      01002EC6H   LINE      CODE     ---       #133
      01002ED7H   LINE      CODE     ---       #134
      01002ED7H   LINE      CODE     ---       #135
      01002EE6H   LINE      CODE     ---       #136
      01002EF1H   LINE      CODE     ---       #137
      01002EFDH   LINE      CODE     ---       #138
      01002EFEH   LINE      CODE     ---       #139
      01002F0FH   LINE      CODE     ---       #140
      01002F0FH   LINE      CODE     ---       #141
      01002F1EH   LINE      CODE     ---       #142
      01002F29H   LINE      CODE     ---       #143
      01002F35H   LINE      CODE     ---       #144
      01002F36H   LINE      CODE     ---       #146
      01002F36H   LINE      CODE     ---       #147
      01002F40H   LINE      CODE     ---       #148
      01002F40H   LINE      CODE     ---       #149
      ---         BLOCKEND  ---      ---       LVL=0

LX51 LINKER/LOCATER V4.66.100.0                                                       04/25/2024  14:24:29  PAGE 47


      01001B44H   BLOCK     CODE     ---       LVL=0
      01001B44H   LINE      CODE     ---       #161
      01001B44H   LINE      CODE     ---       #162
      01001B44H   LINE      CODE     ---       #163
      01001B55H   LINE      CODE     ---       #164
      01001B55H   LINE      CODE     ---       #165
      01001B74H   LINE      CODE     ---       #166
      01001B74H   LINE      CODE     ---       #167
      01001B74H   LINE      CODE     ---       #168
      01001B74H   LINE      CODE     ---       #169
      01001B88H   LINE      CODE     ---       #170
      01001B88H   LINE      CODE     ---       #171
      01001B91H   LINE      CODE     ---       #172
      01001B97H   LINE      CODE     ---       #174
      01001B9DH   LINE      CODE     ---       #175
      01001BA2H   LINE      CODE     ---       #189
      01001BA2H   LINE      CODE     ---       #190
      01001BAAH   LINE      CODE     ---       #192
      01001BB9H   LINE      CODE     ---       #193
      01001BC5H   LINE      CODE     ---       #195
      01001BCBH   LINE      CODE     ---       #196
      01001BD1H   LINE      CODE     ---       #199
      01001BD1H   LINE      CODE     ---       #202
      01001BD7H   LINE      CODE     ---       #203
      01001BDDH   LINE      CODE     ---       #206
      01001BDDH   LINE      CODE     ---       #207
      01001BDDH   LINE      CODE     ---       #208
      01001BDEH   LINE      CODE     ---       #209
      01001BDEH   LINE      CODE     ---       #210
      01001BDEH   LINE      CODE     ---       #233
      01001BDEH   LINE      CODE     ---       #273
      01001C13H   LINE      CODE     ---       #277
      01001C2CH   LINE      CODE     ---       #278
      01001C2CH   LINE      CODE     ---       #279
      01001C43H   LINE      CODE     ---       #280
      01001C4DH   LINE      CODE     ---       #281
      01001C4FH   LINE      CODE     ---       #283
      01001C4FH   LINE      CODE     ---       #284
      01001C6BH   LINE      CODE     ---       #285
      01001C75H   LINE      CODE     ---       #286
      01001C75H   LINE      CODE     ---       #288
      01001C89H   LINE      CODE     ---       #289
      01001C93H   LINE      CODE     ---       #292
      01001C93H   LINE      CODE     ---       #295
      01001C96H   LINE      CODE     ---       #296
      01001C96H   LINE      CODE     ---       #297
      01001C97H   LINE      CODE     ---       #298
      01001C97H   LINE      CODE     ---       #299
      01001C97H   LINE      CODE     ---       #300
      01001CAFH   LINE      CODE     ---       #301
      01001CAFH   LINE      CODE     ---       #302
      01001CB6H   LINE      CODE     ---       #311
      01001CD2H   LINE      CODE     ---       #314
      01001CEDH   LINE      CODE     ---       #315
      01001CF9H   LINE      CODE     ---       #316
      01001D15H   LINE      CODE     ---       #317
      01001D21H   LINE      CODE     ---       #319
      01001D34H   LINE      CODE     ---       #321
      01001D3FH   LINE      CODE     ---       #323
      01001D42H   LINE      CODE     ---       #324
      01001D42H   LINE      CODE     ---       #325
      01001D42H   LINE      CODE     ---       #326
      01001D42H   LINE      CODE     ---       #327
      01001D42H   LINE      CODE     ---       #328
      ---         BLOCKEND  ---      ---       LVL=0
LX51 LINKER/LOCATER V4.66.100.0                                                       04/25/2024  14:24:29  PAGE 48



      01002045H   BLOCK     CODE     ---       LVL=0
      01002045H   LINE      CODE     ---       #332
      01002045H   LINE      CODE     ---       #333
      01002045H   LINE      CODE     ---       #337
      01002050H   LINE      CODE     ---       #338
      01002050H   LINE      CODE     ---       #340
      01002061H   LINE      CODE     ---       #341
      01002061H   LINE      CODE     ---       #342
      0100206DH   LINE      CODE     ---       #343
      0100208CH   LINE      CODE     ---       #344
      0100208CH   LINE      CODE     ---       #345
      01002093H   LINE      CODE     ---       #346
      01002097H   LINE      CODE     ---       #348
      0100209BH   LINE      CODE     ---       #349
      010020A0H   LINE      CODE     ---       #350
      010020A3H   LINE      CODE     ---       #351
      010020A6H   LINE      CODE     ---       #352
      010020A6H   LINE      CODE     ---       #353
      010020A6H   LINE      CODE     ---       #356
      010020BAH   LINE      CODE     ---       #357
      010020BAH   LINE      CODE     ---       #358
      010020C6H   LINE      CODE     ---       #359
      010020D4H   LINE      CODE     ---       #360
      010020E8H   LINE      CODE     ---       #361
      010020E8H   LINE      CODE     ---       #362
      010020EFH   LINE      CODE     ---       #363
      010020FDH   LINE      CODE     ---       #364
      010020FDH   LINE      CODE     ---       #365
      0100210BH   LINE      CODE     ---       #366
      0100211CH   LINE      CODE     ---       #367
      0100211CH   LINE      CODE     ---       #368
      01002123H   LINE      CODE     ---       #369
      01002129H   LINE      CODE     ---       #370
      0100212DH   LINE      CODE     ---       #372
      01002131H   LINE      CODE     ---       #373
      01002137H   LINE      CODE     ---       #374
      0100213AH   LINE      CODE     ---       #375
      0100213DH   LINE      CODE     ---       #376
      0100213DH   LINE      CODE     ---       #377
      0100213FH   LINE      CODE     ---       #379
      0100213FH   LINE      CODE     ---       #380
      01002150H   LINE      CODE     ---       #381
      0100215CH   LINE      CODE     ---       #382
      0100215CH   LINE      CODE     ---       #383
      0100215CH   LINE      CODE     ---       #384
      0100215EH   LINE      CODE     ---       #386
      0100215EH   LINE      CODE     ---       #387
      01002165H   LINE      CODE     ---       #388
      01002165H   LINE      CODE     ---       #390
      0100216FH   LINE      CODE     ---       #391
      0100216FH   LINE      CODE     ---       #392
      0100217DH   LINE      CODE     ---       #393
      0100218EH   LINE      CODE     ---       #394
      0100218EH   LINE      CODE     ---       #395
      01002192H   LINE      CODE     ---       #396
      01002196H   LINE      CODE     ---       #398
      0100219AH   LINE      CODE     ---       #399
      010021A0H   LINE      CODE     ---       #400
      010021A3H   LINE      CODE     ---       #401
      010021A6H   LINE      CODE     ---       #402
      010021A6H   LINE      CODE     ---       #403
      010021A6H   LINE      CODE     ---       #404
      010021A6H   LINE      CODE     ---       #405
      ---         BLOCKEND  ---      ---       LVL=0
LX51 LINKER/LOCATER V4.66.100.0                                                       04/25/2024  14:24:29  PAGE 49



      01002421H   BLOCK     CODE     ---       LVL=0
      01002421H   LINE      CODE     ---       #408
      01002421H   LINE      CODE     ---       #409
      01002421H   LINE      CODE     ---       #411
      0100242CH   LINE      CODE     ---       #412
      0100242CH   LINE      CODE     ---       #413
      0100243BH   LINE      CODE     ---       #414
      0100243BH   LINE      CODE     ---       #415
      01002447H   LINE      CODE     ---       #416
      01002448H   LINE      CODE     ---       #418
      01002448H   LINE      CODE     ---       #421
      01002471H   LINE      CODE     ---       #422
      01002471H   LINE      CODE     ---       #423
      0100247FH   LINE      CODE     ---       #424
      0100248EH   LINE      CODE     ---       #425
      0100248EH   LINE      CODE     ---       #426
      01002492H   LINE      CODE     ---       #427
      01002496H   LINE      CODE     ---       #429
      0100249BH   LINE      CODE     ---       #430
      0100249EH   LINE      CODE     ---       #431
      010024A1H   LINE      CODE     ---       #432
      010024A4H   LINE      CODE     ---       #434
      010024A4H   LINE      CODE     ---       #435
      010024A6H   LINE      CODE     ---       #437
      010024A6H   LINE      CODE     ---       #438
      010024B5H   LINE      CODE     ---       #439
      010024C1H   LINE      CODE     ---       #440
      010024C1H   LINE      CODE     ---       #442
      010024DEH   LINE      CODE     ---       #443
      010024DEH   LINE      CODE     ---       #444
      010024ECH   LINE      CODE     ---       #445
      010024FBH   LINE      CODE     ---       #446
      010024FBH   LINE      CODE     ---       #447
      010024FFH   LINE      CODE     ---       #448
      01002503H   LINE      CODE     ---       #450
      01002513H   LINE      CODE     ---       #451
      0100251BH   LINE      CODE     ---       #453
      01002521H   LINE      CODE     ---       #454
      01002525H   LINE      CODE     ---       #455
      01002528H   LINE      CODE     ---       #456
      0100252BH   LINE      CODE     ---       #457
      0100252BH   LINE      CODE     ---       #458
      0100252CH   LINE      CODE     ---       #460
      0100252CH   LINE      CODE     ---       #461
      0100253BH   LINE      CODE     ---       #462
      01002547H   LINE      CODE     ---       #463
      01002547H   LINE      CODE     ---       #464
      01002547H   LINE      CODE     ---       #465
      01002547H   LINE      CODE     ---       #466
      ---         BLOCKEND  ---      ---       LVL=0

      ---         MODULE    ---      ---       USERFRAME
      00000062H   PUBLIC    IDATA    BYTE      AlarmStuck
      00000060H   PUBLIC    IDATA    INT       DrvTemperCelsius
      02000143H   PUBLIC    XDATA    BYTE      DrvEnTrig
      0000005EH   PUBLIC    IDATA    INT       VspSpdCmd
      0000005AH   PUBLIC    IDATA    DWORD     MaxRPMOfStop
      02000141H   PUBLIC    XDATA    WORD      IBusWarningCnt
      00000059H   PUBLIC    IDATA    BYTE      AlarmOverCurrent
      0200013FH   PUBLIC    XDATA    WORD      AutostartCnt
      0200013DH   PUBLIC    XDATA    WORD      IBusCommandX10
      00000058H   PUBLIC    IDATA    BYTE      FlagHighSpeed
      00000057H   PUBLIC    IDATA    BYTE      FlagHighTemper
      0200013CH   PUBLIC    XDATA    BYTE      ReStartCnt
LX51 LINKER/LOCATER V4.66.100.0                                                       04/25/2024  14:24:29  PAGE 50


      00000053H   PUBLIC    IDATA    DWORD     VspPowerAlt
      00000052H   PUBLIC    IDATA    BYTE      AlarmFlag
      0200013BH   PUBLIC    XDATA    BYTE      StartCmdLv
      0200013BH   PUBLIC    XDATA    ---       KeyOn
      00000051H   PUBLIC    IDATA    BYTE      AlarmHighSpeed
      00000050H   PUBLIC    IDATA    BYTE      FlagHardBeark
      0200013AH   PUBLIC    XDATA    BYTE      DrvRefTrig
      02000138H   PUBLIC    XDATA    WORD      PwrOnX1ms
      0000004FH   PUBLIC    IDATA    BYTE      AlarmHighTemper
      02000136H   PUBLIC    XDATA    WORD      UBusLowKeepCnt
      02000135H   PUBLIC    XDATA    BYTE      DrvEnFlag
      02000134H   PUBLIC    XDATA    BYTE      Loop10msFlag
      02000133H   PUBLIC    XDATA    BYTE      UBusLowCnt
      02000131H   PUBLIC    XDATA    WORD      IBusCommandAlt
      0000004EH   PUBLIC    IDATA    BYTE      AlarmHardBeark
      0000004DH   PUBLIC    IDATA    BYTE      FlagLowVolt
      02000130H   PUBLIC    XDATA    BYTE      Loop1msCnt
      0200012FH   PUBLIC    XDATA    BYTE      OCLv
      0200012DH   PUBLIC    XDATA    WORD      DrvTempADCSmpFilt
      0200012CH   PUBLIC    XDATA    BYTE      Restart10msCnt
      0200012BH   PUBLIC    XDATA    BYTE      StartFailLv
      02000129H   PUBLIC    XDATA    WORD      RunningX1ms
      02000128H   PUBLIC    XDATA    BYTE      StuckLv
      02000127H   PUBLIC    XDATA    BYTE      UBusMaxCnt
      0000004BH   PUBLIC    IDATA    INT       Vsp_Q12
      02000125H   PUBLIC    XDATA    WORD      UBusNormKeepCnt
      0000004AH   PUBLIC    IDATA    BYTE      AlarmLowVolt
      02000123H   PUBLIC    XDATA    WORD      IbusADCOffset
      02000121H   PUBLIC    XDATA    INT       PulseDuty_Q12
      02000120H   PUBLIC    XDATA    BYTE      HiTemperCnt
      00000046H   PUBLIC    IDATA    DWORD     UxISmp
      0200011EH   PUBLIC    XDATA    WORD      IBusCommand_mA
      0200011DH   PUBLIC    XDATA    BYTE      GivenDutyDisFlag
      0200011CH   PUBLIC    XDATA    BYTE      DrvHystericLv
      0200011AH   PUBLIC    XDATA    WORD      UBusX10
      02000118H   PUBLIC    XDATA    WORD      GivenDuty_Q12
      00000044H   PUBLIC    IDATA    WORD      MaxPower
      00000042H   PUBLIC    IDATA    WORD      MinPower
      02000116H   PUBLIC    XDATA    WORD      UBusSmp
      02000114H   PUBLIC    XDATA    WORD      KeyGoDutyMax
      02000112H   PUBLIC    XDATA    WORD      AlarmX10msCnt
      00000041H   PUBLIC    IDATA    BYTE      NoVZeroCrossX1ms
      0000003FH   PUBLIC    IDATA    WORD      MaxSpdOfStop
      0000003EH   PUBLIC    IDATA    BYTE      FlagOverWind
      02000110H   PUBLIC    XDATA    WORD      IBusOCCnt
      0200010FH   PUBLIC    XDATA    BYTE      HeatProtectLv
      0000003DH   PUBLIC    IDATA    BYTE      VZeroCrossCnt
      0200010EH   PUBLIC    XDATA    BYTE      Loop1msFlag
      0200010CH   PUBLIC    XDATA    WORD      RePowerRunDly
      0200010BH   PUBLIC    XDATA    BYTE      UBusHighCnt
      02000109H   PUBLIC    XDATA    WORD      UBusMax
      02000107H   PUBLIC    XDATA    WORD      IBusSmp
      0000003CH   PUBLIC    IDATA    BYTE      FlagHighVolt
      02000106H   PUBLIC    XDATA    BYTE      PowerLose
      0000003BH   PUBLIC    IDATA    BYTE      VZeroCrossGetFlag
      0000003AH   PUBLIC    IDATA    BYTE      FlagStartLose
      00000039H   PUBLIC    IDATA    BYTE      AlarmOverWind
      00000037H   PUBLIC    IDATA    INT       VspSpdCmdMax
      00000036H   PUBLIC    IDATA    BYTE      VZeroCrossOK
      02000105H   PUBLIC    XDATA    BYTE      LowVoltLv
      00000035H   PUBLIC    IDATA    BYTE      AlarmFlag2
      02000104H   PUBLIC    XDATA    BYTE      KeyOnOffTrig
      02000103H   PUBLIC    XDATA    BYTE      HiSpdLv
      02000101H   PUBLIC    XDATA    WORD      McIdleX1ms
      00000034H   PUBLIC    IDATA    BYTE      VZeroCrossLose
LX51 LINKER/LOCATER V4.66.100.0                                                       04/25/2024  14:24:29  PAGE 51


      02000100H   PUBLIC    XDATA    BYTE      KeyOnOffCmd
      00000033H   PUBLIC    IDATA    BYTE      AlarmHighVolt
      00000032H   PUBLIC    IDATA    BYTE      AlarmStartLose
      020000FEH   PUBLIC    XDATA    WORD      IBusFilt_mA
      020000FDH   PUBLIC    XDATA    BYTE      SumUpTrig
      00000031H   PUBLIC    IDATA    BYTE      FlagPhaseLoss
      020000FBH   PUBLIC    XDATA    WORD      ReStartDlyX10ms
      020000FAH   PUBLIC    XDATA    BYTE      RunTrigger
      020000F8H   PUBLIC    XDATA    WORD      UBusADCSmpFilt
      020000F7H   PUBLIC    XDATA    BYTE      QuickStartFlag
      0000002FH   PUBLIC    IDATA    WORD      DrvTemperADCVal
      020000F6H   PUBLIC    XDATA    BYTE      StartCmdLvAlt
      0000002BH   PUBLIC    IDATA    DWORD     VspPwrCmd
      020000F4H   PUBLIC    XDATA    WORD      VoltKeepLowCnt
      020000F2H   PUBLIC    XDATA    WORD      KeyGoDuty
      020000F1H   PUBLIC    XDATA    BYTE      FltReStartTrig
      020000F0H   PUBLIC    XDATA    BYTE      ReStartDlyCmd
      0000002AH   PUBLIC    IDATA    BYTE      FlagStuck
      00000029H   PUBLIC    IDATA    BYTE      AlarmPhaseLoss
      020000EFH   PUBLIC    XDATA    BYTE      HearterPMWDutyDowm
      020000EEH   PUBLIC    XDATA    BYTE      Loop10msCnt
      00000027H   PUBLIC    IDATA    INT       VspSpdAlt
      00000023H   PUBLIC    IDATA    DWORD     MotorRPM
      020000ECH   PUBLIC    XDATA    WORD      ExpectedDrvRef
      020000EBH   PUBLIC    XDATA    BYTE      HearterPMWDutyRise
      00000022H   PUBLIC    IDATA    BYTE      FlagOverCurrent
      020000E9H   PUBLIC    XDATA    WORD      IBusADCSmpFilt
      020000E8H   PUBLIC    XDATA    BYTE      UBusFall
      00000021H.4 PUBLIC    BIT      BIT       CheckTemperTurn
      01001516H   PUBLIC    CODE     ---       CommandPer10ms
      0100107FH   PUBLIC    CODE     ---       LoopProPer1ms
      0100317AH   PUBLIC    CODE     ---       VspSpeedRamp
      01002F41H   PUBLIC    CODE     ---       VspIBusRamp
      010032F6H   PUBLIC    CODE     ---       CalAlarmFlag
      01003678H   PUBLIC    CODE     ---       UserParas
      000000B0H.4 SFRSYM    DATA     BIT       GP34
      000000A0H.5 SFRSYM    DATA     BIT       GP25
      00000090H.6 SFRSYM    DATA     BIT       GP16
      00000080H.7 SFRSYM    DATA     BIT       GP07
      000000CDH   SFRSYM    DATA     BYTE      MDU_DB1
      000000C6H   SFRSYM    DATA     BYTE      MDU_DA2
      00000088H.1 SFRSYM    DATA     BIT       IT01
      00000088H.3 SFRSYM    DATA     BIT       IT10
      000000B0H.5 SFRSYM    DATA     BIT       GP35
      000000A0H.6 SFRSYM    DATA     BIT       GP26
      00000090H.7 SFRSYM    DATA     BIT       GP17
      00000080H   SFRSYM    DATA     BYTE      P0
      000000F6H   SFRSYM    DATA     WORD      PI_UKMIN
      000000C7H   SFRSYM    DATA     BYTE      MDU_DA3
      00000088H.4 SFRSYM    DATA     BIT       IT11
      000000C9H   SFRSYM    DATA     BYTE      RST_SR
      000000D9H   SFRSYM    DATA     BYTE      EVT_FILT
      000000B0H.6 SFRSYM    DATA     BIT       GP36
      000000A0H.7 SFRSYM    DATA     BIT       GP27
      00000090H   SFRSYM    DATA     BYTE      P1
      000000B0H.7 SFRSYM    DATA     BIT       GP37
      000000A0H   SFRSYM    DATA     BYTE      P2
      000000F4H   SFRSYM    DATA     WORD      PI_UKMAX
      000000B0H   SFRSYM    DATA     BYTE      P3
      000000E8H   SFRSYM    DATA     BYTE      P4
      000000D0H.6 SFRSYM    DATA     BIT       AC
      000000A8H.7 SFRSYM    DATA     BIT       EA
      000000D5H   SFRSYM    DATA     BYTE      CMP_CR0
      000000D6H   SFRSYM    DATA     BYTE      CMP_CR1
      000000DAH   SFRSYM    DATA     BYTE      CMP_CR2
LX51 LINKER/LOCATER V4.66.100.0                                                       04/25/2024  14:24:29  PAGE 52


      000000B8H.2 SFRSYM    DATA     BIT       PX00
      000000DCH   SFRSYM    DATA     BYTE      CMP_CR3
      000000F8H.0 SFRSYM    DATA     BIT       OISUH
      000000EAH   SFRSYM    DATA     WORD      PI_EK
      000000B8H.3 SFRSYM    DATA     BIT       PX01
      000000B8H.4 SFRSYM    DATA     BIT       PX10
      000000F8H.2 SFRSYM    DATA     BIT       OISVH
      000000B8H.5 SFRSYM    DATA     BIT       PX11
      000000F8H.1 SFRSYM    DATA     BIT       OISUL
      000000DDH   SFRSYM    DATA     BYTE      LPF_K
      000000F2H   SFRSYM    DATA     WORD      PI_KI
      000000A8H   SFRSYM    DATA     BYTE      IE
      000000F8H.3 SFRSYM    DATA     BIT       OISVL
      000000EEH   SFRSYM    DATA     WORD      PI_KP
      000000AAH   SFRSYM    DATA     WORD      TIM2__CNTR
      000000A2H   SFRSYM    DATA     WORD      TIM3__CNTR
      00000092H   SFRSYM    DATA     WORD      TIM4__CNTR
      000000ECH   SFRSYM    DATA     WORD      PI_UK
      000000DEH   SFRSYM    DATA     WORD      LPF_X
      00000098H.0 SFRSYM    DATA     BIT       RI
      00000098H.6 SFRSYM    DATA     BIT       UT_MOD0
      000000E6H   SFRSYM    DATA     WORD      LPF_Y
      00000098H.7 SFRSYM    DATA     BIT       UT_MOD1
      000000D0H.7 SFRSYM    DATA     BIT       CY
      00000098H.1 SFRSYM    DATA     BIT       TI
      000000C0H.2 SFRSYM    DATA     BIT       PTIM10
      00000084H   SFRSYM    DATA     BYTE      FLA_KEY
      000000C0H.0 SFRSYM    DATA     BIT       PTIM20
      000000C0H.3 SFRSYM    DATA     BIT       PTIM11
      00000098H   SFRSYM    DATA     BYTE      UT_CR
      000000C8H.2 SFRSYM    DATA     BIT       PTIM30
      000000C0H.1 SFRSYM    DATA     BIT       PTIM21
      00000099H   SFRSYM    DATA     BYTE      UT_DR
      000000C8H.3 SFRSYM    DATA     BIT       PTIM31
      000000D0H.2 SFRSYM    DATA     BIT       OV
      0000009AH   SFRSYM    DATA     WORD      UT_BAUD
      000000C4H   SFRSYM    DATA     WORD      MDU_DA01
      000000CCH   SFRSYM    DATA     WORD      MDU_DB01
      00000087H   SFRSYM    DATA     BYTE      PCON
      000000C6H   SFRSYM    DATA     WORD      MDU_DA23
      00000088H   SFRSYM    DATA     BYTE      TCON
      00000082H   SFRSYM    DATA     WORD      DPTR
      000000D8H.0 SFRSYM    DATA     BIT       PUART0
      000000D8H.1 SFRSYM    DATA     BIT       PUART1
      000000D8H.2 SFRSYM    DATA     BIT       PI2C0
      00000088H.2 SFRSYM    DATA     BIT       IF0
      000000D8H.3 SFRSYM    DATA     BIT       PI2C1
      000000AEH   SFRSYM    DATA     WORD      TIM2__ARR
      000000A1H   SFRSYM    DATA     BYTE      TIM2_CR0
      000000A6H   SFRSYM    DATA     WORD      TIM3__ARR
      0000009CH   SFRSYM    DATA     BYTE      TIM3_CR0
      000000A9H   SFRSYM    DATA     BYTE      TIM2_CR1
      00000096H   SFRSYM    DATA     WORD      TIM4__ARR
      0000009EH   SFRSYM    DATA     BYTE      TIM4_CR0
      0000009DH   SFRSYM    DATA     BYTE      TIM3_CR1
      000000F8H   SFRSYM    DATA     BYTE      DRV_OUT
      0000009FH   SFRSYM    DATA     BYTE      TIM4_CR1
      000000DBH   SFRSYM    DATA     BYTE      LVSR
      000000A8H.4 SFRSYM    DATA     BIT       ES0
      00000085H   SFRSYM    DATA     BYTE      FLA_CR
      000000C0H.4 SFRSYM    DATA     BIT       PADC0
      000000B8H   SFRSYM    DATA     BYTE      IP0
      000000C0H.5 SFRSYM    DATA     BIT       PADC1
      000000C0H   SFRSYM    DATA     BYTE      IP1
      000000C8H   SFRSYM    DATA     BYTE      IP2
LX51 LINKER/LOCATER V4.66.100.0                                                       04/25/2024  14:24:29  PAGE 53


      00000098H.2 SFRSYM    DATA     BIT       RB8
      000000D8H   SFRSYM    DATA     BYTE      IP3
      000000A8H.0 SFRSYM    DATA     BIT       EX0
      00000098H.3 SFRSYM    DATA     BIT       TB8
      000000A8H.2 SFRSYM    DATA     BIT       EX1
      000000D0H.0 SFRSYM    DATA     BIT       P
      000000F9H   SFRSYM    DATA     BYTE      PI_LPF_CR
      00000098H.5 SFRSYM    DATA     BIT       SM2
      000000D8H.6 SFRSYM    DATA     BIT       PDMA0
      000000D8H.7 SFRSYM    DATA     BIT       PDMA1
      000000C2H   SFRSYM    DATA     WORD      MDU_MA
      000000D0H.3 SFRSYM    DATA     BIT       RS0
      000000CAH   SFRSYM    DATA     WORD      MDU_MB
      000000D0H.4 SFRSYM    DATA     BIT       RS1
      000000C1H   SFRSYM    DATA     BYTE      MDU_CR
      000000F8H.7 SFRSYM    DATA     BIT       MOE
      000000C0H.6 SFRSYM    DATA     BIT       PCMP0
      000000C0H.7 SFRSYM    DATA     BIT       PCMP1
      000000F8H.4 SFRSYM    DATA     BIT       OISWXH
      00000098H.4 SFRSYM    DATA     BIT       REN
      000000D7H   SFRSYM    DATA     BYTE      CMP_SR
      000000F8H.5 SFRSYM    DATA     BIT       OISWXL
      000000C8H.6 SFRSYM    DATA     BIT       PTSD0
      000000D8H.4 SFRSYM    DATA     BIT       PSPI0
      000000C8H.7 SFRSYM    DATA     BIT       PTSD1
      000000B8H.6 SFRSYM    DATA     BIT       PDRV0
      000000D8H.5 SFRSYM    DATA     BIT       PSPI1
      000000B8H.7 SFRSYM    DATA     BIT       PDRV1
      000000D1H   SFRSYM    DATA     BYTE      P1_IE
      000000D3H   SFRSYM    DATA     BYTE      P2_IE
      000000D2H   SFRSYM    DATA     BYTE      P1_IF
      000000D4H   SFRSYM    DATA     BYTE      P2_IF
      000000ACH   SFRSYM    DATA     WORD      TIM2__DR
      000000C8H.4 SFRSYM    DATA     BIT       PTIM4S0
      000000FCH   SFRSYM    DATA     BYTE      P0_OE
      000000A4H   SFRSYM    DATA     WORD      TIM3__DR
      000000C8H.5 SFRSYM    DATA     BIT       PTIM4S1
      000000FDH   SFRSYM    DATA     BYTE      P1_OE
      00000094H   SFRSYM    DATA     WORD      TIM4__DR
      000000D0H.5 SFRSYM    DATA     BIT       F0
      000000FEH   SFRSYM    DATA     BYTE      P2_OE
      000000D0H.1 SFRSYM    DATA     BIT       F1
      000000FFH   SFRSYM    DATA     BYTE      P3_OE
      00000080H.0 SFRSYM    DATA     BIT       GP00
      000000E9H   SFRSYM    DATA     BYTE      P4_OE
      00000090H.0 SFRSYM    DATA     BIT       GP10
      00000080H.1 SFRSYM    DATA     BIT       GP01
      000000A0H.0 SFRSYM    DATA     BIT       GP20
      00000090H.1 SFRSYM    DATA     BIT       GP11
      00000080H.2 SFRSYM    DATA     BIT       GP02
      000000B0H.0 SFRSYM    DATA     BIT       GP30
      000000A0H.1 SFRSYM    DATA     BIT       GP21
      00000090H.2 SFRSYM    DATA     BIT       GP12
      00000080H.3 SFRSYM    DATA     BIT       GP03
      000000B8H.0 SFRSYM    DATA     BIT       PLVW0
      000000A8H.1 SFRSYM    DATA     BIT       TSDIE
      000000D0H   SFRSYM    DATA     BYTE      PSW
      000000E8H.0 SFRSYM    DATA     BIT       GP40
      000000B0H.1 SFRSYM    DATA     BIT       GP31
      000000A0H.2 SFRSYM    DATA     BIT       GP22
      00000090H.3 SFRSYM    DATA     BIT       GP13
      00000080H.4 SFRSYM    DATA     BIT       GP04
      000000B8H.1 SFRSYM    DATA     BIT       PLVW1
      000000A8H.3 SFRSYM    DATA     BIT       SPIIE
      00000088H.5 SFRSYM    DATA     BIT       TSDIF
LX51 LINKER/LOCATER V4.66.100.0                                                       04/25/2024  14:24:29  PAGE 54


      000000E8H.1 SFRSYM    DATA     BIT       GP41
      000000B0H.2 SFRSYM    DATA     BIT       GP32
      000000A0H.3 SFRSYM    DATA     BIT       GP23
      00000090H.4 SFRSYM    DATA     BIT       GP14
      00000080H.5 SFRSYM    DATA     BIT       GP05
      000000C4H   SFRSYM    DATA     BYTE      MDU_DA0
      000000E8H.2 SFRSYM    DATA     BIT       GP42
      000000B0H.3 SFRSYM    DATA     BIT       GP33
      000000A0H.4 SFRSYM    DATA     BIT       GP24
      00000090H.5 SFRSYM    DATA     BIT       GP15
      00000080H.6 SFRSYM    DATA     BIT       GP06
      000000CCH   SFRSYM    DATA     BYTE      MDU_DB0
      000000C5H   SFRSYM    DATA     BYTE      MDU_DA1
      00000088H.0 SFRSYM    DATA     BIT       IT00

      01003678H   BLOCK     CODE     ---       LVL=0
      01003678H   LINE      CODE     ---       #198
      01003678H   LINE      CODE     ---       #199
      01003678H   LINE      CODE     ---       #204
      0100367FH   LINE      CODE     ---       #205
      01003686H   LINE      CODE     ---       #207
      0100368DH   LINE      CODE     ---       #208
      01003696H   LINE      CODE     ---       #210
      0100369DH   LINE      CODE     ---       #211
      010036A6H   LINE      CODE     ---       #212
      ---         BLOCKEND  ---      ---       LVL=0

      010032F6H   BLOCK     CODE     ---       LVL=0
      010032F6H   LINE      CODE     ---       #215
      010032F6H   LINE      CODE     ---       #216
      010032F6H   LINE      CODE     ---       #217
      01003341H   LINE      CODE     ---       #221
      0100334DH   LINE      CODE     ---       #223
      ---         BLOCKEND  ---      ---       LVL=0

      01002F41H   BLOCK     CODE     ---       LVL=0
      01002F41H   LINE      CODE     ---       #225
      01002F41H   LINE      CODE     ---       #226
      01002F41H   LINE      CODE     ---       #227
      01002F57H   LINE      CODE     ---       #228
      01002F57H   LINE      CODE     ---       #229
      01002F62H   LINE      CODE     ---       #231
      01002F6DH   LINE      CODE     ---       #232
      01002F72H   LINE      CODE     ---       #233
      01002F73H   LINE      CODE     ---       #234
      01002F7AH   LINE      CODE     ---       #235
      01002F7AH   LINE      CODE     ---       #236
      01002F89H   LINE      CODE     ---       #237
      01002F97H   LINE      CODE     ---       #239
      01002F9EH   LINE      CODE     ---       #241
      01002FB3H   LINE      CODE     ---       #242
      01002FB8H   LINE      CODE     ---       #243
      01002FB8H   LINE      CODE     ---       #244
      ---         BLOCKEND  ---      ---       LVL=0

      0100317AH   BLOCK     CODE     ---       LVL=0
      0100317AH   LINE      CODE     ---       #246
      0100317AH   LINE      CODE     ---       #247
      0100317AH   LINE      CODE     ---       #248
      01003193H   LINE      CODE     ---       #249
      01003193H   LINE      CODE     ---       #250
      0100319CH   LINE      CODE     ---       #252
      010031ADH   LINE      CODE     ---       #253
      010031B2H   LINE      CODE     ---       #254
      010031B3H   LINE      CODE     ---       #256
LX51 LINKER/LOCATER V4.66.100.0                                                       04/25/2024  14:24:29  PAGE 55


      010031B3H   LINE      CODE     ---       #257
      010031BEH   LINE      CODE     ---       #258
      010031CFH   LINE      CODE     ---       #259
      010031DDH   LINE      CODE     ---       #260
      010031DDH   LINE      CODE     ---       #261
      ---         BLOCKEND  ---      ---       LVL=0

      0100107FH   BLOCK     CODE     ---       LVL=0
      0100107FH   LINE      CODE     ---       #268
      0100107FH   LINE      CODE     ---       #269
      0100107FH   LINE      CODE     ---       #275
      0100108AH   LINE      CODE     ---       #276
      0100108AH   LINE      CODE     ---       #277
      0100108CH   LINE      CODE     ---       #278
      0100108CH   LINE      CODE     ---       #281
      010010A8H   LINE      CODE     ---       #282
      010010B2H   LINE      CODE     ---       #284
      010010B8H   LINE      CODE     ---       #285
      010010B8H   LINE      CODE     ---       #286
      010010BEH   LINE      CODE     ---       #287
      010010D9H   LINE      CODE     ---       #288
      010010E3H   LINE      CODE     ---       #289
      010010E5H   LINE      CODE     ---       #291
      010010E5H   LINE      CODE     ---       #292
      010010ECH   LINE      CODE     ---       #293
      010010ECH   LINE      CODE     ---       #294
      01001108H   LINE      CODE     ---       #295
      01001112H   LINE      CODE     ---       #296
      01001112H   LINE      CODE     ---       #297
      01001119H   LINE      CODE     ---       #298
      01001119H   LINE      CODE     ---       #300
      0100112FH   LINE      CODE     ---       #301
      01001145H   LINE      CODE     ---       #304
      0100115EH   LINE      CODE     ---       #307
      01001174H   LINE      CODE     ---       #308
      0100118FH   LINE      CODE     ---       #310
      01001196H   LINE      CODE     ---       #313
      010011B2H   LINE      CODE     ---       #316
      010011BFH   LINE      CODE     ---       #317
      010011BFH   LINE      CODE     ---       #318
      010011CEH   LINE      CODE     ---       #319
      010011CEH   LINE      CODE     ---       #321
      010011D6H   LINE      CODE     ---       #322
      010011D6H   LINE      CODE     ---       #323
      010011E1H   LINE      CODE     ---       #324
      010011E1H   LINE      CODE     ---       #325
      010011F1H   LINE      CODE     ---       #326
      010011F1H   LINE      CODE     ---       #327
      01001209H   LINE      CODE     ---       #328
      0100120EH   LINE      CODE     ---       #329
      01001210H   LINE      CODE     ---       #331
      01001210H   LINE      CODE     ---       #332
      01001215H   LINE      CODE     ---       #333
      01001232H   LINE      CODE     ---       #334
      01001232H   LINE      CODE     ---       #336
      0100123BH   LINE      CODE     ---       #337
      0100123BH   LINE      CODE     ---       #338
      0100123EH   LINE      CODE     ---       #339
      0100123EH   LINE      CODE     ---       #341
      01001247H   LINE      CODE     ---       #342
      01001247H   LINE      CODE     ---       #343
      0100124AH   LINE      CODE     ---       #344
      0100124AH   LINE      CODE     ---       #346
      01001251H   LINE      CODE     ---       #347
      01001255H   LINE      CODE     ---       #348
LX51 LINKER/LOCATER V4.66.100.0                                                       04/25/2024  14:24:29  PAGE 56


      01001255H   LINE      CODE     ---       #349
      01001255H   LINE      CODE     ---       #354
      01001271H   LINE      CODE     ---       #356
      01001278H   LINE      CODE     ---       #357
      01001278H   LINE      CODE     ---       #359
      0100129AH   LINE      CODE     ---       #362
      010012B2H   LINE      CODE     ---       #363
      010012B5H   LINE      CODE     ---       #365
      010012B5H   LINE      CODE     ---       #367
      010012CEH   LINE      CODE     ---       #368
      010012CEH   LINE      CODE     ---       #369
      010012E3H   LINE      CODE     ---       #370
      010012E3H   LINE      CODE     ---       #371
      010012EAH   LINE      CODE     ---       #372
      010012EEH   LINE      CODE     ---       #373
      010012F2H   LINE      CODE     ---       #374
      010012F8H   LINE      CODE     ---       #375
      010012FBH   LINE      CODE     ---       #376
      010012FEH   LINE      CODE     ---       #377
      010012FEH   LINE      CODE     ---       #378
      01001300H   LINE      CODE     ---       #380
      01001300H   LINE      CODE     ---       #381
      01001304H   LINE      CODE     ---       #382
      0100130AH   LINE      CODE     ---       #383
      0100130AH   LINE      CODE     ---       #385
      01001319H   LINE      CODE     ---       #386
      01001319H   LINE      CODE     ---       #387
      0100132EH   LINE      CODE     ---       #388
      0100132EH   LINE      CODE     ---       #389
      01001332H   LINE      CODE     ---       #390
      01001338H   LINE      CODE     ---       #391
      0100133FH   LINE      CODE     ---       #392
      01001342H   LINE      CODE     ---       #393
      01001345H   LINE      CODE     ---       #394
      01001345H   LINE      CODE     ---       #395
      01001347H   LINE      CODE     ---       #397
      01001347H   LINE      CODE     ---       #398
      01001356H   LINE      CODE     ---       #399
      01001362H   LINE      CODE     ---       #400
      01001362H   LINE      CODE     ---       #402
      01001365H   LINE      CODE     ---       #403
      01001368H   LINE      CODE     ---       #404
      0100136BH   LINE      CODE     ---       #406
      0100136EH   LINE      CODE     ---       #407
      01001371H   LINE      CODE     ---       #408
      01001371H   LINE      CODE     ---       #411
      01001382H   LINE      CODE     ---       #412
      01001382H   LINE      CODE     ---       #415
      0100139BH   LINE      CODE     ---       #416
      0100139BH   LINE      CODE     ---       #417
      010013A6H   LINE      CODE     ---       #418
      010013A6H   LINE      CODE     ---       #419
      010013A8H   LINE      CODE     ---       #420
      010013ACH   LINE      CODE     ---       #421
      010013B0H   LINE      CODE     ---       #422
      010013B3H   LINE      CODE     ---       #423
      010013B6H   LINE      CODE     ---       #424
      010013B6H   LINE      CODE     ---       #425
      010013B8H   LINE      CODE     ---       #427
      010013B8H   LINE      CODE     ---       #428
      010013BCH   LINE      CODE     ---       #429
      010013C0H   LINE      CODE     ---       #430
      010013C0H   LINE      CODE     ---       #433
      010013DAH   LINE      CODE     ---       #434
      010013DAH   LINE      CODE     ---       #435
LX51 LINKER/LOCATER V4.66.100.0                                                       04/25/2024  14:24:29  PAGE 57


      010013E5H   LINE      CODE     ---       #436
      010013E5H   LINE      CODE     ---       #437
      010013ECH   LINE      CODE     ---       #438
      010013ECH   LINE      CODE     ---       #439
      010013F2H   LINE      CODE     ---       #441
      010013F2H   LINE      CODE     ---       #443
      010013F7H   LINE      CODE     ---       #444
      010013F7H   LINE      CODE     ---       #445
      010013F9H   LINE      CODE     ---       #447
      010013F9H   LINE      CODE     ---       #448
      010013FEH   LINE      CODE     ---       #449
      010013FEH   LINE      CODE     ---       #466
      01001410H   LINE      CODE     ---       #467
      01001410H   LINE      CODE     ---       #468
      01001416H   LINE      CODE     ---       #469
      0100141DH   LINE      CODE     ---       #470
      01001420H   LINE      CODE     ---       #471
      01001420H   LINE      CODE     ---       #472
      01001423H   LINE      CODE     ---       #473
      0100142EH   LINE      CODE     ---       #474
      0100142EH   LINE      CODE     ---       #477
      01001431H   LINE      CODE     ---       #478
      01001431H   LINE      CODE     ---       #479
      01001433H   LINE      CODE     ---       #481
      01001436H   LINE      CODE     ---       #483
      01001466H   LINE      CODE     ---       #484
      01001466H   LINE      CODE     ---       #485
      01001471H   LINE      CODE     ---       #486
      01001471H   LINE      CODE     ---       #487
      01001473H   LINE      CODE     ---       #489
      0100147BH   LINE      CODE     ---       #490
      0100147BH   LINE      CODE     ---       #491
      0100147EH   LINE      CODE     ---       #492
      01001481H   LINE      CODE     ---       #493
      01001484H   LINE      CODE     ---       #494
      01001484H   LINE      CODE     ---       #495
      01001488H   LINE      CODE     ---       #496
      0100148CH   LINE      CODE     ---       #497
      0100148CH   LINE      CODE     ---       #498
      0100148EH   LINE      CODE     ---       #500
      0100148EH   LINE      CODE     ---       #501
      01001493H   LINE      CODE     ---       #503
      010014A1H   LINE      CODE     ---       #504
      010014A1H   LINE      CODE     ---       #505
      010014A6H   LINE      CODE     ---       #506
      010014A9H   LINE      CODE     ---       #507
      010014A9H   LINE      CODE     ---       #508
      010014A9H   LINE      CODE     ---       #509
      010014ABH   LINE      CODE     ---       #511
      010014ABH   LINE      CODE     ---       #512
      010014ADH   LINE      CODE     ---       #514
      010014B0H   LINE      CODE     ---       #515
      010014B0H   LINE      CODE     ---       #517
      010014B2H   LINE      CODE     ---       #518
      010014B9H   LINE      CODE     ---       #519
      010014B9H   LINE      CODE     ---       #526
      010014BCH   LINE      CODE     ---       #527
      010014BCH   LINE      CODE     ---       #539
      010014C2H   LINE      CODE     ---       #540
      010014C2H   LINE      CODE     ---       #541
      010014C4H   LINE      CODE     ---       #543
      010014C7H   LINE      CODE     ---       #546
      010014D0H   LINE      CODE     ---       #547
      010014D0H   LINE      CODE     ---       #548
      010014D2H   LINE      CODE     ---       #549
LX51 LINKER/LOCATER V4.66.100.0                                                       04/25/2024  14:24:29  PAGE 58


      010014D6H   LINE      CODE     ---       #550
      010014D6H   LINE      CODE     ---       #551
      010014D6H   LINE      CODE     ---       #553
      010014E2H   LINE      CODE     ---       #554
      010014E2H   LINE      CODE     ---       #555
      010014E7H   LINE      CODE     ---       #556
      010014EBH   LINE      CODE     ---       #557
      010014EBH   LINE      CODE     ---       #560
      010014F4H   LINE      CODE     ---       #561
      010014F4H   LINE      CODE     ---       #562
      010014F6H   LINE      CODE     ---       #564
      010014FAH   LINE      CODE     ---       #566
      01001500H   LINE      CODE     ---       #567
      01001504H   LINE      CODE     ---       #569
      01001508H   LINE      CODE     ---       #570
      01001508H   LINE      CODE     ---       #592
      0100150FH   LINE      CODE     ---       #593
      0100150FH   LINE      CODE     ---       #594
      01001515H   LINE      CODE     ---       #595
      01001515H   LINE      CODE     ---       #596
      ---         BLOCKEND  ---      ---       LVL=0

      01001516H   BLOCK     CODE     ---       LVL=0
      01001516H   LINE      CODE     ---       #617
      01001516H   LINE      CODE     ---       #618
      01001516H   LINE      CODE     ---       #630
      0100151DH   LINE      CODE     ---       #631
      0100151DH   LINE      CODE     ---       #632
      0100152CH   LINE      CODE     ---       #633
      0100153AH   LINE      CODE     ---       #635
      0100153AH   LINE      CODE     ---       #636
      01001540H   LINE      CODE     ---       #637
      01001545H   LINE      CODE     ---       #638
      0100154BH   LINE      CODE     ---       #639
      0100154BH   LINE      CODE     ---       #640
      0100154BH   LINE      CODE     ---       #643
      01001554H   LINE      CODE     ---       #644
      01001571H   LINE      CODE     ---       #645
      01001576H   LINE      CODE     ---       #649
      01001585H   LINE      CODE     ---       #686
      010015A5H   LINE      CODE     ---       #687
      010015A5H   LINE      CODE     ---       #688
      010015BAH   LINE      CODE     ---       #689
      010015BAH   LINE      CODE     ---       #690
      010015C1H   LINE      CODE     ---       #691
      010015C4H   LINE      CODE     ---       #692
      010015C4H   LINE      CODE     ---       #693
      010015C6H   LINE      CODE     ---       #695
      010015CDH   LINE      CODE     ---       #713
      010015D2H   LINE      CODE     ---       #716
      010015D8H   LINE      CODE     ---       #717
      010015D8H   LINE      CODE     ---       #719
      010015F6H   LINE      CODE     ---       #720
      010015FEH   LINE      CODE     ---       #722
      01001604H   LINE      CODE     ---       #723
      01001604H   LINE      CODE     ---       #729
      01001612H   LINE      CODE     ---       #730
      01001618H   LINE      CODE     ---       #732
      01001620H   LINE      CODE     ---       #733
      01001620H   LINE      CODE     ---       #735
      01001620H   LINE      CODE     ---       #736
      01001625H   LINE      CODE     ---       #738
      01001634H   LINE      CODE     ---       #739
      01001639H   LINE      CODE     ---       #741
      0100163FH   LINE      CODE     ---       #742
LX51 LINKER/LOCATER V4.66.100.0                                                       04/25/2024  14:24:29  PAGE 59


      01001643H   LINE      CODE     ---       #744
      01001648H   LINE      CODE     ---       #745
      01001648H   LINE      CODE     ---       #752
      01001653H   LINE      CODE     ---       #753
      01001653H   LINE      CODE     ---       #754
      01001657H   LINE      CODE     ---       #755
      0100165FH   LINE      CODE     ---       #756
      0100165FH   LINE      CODE     ---       #757
      0100165FH   LINE      CODE     ---       #759
      0100166EH   LINE      CODE     ---       #760
      0100166EH   LINE      CODE     ---       #761
      01001674H   LINE      CODE     ---       #762
      01001682H   LINE      CODE     ---       #763
      01001686H   LINE      CODE     ---       #764
      01001686H   LINE      CODE     ---       #766
      0100168DH   LINE      CODE     ---       #767
      01001694H   LINE      CODE     ---       #771
      01001694H   LINE      CODE     ---       #772
      010016A4H   LINE      CODE     ---       #774
      010016A9H   LINE      CODE     ---       #776
      010016ADH   LINE      CODE     ---       #778
      010016B1H   LINE      CODE     ---       #781
      010016BAH   LINE      CODE     ---       #782
      010016BAH   LINE      CODE     ---       #783
      010016C0H   LINE      CODE     ---       #784
      010016C5H   LINE      CODE     ---       #785
      010016CBH   LINE      CODE     ---       #786
      010016CDH   LINE      CODE     ---       #787
      010016DCH   LINE      CODE     ---       #788
      010016E1H   LINE      CODE     ---       #791
      010016E9H   LINE      CODE     ---       #792
      010016E9H   LINE      CODE     ---       #793
      010016F0H   LINE      CODE     ---       #794
      010016F6H   LINE      CODE     ---       #795
      010016F8H   LINE      CODE     ---       #796
      010016FBH   LINE      CODE     ---       #797
      010016FBH   LINE      CODE     ---       #798
      010016FFH   LINE      CODE     ---       #799
      010016FFH   LINE      CODE     ---       #800
      010016FFH   LINE      CODE     ---       #802
      01001706H   LINE      CODE     ---       #803
      01001706H   LINE      CODE     ---       #804
      01001708H   LINE      CODE     ---       #805
      0100170DH   LINE      CODE     ---       #806
      01001711H   LINE      CODE     ---       #807
      01001711H   LINE      CODE     ---       #809
      01001718H   LINE      CODE     ---       #810
      01001718H   LINE      CODE     ---       #811
      0100171AH   LINE      CODE     ---       #812
      0100171FH   LINE      CODE     ---       #813
      0100171FH   LINE      CODE     ---       #815
      01001726H   LINE      CODE     ---       #816
      01001726H   LINE      CODE     ---       #817
      01001728H   LINE      CODE     ---       #818
      0100172DH   LINE      CODE     ---       #819
      0100172DH   LINE      CODE     ---       #829
      01001734H   LINE      CODE     ---       #830
      0100173AH   LINE      CODE     ---       #833
      01001740H   LINE      CODE     ---       #834
      01001744H   LINE      CODE     ---       #839
      0100174AH   LINE      CODE     ---       #840
      0100174AH   LINE      CODE     ---       #842
      0100174DH   LINE      CODE     ---       #844
      01001755H   LINE      CODE     ---       #845
      0100175AH   LINE      CODE     ---       #848
LX51 LINKER/LOCATER V4.66.100.0                                                       04/25/2024  14:24:29  PAGE 60


      0100175CH   LINE      CODE     ---       #851
      0100175CH   LINE      CODE     ---       #852
      01001761H   LINE      CODE     ---       #855
      01001765H   LINE      CODE     ---       #856
      0100176BH   LINE      CODE     ---       #857
      0100176FH   LINE      CODE     ---       #859
      01001772H   LINE      CODE     ---       #862
      01001775H   LINE      CODE     ---       #863
      01001778H   LINE      CODE     ---       #864
      0100177BH   LINE      CODE     ---       #865
      0100177EH   LINE      CODE     ---       #866
      01001781H   LINE      CODE     ---       #868
      01001787H   LINE      CODE     ---       #869
      0100178DH   LINE      CODE     ---       #870
      01001793H   LINE      CODE     ---       #871
      01001799H   LINE      CODE     ---       #873
      0100179CH   LINE      CODE     ---       #875
      010017A4H   LINE      CODE     ---       #876
      010017ABH   LINE      CODE     ---       #878
      010017B1H   LINE      CODE     ---       #879
      010017B1H   LINE      CODE     ---       #881
      010017B8H   LINE      CODE     ---       #882
      010017C9H   LINE      CODE     ---       #884
      010017CFH   LINE      CODE     ---       #890
      010017DDH   LINE      CODE     ---       #891
      010017DDH   LINE      CODE     ---       #892
      010017E4H   LINE      CODE     ---       #893
      010017E9H   LINE      CODE     ---       #894
      010017E9H   LINE      CODE     ---       #897
      010017F8H   LINE      CODE     ---       #898
      01001803H   LINE      CODE     ---       #899
      0100180EH   LINE      CODE     ---       #900
      01001846H   LINE      CODE     ---       #901
      01001854H   LINE      CODE     ---       #902
      0100185FH   LINE      CODE     ---       #904
      01001868H   LINE      CODE     ---       #907
      0100187BH   LINE      CODE     ---       #910
      0100188AH   LINE      CODE     ---       #911
      010018BCH   LINE      CODE     ---       #914
      010018C9H   LINE      CODE     ---       #917
      010018E0H   LINE      CODE     ---       #918
      010018EAH   LINE      CODE     ---       #924
      ---         BLOCKEND  ---      ---       LVL=0

      ---         MODULE    ---      ---       USERDRYER
      02000290H   PUBLIC    XDATA    BYTE      HeatDutyL
      0200028FH   PUBLIC    XDATA    BYTE      HeatDutyH
      0200028EH   PUBLIC    XDATA    BYTE      WindTemperDelta
      00000021H.2 PUBLIC    BIT      BIT       LedSpd3
      00000021H.1 PUBLIC    BIT      BIT       LedSpd2
      0200028DH   PUBLIC    XDATA    BYTE      PwrOnStage
      00000021H.0 PUBLIC    BIT      BIT       LedSpd1
      000000B9H   PUBLIC    IDATA    BYTE      ThryristTrigKeepCnt2
      000000B8H   PUBLIC    IDATA    BYTE      CoolCmdLv
      000000B6H   PUBLIC    IDATA    WORD      HeatTemperADCVal
      000000B4H   PUBLIC    IDATA    WORD      ReverseCleanX10ms
      000000B3H   PUBLIC    IDATA    BYTE      KeyOnLockLvPre
      00000020H.7 PUBLIC    BIT      BIT       ReverseCleanTrig
      000000B2H   PUBLIC    IDATA    BYTE      HeatCmdLv
      00000020H.6 PUBLIC    BIT      BIT       ReverseCleanCmd
      0200028CH   PUBLIC    XDATA    BYTE      HeatDutyMax
      000000B0H   PUBLIC    IDATA    WORD      LedAltX10ms
      000000AFH   PUBLIC    IDATA    BYTE      KeySpeedActX10ms
      000000AEH   PUBLIC    IDATA    BYTE      CoolShiftLv
      000000ACH   PUBLIC    IDATA    INT       HeatTemperCelsius
LX51 LINKER/LOCATER V4.66.100.0                                                       04/25/2024  14:24:29  PAGE 61


      000000ABH   PUBLIC    IDATA    BYTE      KeyOnLockSmpNew
      000000A9H   PUBLIC    IDATA    INT       HeatAdcValRef
      0200028BH   PUBLIC    XDATA    BYTE      PowerVoltDownBase
      0200028AH   PUBLIC    XDATA    BYTE      HeatDutyAlt
      00000020H.5 PUBLIC    BIT      BIT       LedHeat3
      000000A8H   PUBLIC    IDATA    BYTE      SpeedCmdLv
      00000020H.4 PUBLIC    BIT      BIT       LedHeat2
      00000020H.3 PUBLIC    BIT      BIT       LedHeat1
      02000289H   PUBLIC    XDATA    BYTE      PowerVoltRiseBase
      00000020H.2 PUBLIC    BIT      BIT       Heat_wire_L
      000000A7H   PUBLIC    IDATA    BYTE      KeyOnLockSmpOld
      00000020H.1 PUBLIC    BIT      BIT       Heat_wire_H
      000000A6H   PUBLIC    IDATA    BYTE      HeatDutyOnCnt2
      02000288H   PUBLIC    XDATA    BYTE      HeatRegulTmr
      02000287H   PUBLIC    XDATA    ---       KeyCool
      02000286H   PUBLIC    XDATA    BYTE      HeatDisableFlag
      000000A5H   PUBLIC    IDATA    BYTE      KeyOnLockLv
      000000A4H   PUBLIC    IDATA    BYTE      ThryristTrigKeepCnt
      02000285H   PUBLIC    XDATA    ---       KeyHeat
      000000A3H   PUBLIC    IDATA    BYTE      ACCrossForThryrist
      02000284H   PUBLIC    XDATA    BYTE      KeyPro1msTmr
      000000A2H   PUBLIC    IDATA    BYTE      HeatShiftStep
      000000A1H   PUBLIC    IDATA    CHAR      WindTemperRef
      000000A0H   PUBLIC    IDATA    BYTE      KeyOnLockKeepCnt
      02000283H   PUBLIC    XDATA    BYTE      LedAlarmFlashCnt
      02000282H   PUBLIC    XDATA    ---       KeySpeed
      0000009FH   PUBLIC    IDATA    BYTE      RePowerRunTrig
      0000009DH   PUBLIC    IDATA    WORD      HeatLv4X10ms
      0000009CH   PUBLIC    IDATA    BYTE      SpeedShiftStep
      0000009BH   PUBLIC    IDATA    BYTE      HeatDutyPeriod
      0000009AH   PUBLIC    IDATA    BYTE      HeatDutyOnCnt
      00000020H.0 PUBLIC    BIT      BIT       WindTemperHigh
      02000281H   PUBLIC    XDATA    ---       KeyOnOff
      02000280H   PUBLIC    XDATA    BYTE      HeatDutyAltTop
      010009BFH   PUBLIC    CODE     ---       DryerPer1ms
      0100387EH   PUBLIC    CODE     ---       DryerKeysDefault
      010038A2H   PUBLIC    CODE     ---       CalCoolLvToCmd
      010037B5H   PUBLIC    CODE     ---       CalHeatStepToCmd
      0100372BH   PUBLIC    CODE     ---       CalSpeedStepToCmd
      000000B0H.4 SFRSYM    DATA     BIT       GP34
      000000A0H.5 SFRSYM    DATA     BIT       GP25
      00000090H.6 SFRSYM    DATA     BIT       GP16
      00000080H.7 SFRSYM    DATA     BIT       GP07
      000000CDH   SFRSYM    DATA     BYTE      MDU_DB1
      000000C6H   SFRSYM    DATA     BYTE      MDU_DA2
      00000088H.1 SFRSYM    DATA     BIT       IT01
      00000088H.3 SFRSYM    DATA     BIT       IT10
      000000B0H.5 SFRSYM    DATA     BIT       GP35
      000000A0H.6 SFRSYM    DATA     BIT       GP26
      00000090H.7 SFRSYM    DATA     BIT       GP17
      00000080H   SFRSYM    DATA     BYTE      P0
      000000F6H   SFRSYM    DATA     WORD      PI_UKMIN
      000000C7H   SFRSYM    DATA     BYTE      MDU_DA3
      00000088H.4 SFRSYM    DATA     BIT       IT11
      000000C9H   SFRSYM    DATA     BYTE      RST_SR
      000000D9H   SFRSYM    DATA     BYTE      EVT_FILT
      000000B0H.6 SFRSYM    DATA     BIT       GP36
      000000A0H.7 SFRSYM    DATA     BIT       GP27
      00000090H   SFRSYM    DATA     BYTE      P1
      000000B0H.7 SFRSYM    DATA     BIT       GP37
      000000A0H   SFRSYM    DATA     BYTE      P2
      000000F4H   SFRSYM    DATA     WORD      PI_UKMAX
      000000B0H   SFRSYM    DATA     BYTE      P3
      000000E8H   SFRSYM    DATA     BYTE      P4
      000000D0H.6 SFRSYM    DATA     BIT       AC
LX51 LINKER/LOCATER V4.66.100.0                                                       04/25/2024  14:24:29  PAGE 62


      000000A8H.7 SFRSYM    DATA     BIT       EA
      000000D5H   SFRSYM    DATA     BYTE      CMP_CR0
      000000D6H   SFRSYM    DATA     BYTE      CMP_CR1
      000000DAH   SFRSYM    DATA     BYTE      CMP_CR2
      000000B8H.2 SFRSYM    DATA     BIT       PX00
      000000DCH   SFRSYM    DATA     BYTE      CMP_CR3
      000000F8H.0 SFRSYM    DATA     BIT       OISUH
      000000EAH   SFRSYM    DATA     WORD      PI_EK
      000000B8H.3 SFRSYM    DATA     BIT       PX01
      000000B8H.4 SFRSYM    DATA     BIT       PX10
      000000F8H.2 SFRSYM    DATA     BIT       OISVH
      000000B8H.5 SFRSYM    DATA     BIT       PX11
      000000F8H.1 SFRSYM    DATA     BIT       OISUL
      000000DDH   SFRSYM    DATA     BYTE      LPF_K
      000000F2H   SFRSYM    DATA     WORD      PI_KI
      000000A8H   SFRSYM    DATA     BYTE      IE
      000000F8H.3 SFRSYM    DATA     BIT       OISVL
      000000EEH   SFRSYM    DATA     WORD      PI_KP
      000000AAH   SFRSYM    DATA     WORD      TIM2__CNTR
      000000A2H   SFRSYM    DATA     WORD      TIM3__CNTR
      00000092H   SFRSYM    DATA     WORD      TIM4__CNTR
      000000ECH   SFRSYM    DATA     WORD      PI_UK
      000000DEH   SFRSYM    DATA     WORD      LPF_X
      00000098H.0 SFRSYM    DATA     BIT       RI
      00000098H.6 SFRSYM    DATA     BIT       UT_MOD0
      000000E6H   SFRSYM    DATA     WORD      LPF_Y
      00000098H.7 SFRSYM    DATA     BIT       UT_MOD1
      000000D0H.7 SFRSYM    DATA     BIT       CY
      00000098H.1 SFRSYM    DATA     BIT       TI
      000000C0H.2 SFRSYM    DATA     BIT       PTIM10
      00000084H   SFRSYM    DATA     BYTE      FLA_KEY
      000000C0H.0 SFRSYM    DATA     BIT       PTIM20
      000000C0H.3 SFRSYM    DATA     BIT       PTIM11
      00000098H   SFRSYM    DATA     BYTE      UT_CR
      000000C8H.2 SFRSYM    DATA     BIT       PTIM30
      000000C0H.1 SFRSYM    DATA     BIT       PTIM21
      00000099H   SFRSYM    DATA     BYTE      UT_DR
      000000C8H.3 SFRSYM    DATA     BIT       PTIM31
      000000D0H.2 SFRSYM    DATA     BIT       OV
      0000009AH   SFRSYM    DATA     WORD      UT_BAUD
      000000C4H   SFRSYM    DATA     WORD      MDU_DA01
      000000CCH   SFRSYM    DATA     WORD      MDU_DB01
      00000087H   SFRSYM    DATA     BYTE      PCON
      000000C6H   SFRSYM    DATA     WORD      MDU_DA23
      00000088H   SFRSYM    DATA     BYTE      TCON
      00000082H   SFRSYM    DATA     WORD      DPTR
      000000D8H.0 SFRSYM    DATA     BIT       PUART0
      000000D8H.1 SFRSYM    DATA     BIT       PUART1
      000000D8H.2 SFRSYM    DATA     BIT       PI2C0
      00000088H.2 SFRSYM    DATA     BIT       IF0
      000000D8H.3 SFRSYM    DATA     BIT       PI2C1
      000000AEH   SFRSYM    DATA     WORD      TIM2__ARR
      000000A1H   SFRSYM    DATA     BYTE      TIM2_CR0
      000000A6H   SFRSYM    DATA     WORD      TIM3__ARR
      0000009CH   SFRSYM    DATA     BYTE      TIM3_CR0
      000000A9H   SFRSYM    DATA     BYTE      TIM2_CR1
      00000096H   SFRSYM    DATA     WORD      TIM4__ARR
      0000009EH   SFRSYM    DATA     BYTE      TIM4_CR0
      0000009DH   SFRSYM    DATA     BYTE      TIM3_CR1
      000000F8H   SFRSYM    DATA     BYTE      DRV_OUT
      0000009FH   SFRSYM    DATA     BYTE      TIM4_CR1
      000000DBH   SFRSYM    DATA     BYTE      LVSR
      000000A8H.4 SFRSYM    DATA     BIT       ES0
      00000085H   SFRSYM    DATA     BYTE      FLA_CR
      000000C0H.4 SFRSYM    DATA     BIT       PADC0
LX51 LINKER/LOCATER V4.66.100.0                                                       04/25/2024  14:24:29  PAGE 63


      000000B8H   SFRSYM    DATA     BYTE      IP0
      000000C0H.5 SFRSYM    DATA     BIT       PADC1
      000000C0H   SFRSYM    DATA     BYTE      IP1
      000000C8H   SFRSYM    DATA     BYTE      IP2
      00000098H.2 SFRSYM    DATA     BIT       RB8
      000000D8H   SFRSYM    DATA     BYTE      IP3
      000000A8H.0 SFRSYM    DATA     BIT       EX0
      00000098H.3 SFRSYM    DATA     BIT       TB8
      000000A8H.2 SFRSYM    DATA     BIT       EX1
      000000D0H.0 SFRSYM    DATA     BIT       P
      000000F9H   SFRSYM    DATA     BYTE      PI_LPF_CR
      00000098H.5 SFRSYM    DATA     BIT       SM2
      000000D8H.6 SFRSYM    DATA     BIT       PDMA0
      000000D8H.7 SFRSYM    DATA     BIT       PDMA1
      000000C2H   SFRSYM    DATA     WORD      MDU_MA
      000000D0H.3 SFRSYM    DATA     BIT       RS0
      000000CAH   SFRSYM    DATA     WORD      MDU_MB
      000000D0H.4 SFRSYM    DATA     BIT       RS1
      000000C1H   SFRSYM    DATA     BYTE      MDU_CR
      000000F8H.7 SFRSYM    DATA     BIT       MOE
      000000C0H.6 SFRSYM    DATA     BIT       PCMP0
      000000C0H.7 SFRSYM    DATA     BIT       PCMP1
      000000F8H.4 SFRSYM    DATA     BIT       OISWXH
      00000098H.4 SFRSYM    DATA     BIT       REN
      000000D7H   SFRSYM    DATA     BYTE      CMP_SR
      000000F8H.5 SFRSYM    DATA     BIT       OISWXL
      000000C8H.6 SFRSYM    DATA     BIT       PTSD0
      000000D8H.4 SFRSYM    DATA     BIT       PSPI0
      000000C8H.7 SFRSYM    DATA     BIT       PTSD1
      000000B8H.6 SFRSYM    DATA     BIT       PDRV0
      000000D8H.5 SFRSYM    DATA     BIT       PSPI1
      000000B8H.7 SFRSYM    DATA     BIT       PDRV1
      000000D1H   SFRSYM    DATA     BYTE      P1_IE
      000000D3H   SFRSYM    DATA     BYTE      P2_IE
      000000D2H   SFRSYM    DATA     BYTE      P1_IF
      000000D4H   SFRSYM    DATA     BYTE      P2_IF
      000000ACH   SFRSYM    DATA     WORD      TIM2__DR
      000000C8H.4 SFRSYM    DATA     BIT       PTIM4S0
      000000FCH   SFRSYM    DATA     BYTE      P0_OE
      000000A4H   SFRSYM    DATA     WORD      TIM3__DR
      000000C8H.5 SFRSYM    DATA     BIT       PTIM4S1
      000000FDH   SFRSYM    DATA     BYTE      P1_OE
      00000094H   SFRSYM    DATA     WORD      TIM4__DR
      000000D0H.5 SFRSYM    DATA     BIT       F0
      000000FEH   SFRSYM    DATA     BYTE      P2_OE
      000000D0H.1 SFRSYM    DATA     BIT       F1
      000000FFH   SFRSYM    DATA     BYTE      P3_OE
      00000080H.0 SFRSYM    DATA     BIT       GP00
      000000E9H   SFRSYM    DATA     BYTE      P4_OE
      00000090H.0 SFRSYM    DATA     BIT       GP10
      00000080H.1 SFRSYM    DATA     BIT       GP01
      000000A0H.0 SFRSYM    DATA     BIT       GP20
      00000090H.1 SFRSYM    DATA     BIT       GP11
      00000080H.2 SFRSYM    DATA     BIT       GP02
      000000B0H.0 SFRSYM    DATA     BIT       GP30
      000000A0H.1 SFRSYM    DATA     BIT       GP21
      00000090H.2 SFRSYM    DATA     BIT       GP12
      00000080H.3 SFRSYM    DATA     BIT       GP03
      000000B8H.0 SFRSYM    DATA     BIT       PLVW0
      000000A8H.1 SFRSYM    DATA     BIT       TSDIE
      000000D0H   SFRSYM    DATA     BYTE      PSW
      000000E8H.0 SFRSYM    DATA     BIT       GP40
      000000B0H.1 SFRSYM    DATA     BIT       GP31
      000000A0H.2 SFRSYM    DATA     BIT       GP22
      00000090H.3 SFRSYM    DATA     BIT       GP13
LX51 LINKER/LOCATER V4.66.100.0                                                       04/25/2024  14:24:29  PAGE 64


      00000080H.4 SFRSYM    DATA     BIT       GP04
      000000B8H.1 SFRSYM    DATA     BIT       PLVW1
      000000A8H.3 SFRSYM    DATA     BIT       SPIIE
      00000088H.5 SFRSYM    DATA     BIT       TSDIF
      000000E8H.1 SFRSYM    DATA     BIT       GP41
      000000B0H.2 SFRSYM    DATA     BIT       GP32
      000000A0H.3 SFRSYM    DATA     BIT       GP23
      00000090H.4 SFRSYM    DATA     BIT       GP14
      00000080H.5 SFRSYM    DATA     BIT       GP05
      000000C4H   SFRSYM    DATA     BYTE      MDU_DA0
      000000E8H.2 SFRSYM    DATA     BIT       GP42
      000000B0H.3 SFRSYM    DATA     BIT       GP33
      000000A0H.4 SFRSYM    DATA     BIT       GP24
      00000090H.5 SFRSYM    DATA     BIT       GP15
      00000080H.6 SFRSYM    DATA     BIT       GP06
      000000CCH   SFRSYM    DATA     BYTE      MDU_DB0
      000000C5H   SFRSYM    DATA     BYTE      MDU_DA1
      00000088H.0 SFRSYM    DATA     BIT       IT00

      0100372BH   BLOCK     CODE     ---       LVL=0
      0100372BH   LINE      CODE     ---       #245
      0100372BH   LINE      CODE     ---       #246
      0100372BH   LINE      CODE     ---       #250
      01003736H   LINE      CODE     ---       #251
      0100373AH   LINE      CODE     ---       #253
      01003743H   LINE      CODE     ---       #254
      01003748H   LINE      CODE     ---       #256
      0100374FH   LINE      CODE     ---       #257
      ---         BLOCKEND  ---      ---       LVL=0

      010037B5H   BLOCK     CODE     ---       LVL=0
      010037B5H   LINE      CODE     ---       #260
      010037B5H   LINE      CODE     ---       #261
      010037B5H   LINE      CODE     ---       #266
      010037BDH   LINE      CODE     ---       #267
      010037BFH   LINE      CODE     ---       #273
      010037C8H   LINE      CODE     ---       #274
      010037CDH   LINE      CODE     ---       #276
      010037D4H   LINE      CODE     ---       #277
      ---         BLOCKEND  ---      ---       LVL=0

      010038A2H   BLOCK     CODE     ---       LVL=0
      010038A2H   LINE      CODE     ---       #280
      010038A2H   LINE      CODE     ---       #281
      010038A2H   LINE      CODE     ---       #282
      010038A8H   LINE      CODE     ---       #283
      ---         BLOCKEND  ---      ---       LVL=0

      0100387EH   BLOCK     CODE     ---       LVL=0
      0100387EH   LINE      CODE     ---       #286
      0100387EH   LINE      CODE     ---       #287
      0100387EH   LINE      CODE     ---       #288
      01003882H   LINE      CODE     ---       #289
      01003886H   LINE      CODE     ---       #290
      0100388AH   LINE      CODE     ---       #291
      ---         BLOCKEND  ---      ---       LVL=0

      010009BFH   BLOCK     CODE     ---       LVL=0
      010009BFH   LINE      CODE     ---       #306
      010009BFH   LINE      CODE     ---       #307
      010009BFH   LINE      CODE     ---       #309
      010009C7H   LINE      CODE     ---       #312
      010009CBH   LINE      CODE     ---       #313
      010009CBH   LINE      CODE     ---       #319
      010009CFH   LINE      CODE     ---       #323
LX51 LINKER/LOCATER V4.66.100.0                                                       04/25/2024  14:24:29  PAGE 65


      010009D5H   LINE      CODE     ---       #324
      010009D5H   LINE      CODE     ---       #325
      010009DDH   LINE      CODE     ---       #326
      010009DDH   LINE      CODE     ---       #327
      010009E3H   LINE      CODE     ---       #328
      010009E7H   LINE      CODE     ---       #329
      010009E7H   LINE      CODE     ---       #331
      010009EBH   LINE      CODE     ---       #332
      010009EBH   LINE      CODE     ---       #334
      010009F4H   LINE      CODE     ---       #335
      010009FAH   LINE      CODE     ---       #337
      010009FDH   LINE      CODE     ---       #338
      01000A09H   LINE      CODE     ---       #339
      01000A09H   LINE      CODE     ---       #341
      01000A09H   LINE      CODE     ---       #342
      01000A1AH   LINE      CODE     ---       #344
      01000A27H   LINE      CODE     ---       #345
      01000A36H   LINE      CODE     ---       #347
      01000A46H   LINE      CODE     ---       #349
      01000A58H   LINE      CODE     ---       #350
      01000A65H   LINE      CODE     ---       #351
      01000A74H   LINE      CODE     ---       #353
      01000A84H   LINE      CODE     ---       #355
      01000A96H   LINE      CODE     ---       #356
      01000AA3H   LINE      CODE     ---       #357
      01000AB2H   LINE      CODE     ---       #359
      01000AC2H   LINE      CODE     ---       #362
      01000AC9H   LINE      CODE     ---       #363
      01000ACCH   LINE      CODE     ---       #364
      01000AD9H   LINE      CODE     ---       #365
      01000AE6H   LINE      CODE     ---       #367
      01000AF5H   LINE      CODE     ---       #368
      01000AF5H   LINE      CODE     ---       #369
      01000AFAH   LINE      CODE     ---       #370
      01000AFFH   LINE      CODE     ---       #372
      01000B06H   LINE      CODE     ---       #373
      01000B06H   LINE      CODE     ---       #376
      01000B0DH   LINE      CODE     ---       #377
      01000B10H   LINE      CODE     ---       #378
      01000B1DH   LINE      CODE     ---       #379
      01000B2AH   LINE      CODE     ---       #381
      01000B39H   LINE      CODE     ---       #382
      01000B39H   LINE      CODE     ---       #383
      01000B3EH   LINE      CODE     ---       #384
      01000B43H   LINE      CODE     ---       #386
      01000B4AH   LINE      CODE     ---       #387
      01000B4AH   LINE      CODE     ---       #390
      01000B51H   LINE      CODE     ---       #391
      01000B54H   LINE      CODE     ---       #392
      01000B61H   LINE      CODE     ---       #394
      01000B6EH   LINE      CODE     ---       #396
      01000B7DH   LINE      CODE     ---       #397
      01000B7DH   LINE      CODE     ---       #398
      01000B82H   LINE      CODE     ---       #399
      01000B87H   LINE      CODE     ---       #401
      01000B8EH   LINE      CODE     ---       #402
      01000B8EH   LINE      CODE     ---       #405
      01000B95H   LINE      CODE     ---       #406
      01000B95H   LINE      CODE     ---       #407
      01000B9CH   LINE      CODE     ---       #408
      01000BA1H   LINE      CODE     ---       #409
      01000BACH   LINE      CODE     ---       #410
      01000BAEH   LINE      CODE     ---       #411
      01000BB1H   LINE      CODE     ---       #413
      01000BB5H   LINE      CODE     ---       #415
LX51 LINKER/LOCATER V4.66.100.0                                                       04/25/2024  14:24:29  PAGE 66


      01000BB5H   LINE      CODE     ---       #416
      01000BB8H   LINE      CODE     ---       #417
      01000BBDH   LINE      CODE     ---       #418
      01000BBDH   LINE      CODE     ---       #419
      01000BC8H   LINE      CODE     ---       #420
      01000BC8H   LINE      CODE     ---       #423
      01000BCDH   LINE      CODE     ---       #424
      01000BCDH   LINE      CODE     ---       #427
      01000BD5H   LINE      CODE     ---       #428
      01000BD5H   LINE      CODE     ---       #429
      01000BD8H   LINE      CODE     ---       #431
      01000BDBH   LINE      CODE     ---       #432
      01000BDEH   LINE      CODE     ---       #434
      01000BDEH   LINE      CODE     ---       #439
      01000BE5H   LINE      CODE     ---       #440
      01000BEFH   LINE      CODE     ---       #442
      01000BF6H   LINE      CODE     ---       #444
      01000BF6H   LINE      CODE     ---       #446
      01000C00H   LINE      CODE     ---       #447
      01000C00H   LINE      CODE     ---       #449
      01000C08H   LINE      CODE     ---       #450
      01000C08H   LINE      CODE     ---       #451
      01000C0BH   LINE      CODE     ---       #453
      01000C0EH   LINE      CODE     ---       #454
      01000C11H   LINE      CODE     ---       #455
      01000C11H   LINE      CODE     ---       #460
      01000C1CH   LINE      CODE     ---       #461
      01000C1CH   LINE      CODE     ---       #462
      01000C1FH   LINE      CODE     ---       #475
      01000C1FH   LINE      CODE     ---       #476
      01000C1FH   LINE      CODE     ---       #477
      01000C1FH   LINE      CODE     ---       #478
      01000C22H   LINE      CODE     ---       #479
      01000C2EH   LINE      CODE     ---       #480
      01000C2EH   LINE      CODE     ---       #483
      01000C46H   LINE      CODE     ---       #484
      01000C50H   LINE      CODE     ---       #489
      01000C53H   LINE      CODE     ---       #490
      01000C58H   LINE      CODE     ---       #510
      01000C58H   LINE      CODE     ---       #513
      01000C68H   LINE      CODE     ---       #514
      01000C75H   LINE      CODE     ---       #515
      01000C7EH   LINE      CODE     ---       #516
      01000C88H   LINE      CODE     ---       #518
      01000C97H   LINE      CODE     ---       #519
      01000C9FH   LINE      CODE     ---       #520
      01000CA8H   LINE      CODE     ---       #521
      01000CAFH   LINE      CODE     ---       #523
      01000CC8H   LINE      CODE     ---       #524
      01000CCDH   LINE      CODE     ---       #526
      01000CCDH   LINE      CODE     ---       #529
      01000CD6H   LINE      CODE     ---       #530
      01000CDCH   LINE      CODE     ---       #532
      01000CDFH   LINE      CODE     ---       #533
      01000CE7H   LINE      CODE     ---       #534
      01000CE7H   LINE      CODE     ---       #553
      01000CFDH   LINE      CODE     ---       #554
      01000CFDH   LINE      CODE     ---       #555
      01000D03H   LINE      CODE     ---       #556
      01000D08H   LINE      CODE     ---       #557
      01000D0BH   LINE      CODE     ---       #559
      01000D0BH   LINE      CODE     ---       #560
      01000D10H   LINE      CODE     ---       #562
      01000D18H   LINE      CODE     ---       #563
      01000D18H   LINE      CODE     ---       #564
LX51 LINKER/LOCATER V4.66.100.0                                                       04/25/2024  14:24:29  PAGE 67


      01000D1FH   LINE      CODE     ---       #565
      01000D1FH   LINE      CODE     ---       #566
      01000D25H   LINE      CODE     ---       #567
      01000D2BH   LINE      CODE     ---       #568
      01000D2FH   LINE      CODE     ---       #569
      01000D31H   LINE      CODE     ---       #570
      01000D35H   LINE      CODE     ---       #571
      01000D35H   LINE      CODE     ---       #572
      01000D3BH   LINE      CODE     ---       #573
      01000D41H   LINE      CODE     ---       #574
      01000D45H   LINE      CODE     ---       #575
      01000D47H   LINE      CODE     ---       #577
      01000D47H   LINE      CODE     ---       #578
      01000D4DH   LINE      CODE     ---       #579
      01000D53H   LINE      CODE     ---       #580
      01000D57H   LINE      CODE     ---       #581
      01000D57H   LINE      CODE     ---       #582
      01000D5BH   LINE      CODE     ---       #583
      01000D62H   LINE      CODE     ---       #585
      01000D65H   LINE      CODE     ---       #586
      01000D6AH   LINE      CODE     ---       #587
      01000D6AH   LINE      CODE     ---       #588
      01000D6EH   LINE      CODE     ---       #589
      01000D75H   LINE      CODE     ---       #590
      01000D7CH   LINE      CODE     ---       #591
      01000D7CH   LINE      CODE     ---       #592
      01000D82H   LINE      CODE     ---       #593
      01000D88H   LINE      CODE     ---       #594
      01000D8CH   LINE      CODE     ---       #595
      01000D90H   LINE      CODE     ---       #596
      01000D93H   LINE      CODE     ---       #597
      01000D97H   LINE      CODE     ---       #598
      01000D97H   LINE      CODE     ---       #599
      01000D9DH   LINE      CODE     ---       #600
      01000DA3H   LINE      CODE     ---       #601
      01000DA9H   LINE      CODE     ---       #602
      01000DACH   LINE      CODE     ---       #604
      01000DACH   LINE      CODE     ---       #605
      01000DB2H   LINE      CODE     ---       #606
      01000DB8H   LINE      CODE     ---       #607
      01000DBEH   LINE      CODE     ---       #608
      01000DBEH   LINE      CODE     ---       #609
      01000DC1H   LINE      CODE     ---       #610
      01000DC9H   LINE      CODE     ---       #611
      01000DC9H   LINE      CODE     ---       #612
      01000DD0H   LINE      CODE     ---       #613
      01000DD0H   LINE      CODE     ---       #614
      01000DD6H   LINE      CODE     ---       #615
      01000DDCH   LINE      CODE     ---       #616
      01000DE0H   LINE      CODE     ---       #617
      01000DE4H   LINE      CODE     ---       #618
      01000DE7H   LINE      CODE     ---       #619
      01000DEBH   LINE      CODE     ---       #620
      01000DEBH   LINE      CODE     ---       #621
      01000DF1H   LINE      CODE     ---       #622
      01000DF7H   LINE      CODE     ---       #623
      01000DFBH   LINE      CODE     ---       #624
      01000DFFH   LINE      CODE     ---       #625
      01000E06H   LINE      CODE     ---       #626
      01000E08H   LINE      CODE     ---       #628
      01000E08H   LINE      CODE     ---       #629
      01000E0EH   LINE      CODE     ---       #630
      01000E14H   LINE      CODE     ---       #631
      01000E18H   LINE      CODE     ---       #632
      01000E1CH   LINE      CODE     ---       #633
LX51 LINKER/LOCATER V4.66.100.0                                                       04/25/2024  14:24:29  PAGE 68


      01000E23H   LINE      CODE     ---       #634
      01000E23H   LINE      CODE     ---       #635
      01000E25H   LINE      CODE     ---       #636
      01000E2AH   LINE      CODE     ---       #637
      01000E2AH   LINE      CODE     ---       #638
      01000E31H   LINE      CODE     ---       #639
      01000E31H   LINE      CODE     ---       #640
      01000E37H   LINE      CODE     ---       #641
      01000E3DH   LINE      CODE     ---       #642
      01000E41H   LINE      CODE     ---       #643
      01000E45H   LINE      CODE     ---       #644
      01000E4CH   LINE      CODE     ---       #645
      01000E4EH   LINE      CODE     ---       #646
      01000E52H   LINE      CODE     ---       #647
      01000E52H   LINE      CODE     ---       #648
      01000E58H   LINE      CODE     ---       #649
      01000E5EH   LINE      CODE     ---       #650
      01000E62H   LINE      CODE     ---       #651
      01000E64H   LINE      CODE     ---       #653
      01000E64H   LINE      CODE     ---       #654
      01000E6AH   LINE      CODE     ---       #655
      01000E70H   LINE      CODE     ---       #656
      01000E74H   LINE      CODE     ---       #657
      01000E74H   LINE      CODE     ---       #658
      01000E76H   LINE      CODE     ---       #660
      01000E76H   LINE      CODE     ---       #661
      01000E7BH   LINE      CODE     ---       #662
      01000E7FH   LINE      CODE     ---       #663
      01000E85H   LINE      CODE     ---       #664
      01000E85H   LINE      CODE     ---       #665
      01000E85H   LINE      CODE     ---       #678
      01000E8CH   LINE      CODE     ---       #679
      01000E8CH   LINE      CODE     ---       #680
      01000E9AH   LINE      CODE     ---       #681
      01000E9AH   LINE      CODE     ---       #682
      01000E9CH   LINE      CODE     ---       #683
      01000EA1H   LINE      CODE     ---       #685
      01000EA1H   LINE      CODE     ---       #686
      01000EA1H   LINE      CODE     ---       #700
      01000EADH   LINE      CODE     ---       #701
      01000EB2H   LINE      CODE     ---       #708
      01000EB7H   LINE      CODE     ---       #709
      01000EB7H   LINE      CODE     ---       #730
      01000EBFH   LINE      CODE     ---       #731
      01000EC1H   LINE      CODE     ---       #733
      01000EC1H   LINE      CODE     ---       #734
      01000EC6H   LINE      CODE     ---       #735
      01000EC6H   LINE      CODE     ---       #739
      01000ED1H   LINE      CODE     ---       #740
      01000ED1H   LINE      CODE     ---       #741
      01000EE4H   LINE      CODE     ---       #742
      01000EECH   LINE      CODE     ---       #743
      01000EF8H   LINE      CODE     ---       #744
      01000EFDH   LINE      CODE     ---       #745
      01000EFFH   LINE      CODE     ---       #747
      01000F05H   LINE      CODE     ---       #754
      01000F12H   LINE      CODE     ---       #755
      01000F14H   LINE      CODE     ---       #757
      01000F17H   LINE      CODE     ---       #758
      01000F17H   LINE      CODE     ---       #759
      01000F25H   LINE      CODE     ---       #760
      01000F25H   LINE      CODE     ---       #761
      01000F32H   LINE      CODE     ---       #762
      01000F34H   LINE      CODE     ---       #764
      01000F34H   LINE      CODE     ---       #765
LX51 LINKER/LOCATER V4.66.100.0                                                       04/25/2024  14:24:29  PAGE 69


      01000F3AH   LINE      CODE     ---       #766
      01000F3AH   LINE      CODE     ---       #767
      01000F3AH   LINE      CODE     ---       #769
      01000F43H   LINE      CODE     ---       #770
      01000F46H   LINE      CODE     ---       #772
      01000F52H   LINE      CODE     ---       #773
      01000F58H   LINE      CODE     ---       #777
      01000F5AH   LINE      CODE     ---       #778
      01000F62H   LINE      CODE     ---       #779
      01000F62H   LINE      CODE     ---       #780
      01000F72H   LINE      CODE     ---       #782
      01000F7AH   LINE      CODE     ---       #783
      01000F85H   LINE      CODE     ---       #784
      01000F93H   LINE      CODE     ---       #785
      01000FA1H   LINE      CODE     ---       #786
      01000FAEH   LINE      CODE     ---       #787
      01000FBBH   LINE      CODE     ---       #789
      01000FBBH   LINE      CODE     ---       #790
      01000FBBH   LINE      CODE     ---       #796
      01000FC2H   LINE      CODE     ---       #797
      01000FC2H   LINE      CODE     ---       #798
      01000FC3H   LINE      CODE     ---       #801
      01000FCFH   LINE      CODE     ---       #802
      01000FD5H   LINE      CODE     ---       #804
      01000FD9H   LINE      CODE     ---       #806
      01000FE2H   LINE      CODE     ---       #807
      01000FE4H   LINE      CODE     ---       #809
      01000FF5H   LINE      CODE     ---       #810
      01000FFBH   LINE      CODE     ---       #812
      01000FFFH   LINE      CODE     ---       #814
      01001008H   LINE      CODE     ---       #815
      0100100AH   LINE      CODE     ---       #827
      0100100AH   LINE      CODE     ---       #855
      01001012H   LINE      CODE     ---       #856
      01001012H   LINE      CODE     ---       #859
      01001021H   LINE      CODE     ---       #860
      01001025H   LINE      CODE     ---       #862
      01001027H   LINE      CODE     ---       #863
      01001029H   LINE      CODE     ---       #865
      0100102BH   LINE      CODE     ---       #868
      01001033H   LINE      CODE     ---       #869
      01001033H   LINE      CODE     ---       #872
      01001042H   LINE      CODE     ---       #873
      01001046H   LINE      CODE     ---       #875
      01001048H   LINE      CODE     ---       #876
      0100104AH   LINE      CODE     ---       #878
      0100104CH   LINE      CODE     ---       #886
      01001052H   LINE      CODE     ---       #887
      01001052H   LINE      CODE     ---       #888
      01001058H   LINE      CODE     ---       #890
      0100106EH   LINE      CODE     ---       #891
      0100106EH   LINE      CODE     ---       #892
      01001074H   LINE      CODE     ---       #893
      01001079H   LINE      CODE     ---       #895
      0100107EH   LINE      CODE     ---       #896
      0100107EH   LINE      CODE     ---       #897
      0100107EH   LINE      CODE     ---       #898
      ---         BLOCKEND  ---      ---       LVL=0

      ---         MODULE    ---      ---       USERCALCULATE
      020001EEH   PUBLIC    XDATA    WORD      MaxSpdX10ms
      020001ECH   PUBLIC    XDATA    INT       FocIXMax_Max
      020001EAH   PUBLIC    XDATA    INT       FocIXMax
      020001E8H   PUBLIC    XDATA    WORD      VspIBusAlt
      020001E6H   PUBLIC    XDATA    WORD      UltraSpdX10ms
LX51 LINKER/LOCATER V4.66.100.0                                                       04/25/2024  14:24:29  PAGE 70


      020001E5H   PUBLIC    XDATA    BYTE      NormalSpdFiltCnt
      020001E1H   PUBLIC    XDATA    LONG      VspRPMAlt
      020001DDH   PUBLIC    XDATA    LONG      VspRPMCmd
      020001DCH   PUBLIC    XDATA    BYTE      HighSpdRestartCnt
      020001DBH   PUBLIC    XDATA    BYTE      HighSpdInhibitLv
      020001D9H   PUBLIC    XDATA    WORD      NormalSpdX10ms
      020001D7H   PUBLIC    XDATA    INT       FocIC
      020001D5H   PUBLIC    XDATA    INT       FocIB
      020001D3H   PUBLIC    XDATA    INT       FocIA
      020001D1H   PUBLIC    XDATA    WORD      HighSpdInhibitX10ms
      020001D0H   PUBLIC    XDATA    BYTE      MaxSpdFiltCnt
      020001CEH   PUBLIC    XDATA    INT       IXMaxOCCnt
      01001EE2H   PUBLIC    CODE     ---       SpeedRestriction
      01002B0CH   PUBLIC    CODE     ---       CheckHeatTemper
      01002A3BH   PUBLIC    CODE     ---       CheckTemper
      02000297H   PUBLIC    XDATA    BYTE      ?_CalTemperOffset?BYTE
      010035E1H   PUBLIC    CODE     ---       _CalTemperOffset
      010021A7H   PUBLIC    CODE     ---       CheckCurrent
      000000B0H.4 SFRSYM    DATA     BIT       GP34
      000000A0H.5 SFRSYM    DATA     BIT       GP25
      00000090H.6 SFRSYM    DATA     BIT       GP16
      00000080H.7 SFRSYM    DATA     BIT       GP07
      000000CDH   SFRSYM    DATA     BYTE      MDU_DB1
      000000C6H   SFRSYM    DATA     BYTE      MDU_DA2
      00000088H.1 SFRSYM    DATA     BIT       IT01
      00000088H.3 SFRSYM    DATA     BIT       IT10
      000000B0H.5 SFRSYM    DATA     BIT       GP35
      000000A0H.6 SFRSYM    DATA     BIT       GP26
      00000090H.7 SFRSYM    DATA     BIT       GP17
      00000080H   SFRSYM    DATA     BYTE      P0
      000000F6H   SFRSYM    DATA     WORD      PI_UKMIN
      000000C7H   SFRSYM    DATA     BYTE      MDU_DA3
      00000088H.4 SFRSYM    DATA     BIT       IT11
      000000C9H   SFRSYM    DATA     BYTE      RST_SR
      000000D9H   SFRSYM    DATA     BYTE      EVT_FILT
      000000B0H.6 SFRSYM    DATA     BIT       GP36
      000000A0H.7 SFRSYM    DATA     BIT       GP27
      00000090H   SFRSYM    DATA     BYTE      P1
      000000B0H.7 SFRSYM    DATA     BIT       GP37
      000000A0H   SFRSYM    DATA     BYTE      P2
      000000F4H   SFRSYM    DATA     WORD      PI_UKMAX
      000000B0H   SFRSYM    DATA     BYTE      P3
      000000E8H   SFRSYM    DATA     BYTE      P4
      000000D0H.6 SFRSYM    DATA     BIT       AC
      000000A8H.7 SFRSYM    DATA     BIT       EA
      000000D5H   SFRSYM    DATA     BYTE      CMP_CR0
      000000D6H   SFRSYM    DATA     BYTE      CMP_CR1
      000000DAH   SFRSYM    DATA     BYTE      CMP_CR2
      000000B8H.2 SFRSYM    DATA     BIT       PX00
      000000DCH   SFRSYM    DATA     BYTE      CMP_CR3
      000000F8H.0 SFRSYM    DATA     BIT       OISUH
      000000EAH   SFRSYM    DATA     WORD      PI_EK
      000000B8H.3 SFRSYM    DATA     BIT       PX01
      000000B8H.4 SFRSYM    DATA     BIT       PX10
      000000F8H.2 SFRSYM    DATA     BIT       OISVH
      000000B8H.5 SFRSYM    DATA     BIT       PX11
      000000F8H.1 SFRSYM    DATA     BIT       OISUL
      000000DDH   SFRSYM    DATA     BYTE      LPF_K
      000000F2H   SFRSYM    DATA     WORD      PI_KI
      000000A8H   SFRSYM    DATA     BYTE      IE
      000000F8H.3 SFRSYM    DATA     BIT       OISVL
      000000EEH   SFRSYM    DATA     WORD      PI_KP
      000000AAH   SFRSYM    DATA     WORD      TIM2__CNTR
      000000A2H   SFRSYM    DATA     WORD      TIM3__CNTR
      00000092H   SFRSYM    DATA     WORD      TIM4__CNTR
LX51 LINKER/LOCATER V4.66.100.0                                                       04/25/2024  14:24:29  PAGE 71


      000000ECH   SFRSYM    DATA     WORD      PI_UK
      000000DEH   SFRSYM    DATA     WORD      LPF_X
      00000098H.0 SFRSYM    DATA     BIT       RI
      00000098H.6 SFRSYM    DATA     BIT       UT_MOD0
      000000E6H   SFRSYM    DATA     WORD      LPF_Y
      00000098H.7 SFRSYM    DATA     BIT       UT_MOD1
      000000D0H.7 SFRSYM    DATA     BIT       CY
      00000098H.1 SFRSYM    DATA     BIT       TI
      000000C0H.2 SFRSYM    DATA     BIT       PTIM10
      00000084H   SFRSYM    DATA     BYTE      FLA_KEY
      000000C0H.0 SFRSYM    DATA     BIT       PTIM20
      000000C0H.3 SFRSYM    DATA     BIT       PTIM11
      00000098H   SFRSYM    DATA     BYTE      UT_CR
      000000C8H.2 SFRSYM    DATA     BIT       PTIM30
      000000C0H.1 SFRSYM    DATA     BIT       PTIM21
      00000099H   SFRSYM    DATA     BYTE      UT_DR
      000000C8H.3 SFRSYM    DATA     BIT       PTIM31
      000000D0H.2 SFRSYM    DATA     BIT       OV
      0000009AH   SFRSYM    DATA     WORD      UT_BAUD
      000000C4H   SFRSYM    DATA     WORD      MDU_DA01
      000000CCH   SFRSYM    DATA     WORD      MDU_DB01
      00000087H   SFRSYM    DATA     BYTE      PCON
      000000C6H   SFRSYM    DATA     WORD      MDU_DA23
      00000088H   SFRSYM    DATA     BYTE      TCON
      00000082H   SFRSYM    DATA     WORD      DPTR
      000000D8H.0 SFRSYM    DATA     BIT       PUART0
      000000D8H.1 SFRSYM    DATA     BIT       PUART1
      000000D8H.2 SFRSYM    DATA     BIT       PI2C0
      00000088H.2 SFRSYM    DATA     BIT       IF0
      000000D8H.3 SFRSYM    DATA     BIT       PI2C1
      000000AEH   SFRSYM    DATA     WORD      TIM2__ARR
      000000A1H   SFRSYM    DATA     BYTE      TIM2_CR0
      000000A6H   SFRSYM    DATA     WORD      TIM3__ARR
      0000009CH   SFRSYM    DATA     BYTE      TIM3_CR0
      000000A9H   SFRSYM    DATA     BYTE      TIM2_CR1
      00000096H   SFRSYM    DATA     WORD      TIM4__ARR
      0000009EH   SFRSYM    DATA     BYTE      TIM4_CR0
      0000009DH   SFRSYM    DATA     BYTE      TIM3_CR1
      000000F8H   SFRSYM    DATA     BYTE      DRV_OUT
      0000009FH   SFRSYM    DATA     BYTE      TIM4_CR1
      000000DBH   SFRSYM    DATA     BYTE      LVSR
      000000A8H.4 SFRSYM    DATA     BIT       ES0
      00000085H   SFRSYM    DATA     BYTE      FLA_CR
      000000C0H.4 SFRSYM    DATA     BIT       PADC0
      000000B8H   SFRSYM    DATA     BYTE      IP0
      000000C0H.5 SFRSYM    DATA     BIT       PADC1
      000000C0H   SFRSYM    DATA     BYTE      IP1
      000000C8H   SFRSYM    DATA     BYTE      IP2
      00000098H.2 SFRSYM    DATA     BIT       RB8
      000000D8H   SFRSYM    DATA     BYTE      IP3
      000000A8H.0 SFRSYM    DATA     BIT       EX0
      00000098H.3 SFRSYM    DATA     BIT       TB8
      000000A8H.2 SFRSYM    DATA     BIT       EX1
      000000D0H.0 SFRSYM    DATA     BIT       P
      000000F9H   SFRSYM    DATA     BYTE      PI_LPF_CR
      00000098H.5 SFRSYM    DATA     BIT       SM2
      000000D8H.6 SFRSYM    DATA     BIT       PDMA0
      000000D8H.7 SFRSYM    DATA     BIT       PDMA1
      000000C2H   SFRSYM    DATA     WORD      MDU_MA
      000000D0H.3 SFRSYM    DATA     BIT       RS0
      000000CAH   SFRSYM    DATA     WORD      MDU_MB
      000000D0H.4 SFRSYM    DATA     BIT       RS1
      000000C1H   SFRSYM    DATA     BYTE      MDU_CR
      000000F8H.7 SFRSYM    DATA     BIT       MOE
      000000C0H.6 SFRSYM    DATA     BIT       PCMP0
LX51 LINKER/LOCATER V4.66.100.0                                                       04/25/2024  14:24:29  PAGE 72


      000000C0H.7 SFRSYM    DATA     BIT       PCMP1
      000000F8H.4 SFRSYM    DATA     BIT       OISWXH
      00000098H.4 SFRSYM    DATA     BIT       REN
      000000D7H   SFRSYM    DATA     BYTE      CMP_SR
      000000F8H.5 SFRSYM    DATA     BIT       OISWXL
      000000C8H.6 SFRSYM    DATA     BIT       PTSD0
      000000D8H.4 SFRSYM    DATA     BIT       PSPI0
      000000C8H.7 SFRSYM    DATA     BIT       PTSD1
      000000B8H.6 SFRSYM    DATA     BIT       PDRV0
      000000D8H.5 SFRSYM    DATA     BIT       PSPI1
      000000B8H.7 SFRSYM    DATA     BIT       PDRV1
      000000D1H   SFRSYM    DATA     BYTE      P1_IE
      000000D3H   SFRSYM    DATA     BYTE      P2_IE
      000000D2H   SFRSYM    DATA     BYTE      P1_IF
      000000D4H   SFRSYM    DATA     BYTE      P2_IF
      000000ACH   SFRSYM    DATA     WORD      TIM2__DR
      000000C8H.4 SFRSYM    DATA     BIT       PTIM4S0
      000000FCH   SFRSYM    DATA     BYTE      P0_OE
      000000A4H   SFRSYM    DATA     WORD      TIM3__DR
      000000C8H.5 SFRSYM    DATA     BIT       PTIM4S1
      000000FDH   SFRSYM    DATA     BYTE      P1_OE
      00000094H   SFRSYM    DATA     WORD      TIM4__DR
      000000D0H.5 SFRSYM    DATA     BIT       F0
      000000FEH   SFRSYM    DATA     BYTE      P2_OE
      000000D0H.1 SFRSYM    DATA     BIT       F1
      000000FFH   SFRSYM    DATA     BYTE      P3_OE
      00000080H.0 SFRSYM    DATA     BIT       GP00
      000000E9H   SFRSYM    DATA     BYTE      P4_OE
      00000090H.0 SFRSYM    DATA     BIT       GP10
      00000080H.1 SFRSYM    DATA     BIT       GP01
      000000A0H.0 SFRSYM    DATA     BIT       GP20
      00000090H.1 SFRSYM    DATA     BIT       GP11
      00000080H.2 SFRSYM    DATA     BIT       GP02
      000000B0H.0 SFRSYM    DATA     BIT       GP30
      000000A0H.1 SFRSYM    DATA     BIT       GP21
      00000090H.2 SFRSYM    DATA     BIT       GP12
      00000080H.3 SFRSYM    DATA     BIT       GP03
      000000B8H.0 SFRSYM    DATA     BIT       PLVW0
      000000A8H.1 SFRSYM    DATA     BIT       TSDIE
      000000D0H   SFRSYM    DATA     BYTE      PSW
      000000E8H.0 SFRSYM    DATA     BIT       GP40
      000000B0H.1 SFRSYM    DATA     BIT       GP31
      000000A0H.2 SFRSYM    DATA     BIT       GP22
      00000090H.3 SFRSYM    DATA     BIT       GP13
      00000080H.4 SFRSYM    DATA     BIT       GP04
      000000B8H.1 SFRSYM    DATA     BIT       PLVW1
      000000A8H.3 SFRSYM    DATA     BIT       SPIIE
      00000088H.5 SFRSYM    DATA     BIT       TSDIF
      000000E8H.1 SFRSYM    DATA     BIT       GP41
      000000B0H.2 SFRSYM    DATA     BIT       GP32
      000000A0H.3 SFRSYM    DATA     BIT       GP23
      00000090H.4 SFRSYM    DATA     BIT       GP14
      00000080H.5 SFRSYM    DATA     BIT       GP05
      000000C4H   SFRSYM    DATA     BYTE      MDU_DA0
      000000E8H.2 SFRSYM    DATA     BIT       GP42
      000000B0H.3 SFRSYM    DATA     BIT       GP33
      000000A0H.4 SFRSYM    DATA     BIT       GP24
      00000090H.5 SFRSYM    DATA     BIT       GP15
      00000080H.6 SFRSYM    DATA     BIT       GP06
      000000CCH   SFRSYM    DATA     BYTE      MDU_DB0
      000000C5H   SFRSYM    DATA     BYTE      MDU_DA1
      00000088H.0 SFRSYM    DATA     BIT       IT00

      010021A7H   BLOCK     CODE     ---       LVL=0
      010021A7H   LINE      CODE     ---       #60
LX51 LINKER/LOCATER V4.66.100.0                                                       04/25/2024  14:24:29  PAGE 73


      010021A7H   LINE      CODE     ---       #61
      010021A7H   LINE      CODE     ---       #62
      010021B6H   LINE      CODE     ---       #63
      010021C5H   LINE      CODE     ---       #64
      010021E5H   LINE      CODE     ---       #66
      010021EDH   LINE      CODE     ---       #67
      010021FEH   LINE      CODE     ---       #69
      01002212H   LINE      CODE     ---       #71
      0100221AH   LINE      CODE     ---       #72
      01002223H   LINE      CODE     ---       #74
      0100222FH   LINE      CODE     ---       #76
      0100223FH   LINE      CODE     ---       #77
      01002248H   LINE      CODE     ---       #79
      01002254H   LINE      CODE     ---       #81
      01002263H   LINE      CODE     ---       #82
      01002270H   LINE      CODE     ---       #83
      01002278H   LINE      CODE     ---       #84
      0100228CH   LINE      CODE     ---       #85
      01002291H   LINE      CODE     ---       #87
      010022ACH   LINE      CODE     ---       #88
      010022B1H   LINE      CODE     ---       #91
      010022B1H   LINE      CODE     ---       #93
      010022BCH   LINE      CODE     ---       #94
      010022BCH   LINE      CODE     ---       #95
      010022CAH   LINE      CODE     ---       #96
      010022CAH   LINE      CODE     ---       #97
      010022D2H   LINE      CODE     ---       #98
      010022D2H   LINE      CODE     ---       #99
      010022D6H   LINE      CODE     ---       #100
      010022DAH   LINE      CODE     ---       #101
      010022E0H   LINE      CODE     ---       #102
      010022E3H   LINE      CODE     ---       #103
      010022E6H   LINE      CODE     ---       #104
      010022E6H   LINE      CODE     ---       #105
      010022E6H   LINE      CODE     ---       #106
      010022E7H   LINE      CODE     ---       #108
      010022E7H   LINE      CODE     ---       #109
      010022EBH   LINE      CODE     ---       #110
      010022F3H   LINE      CODE     ---       #111
      010022F3H   LINE      CODE     ---       #112
      010022F4H   LINE      CODE     ---       #113
      010022F4H   LINE      CODE     ---       #114
      010022F4H   LINE      CODE     ---       #115
      010022F4H   LINE      CODE     ---       #116
      ---         BLOCKEND  ---      ---       LVL=0

      010035E1H   BLOCK     CODE     ---       LVL=0
      02000297H   SYMBOL    XDATA    WORD      base
      00000004H   SYMBOL    DATA     WORD      val
      00000002H   SYMBOL    DATA     WORD      warm
      0200029DH   SYMBOL    XDATA    WORD      cool
      010035E1H   LINE      CODE     ---       #120
      010035E9H   LINE      CODE     ---       #121
      010035E9H   LINE      CODE     ---       #122
      01003614H   LINE      CODE     ---       #123
      ---         BLOCKEND  ---      ---       LVL=0

      01002A3BH   BLOCK     CODE     ---       LVL=0
      01002A3BH   LINE      CODE     ---       #137
      01002A3BH   LINE      CODE     ---       #138
      01002A3BH   LINE      CODE     ---       #142
      01002A4DH   LINE      CODE     ---       #143
      01002A4DH   LINE      CODE     ---       #145
      01002A55H   LINE      CODE     ---       #146
      01002A78H   LINE      CODE     ---       #148
LX51 LINKER/LOCATER V4.66.100.0                                                       04/25/2024  14:24:29  PAGE 74


      01002A87H   LINE      CODE     ---       #149
      01002AA4H   LINE      CODE     ---       #151
      01002AB3H   LINE      CODE     ---       #152
      01002AD0H   LINE      CODE     ---       #156
      01002ADFH   LINE      CODE     ---       #157
      01002AFCH   LINE      CODE     ---       #160
      01002B03H   LINE      CODE     ---       #161
      01002B04H   LINE      CODE     ---       #164
      01002B04H   LINE      CODE     ---       #165
      01002B0BH   LINE      CODE     ---       #174
      01002B0BH   LINE      CODE     ---       #175
      ---         BLOCKEND  ---      ---       LVL=0

      01002B0CH   BLOCK     CODE     ---       LVL=0
      01002B0CH   LINE      CODE     ---       #195
      01002B0CH   LINE      CODE     ---       #196
      01002B0CH   LINE      CODE     ---       #199
      01002B1EH   LINE      CODE     ---       #200
      01002B1EH   LINE      CODE     ---       #202
      01002B26H   LINE      CODE     ---       #203
      01002B49H   LINE      CODE     ---       #205
      01002B58H   LINE      CODE     ---       #206
      01002B75H   LINE      CODE     ---       #208
      01002B84H   LINE      CODE     ---       #209
      01002BA1H   LINE      CODE     ---       #213
      01002BB0H   LINE      CODE     ---       #214
      01002BCDH   LINE      CODE     ---       #217
      01002BD4H   LINE      CODE     ---       #218
      01002BD5H   LINE      CODE     ---       #221
      01002BD5H   LINE      CODE     ---       #222
      01002BDCH   LINE      CODE     ---       #231
      01002BDCH   LINE      CODE     ---       #232
      ---         BLOCKEND  ---      ---       LVL=0

      01001EE2H   BLOCK     CODE     ---       LVL=0
      01001EE2H   LINE      CODE     ---       #386
      01001EE2H   LINE      CODE     ---       #387
      01001EE2H   LINE      CODE     ---       #389
      01001EEBH   LINE      CODE     ---       #390
      01001EEBH   LINE      CODE     ---       #392
      01001EEBH   LINE      CODE     ---       #393
      01001EFBH   LINE      CODE     ---       #394
      01001EFBH   LINE      CODE     ---       #395
      01001F06H   LINE      CODE     ---       #396
      01001F06H   LINE      CODE     ---       #397
      01001F09H   LINE      CODE     ---       #398
      01001F0EH   LINE      CODE     ---       #399
      01001F14H   LINE      CODE     ---       #400
      01001F14H   LINE      CODE     ---       #402
      01001F2CH   LINE      CODE     ---       #403
      01001F2CH   LINE      CODE     ---       #404
      01001F36H   LINE      CODE     ---       #405
      01001F3BH   LINE      CODE     ---       #406
      01001F3BH   LINE      CODE     ---       #407
      01001F3EH   LINE      CODE     ---       #409
      01001F3EH   LINE      CODE     ---       #410
      01001F49H   LINE      CODE     ---       #411
      01001F49H   LINE      CODE     ---       #412
      01001F4CH   LINE      CODE     ---       #413
      01001F51H   LINE      CODE     ---       #414
      01001F57H   LINE      CODE     ---       #415
      01001F57H   LINE      CODE     ---       #417
      01001F5DH   LINE      CODE     ---       #418
      01001F5DH   LINE      CODE     ---       #419
      01001F71H   LINE      CODE     ---       #420
LX51 LINKER/LOCATER V4.66.100.0                                                       04/25/2024  14:24:29  PAGE 75


      01001F71H   LINE      CODE     ---       #421
      01001F7AH   LINE      CODE     ---       #422
      01001F80H   LINE      CODE     ---       #423
      01001F80H   LINE      CODE     ---       #424
      01001F82H   LINE      CODE     ---       #426
      01001F82H   LINE      CODE     ---       #427
      01001F97H   LINE      CODE     ---       #428
      01001F97H   LINE      CODE     ---       #429
      01001FA0H   LINE      CODE     ---       #430
      01001FA6H   LINE      CODE     ---       #431
      01001FA6H   LINE      CODE     ---       #432
      01001FA6H   LINE      CODE     ---       #434
      01001FAEH   LINE      CODE     ---       #435
      01001FAEH   LINE      CODE     ---       #436
      01001FB7H   LINE      CODE     ---       #437
      01001FB7H   LINE      CODE     ---       #438
      01001FB9H   LINE      CODE     ---       #439
      01001FBDH   LINE      CODE     ---       #440
      01001FC1H   LINE      CODE     ---       #441
      01001FC7H   LINE      CODE     ---       #442
      01001FCAH   LINE      CODE     ---       #443
      01001FCAH   LINE      CODE     ---       #444
      01001FCAH   LINE      CODE     ---       #445
      01001FCAH   LINE      CODE     ---       #446
      01001FCAH   LINE      CODE     ---       #447
      01001FCCH   LINE      CODE     ---       #448
      01001FD3H   LINE      CODE     ---       #449
      01001FD3H   LINE      CODE     ---       #450
      01001FE8H   LINE      CODE     ---       #451
      01001FE8H   LINE      CODE     ---       #452
      01001FEFH   LINE      CODE     ---       #453
      01001FF3H   LINE      CODE     ---       #454
      01001FF3H   LINE      CODE     ---       #455
      01001FF3H   LINE      CODE     ---       #464
      01002002H   LINE      CODE     ---       #465
      01002002H   LINE      CODE     ---       #466
      01002010H   LINE      CODE     ---       #467
      01002010H   LINE      CODE     ---       #468
      01002025H   LINE      CODE     ---       #469
      01002025H   LINE      CODE     ---       #470
      0100202CH   LINE      CODE     ---       #472
      01002030H   LINE      CODE     ---       #473
      01002036H   LINE      CODE     ---       #474
      01002039H   LINE      CODE     ---       #475
      0100203CH   LINE      CODE     ---       #476
      0100203CH   LINE      CODE     ---       #477
      0100203CH   LINE      CODE     ---       #478
      0100203DH   LINE      CODE     ---       #480
      01002044H   LINE      CODE     ---       #481
      ---         BLOCKEND  ---      ---       LVL=0

      ---         MODULE    ---      ---       USERSIGNAL
      020002A9H   PUBLIC    XDATA    BYTE      SparkErrCodeL
      020002A8H   PUBLIC    XDATA    BYTE      SparkErrCodeH
      020002A6H   PUBLIC    XDATA    WORD      SparkClock
      020002A4H   PUBLIC    XDATA    WORD      SparkOnPrd
      020002A3H   PUBLIC    XDATA    BYTE      SparkStepSum
      00000008H   PUBLIC    IDATA    WORD      TermTmr
      020002A2H   PUBLIC    XDATA    BYTE      SparkErrStep
      020002A1H   PUBLIC    XDATA    BYTE      SparkErrCode
      00000021H.5 PUBLIC    BIT      BIT       LightTurn
      0200029FH   PUBLIC    XDATA    WORD      SparkBlinkPrd
      000000B0H.4 SFRSYM    DATA     BIT       GP34
      000000A0H.5 SFRSYM    DATA     BIT       GP25
      00000090H.6 SFRSYM    DATA     BIT       GP16
LX51 LINKER/LOCATER V4.66.100.0                                                       04/25/2024  14:24:29  PAGE 76


      00000080H.7 SFRSYM    DATA     BIT       GP07
      000000CDH   SFRSYM    DATA     BYTE      MDU_DB1
      000000C6H   SFRSYM    DATA     BYTE      MDU_DA2
      00000088H.1 SFRSYM    DATA     BIT       IT01
      00000088H.3 SFRSYM    DATA     BIT       IT10
      000000B0H.5 SFRSYM    DATA     BIT       GP35
      000000A0H.6 SFRSYM    DATA     BIT       GP26
      00000090H.7 SFRSYM    DATA     BIT       GP17
      00000080H   SFRSYM    DATA     BYTE      P0
      000000F6H   SFRSYM    DATA     WORD      PI_UKMIN
      000000C7H   SFRSYM    DATA     BYTE      MDU_DA3
      00000088H.4 SFRSYM    DATA     BIT       IT11
      000000C9H   SFRSYM    DATA     BYTE      RST_SR
      000000D9H   SFRSYM    DATA     BYTE      EVT_FILT
      000000B0H.6 SFRSYM    DATA     BIT       GP36
      000000A0H.7 SFRSYM    DATA     BIT       GP27
      00000090H   SFRSYM    DATA     BYTE      P1
      000000B0H.7 SFRSYM    DATA     BIT       GP37
      000000A0H   SFRSYM    DATA     BYTE      P2
      000000F4H   SFRSYM    DATA     WORD      PI_UKMAX
      000000B0H   SFRSYM    DATA     BYTE      P3
      000000E8H   SFRSYM    DATA     BYTE      P4
      000000D0H.6 SFRSYM    DATA     BIT       AC
      000000A8H.7 SFRSYM    DATA     BIT       EA
      000000D5H   SFRSYM    DATA     BYTE      CMP_CR0
      000000D6H   SFRSYM    DATA     BYTE      CMP_CR1
      000000DAH   SFRSYM    DATA     BYTE      CMP_CR2
      000000B8H.2 SFRSYM    DATA     BIT       PX00
      000000DCH   SFRSYM    DATA     BYTE      CMP_CR3
      000000F8H.0 SFRSYM    DATA     BIT       OISUH
      000000EAH   SFRSYM    DATA     WORD      PI_EK
      000000B8H.3 SFRSYM    DATA     BIT       PX01
      000000B8H.4 SFRSYM    DATA     BIT       PX10
      000000F8H.2 SFRSYM    DATA     BIT       OISVH
      000000B8H.5 SFRSYM    DATA     BIT       PX11
      000000F8H.1 SFRSYM    DATA     BIT       OISUL
      000000DDH   SFRSYM    DATA     BYTE      LPF_K
      000000F2H   SFRSYM    DATA     WORD      PI_KI
      000000A8H   SFRSYM    DATA     BYTE      IE
      000000F8H.3 SFRSYM    DATA     BIT       OISVL
      000000EEH   SFRSYM    DATA     WORD      PI_KP
      000000AAH   SFRSYM    DATA     WORD      TIM2__CNTR
      000000A2H   SFRSYM    DATA     WORD      TIM3__CNTR
      00000092H   SFRSYM    DATA     WORD      TIM4__CNTR
      000000ECH   SFRSYM    DATA     WORD      PI_UK
      000000DEH   SFRSYM    DATA     WORD      LPF_X
      00000098H.0 SFRSYM    DATA     BIT       RI
      00000098H.6 SFRSYM    DATA     BIT       UT_MOD0
      000000E6H   SFRSYM    DATA     WORD      LPF_Y
      00000098H.7 SFRSYM    DATA     BIT       UT_MOD1
      000000D0H.7 SFRSYM    DATA     BIT       CY
      00000098H.1 SFRSYM    DATA     BIT       TI
      000000C0H.2 SFRSYM    DATA     BIT       PTIM10
      00000084H   SFRSYM    DATA     BYTE      FLA_KEY
      000000C0H.0 SFRSYM    DATA     BIT       PTIM20
      000000C0H.3 SFRSYM    DATA     BIT       PTIM11
      00000098H   SFRSYM    DATA     BYTE      UT_CR
      000000C8H.2 SFRSYM    DATA     BIT       PTIM30
      000000C0H.1 SFRSYM    DATA     BIT       PTIM21
      00000099H   SFRSYM    DATA     BYTE      UT_DR
      000000C8H.3 SFRSYM    DATA     BIT       PTIM31
      000000D0H.2 SFRSYM    DATA     BIT       OV
      0000009AH   SFRSYM    DATA     WORD      UT_BAUD
      000000C4H   SFRSYM    DATA     WORD      MDU_DA01
      000000CCH   SFRSYM    DATA     WORD      MDU_DB01
LX51 LINKER/LOCATER V4.66.100.0                                                       04/25/2024  14:24:29  PAGE 77


      00000087H   SFRSYM    DATA     BYTE      PCON
      000000C6H   SFRSYM    DATA     WORD      MDU_DA23
      00000088H   SFRSYM    DATA     BYTE      TCON
      00000082H   SFRSYM    DATA     WORD      DPTR
      000000D8H.0 SFRSYM    DATA     BIT       PUART0
      000000D8H.1 SFRSYM    DATA     BIT       PUART1
      000000D8H.2 SFRSYM    DATA     BIT       PI2C0
      00000088H.2 SFRSYM    DATA     BIT       IF0
      000000D8H.3 SFRSYM    DATA     BIT       PI2C1
      000000AEH   SFRSYM    DATA     WORD      TIM2__ARR
      000000A1H   SFRSYM    DATA     BYTE      TIM2_CR0
      000000A6H   SFRSYM    DATA     WORD      TIM3__ARR
      0000009CH   SFRSYM    DATA     BYTE      TIM3_CR0
      000000A9H   SFRSYM    DATA     BYTE      TIM2_CR1
      00000096H   SFRSYM    DATA     WORD      TIM4__ARR
      0000009EH   SFRSYM    DATA     BYTE      TIM4_CR0
      0000009DH   SFRSYM    DATA     BYTE      TIM3_CR1
      000000F8H   SFRSYM    DATA     BYTE      DRV_OUT
      0000009FH   SFRSYM    DATA     BYTE      TIM4_CR1
      000000DBH   SFRSYM    DATA     BYTE      LVSR
      000000A8H.4 SFRSYM    DATA     BIT       ES0
      00000085H   SFRSYM    DATA     BYTE      FLA_CR
      000000C0H.4 SFRSYM    DATA     BIT       PADC0
      000000B8H   SFRSYM    DATA     BYTE      IP0
      000000C0H.5 SFRSYM    DATA     BIT       PADC1
      000000C0H   SFRSYM    DATA     BYTE      IP1
      000000C8H   SFRSYM    DATA     BYTE      IP2
      00000098H.2 SFRSYM    DATA     BIT       RB8
      000000D8H   SFRSYM    DATA     BYTE      IP3
      000000A8H.0 SFRSYM    DATA     BIT       EX0
      00000098H.3 SFRSYM    DATA     BIT       TB8
      000000A8H.2 SFRSYM    DATA     BIT       EX1
      000000D0H.0 SFRSYM    DATA     BIT       P
      000000F9H   SFRSYM    DATA     BYTE      PI_LPF_CR
      00000098H.5 SFRSYM    DATA     BIT       SM2
      000000D8H.6 SFRSYM    DATA     BIT       PDMA0
      000000D8H.7 SFRSYM    DATA     BIT       PDMA1
      000000C2H   SFRSYM    DATA     WORD      MDU_MA
      000000D0H.3 SFRSYM    DATA     BIT       RS0
      000000CAH   SFRSYM    DATA     WORD      MDU_MB
      000000D0H.4 SFRSYM    DATA     BIT       RS1
      000000C1H   SFRSYM    DATA     BYTE      MDU_CR
      000000F8H.7 SFRSYM    DATA     BIT       MOE
      000000C0H.6 SFRSYM    DATA     BIT       PCMP0
      000000C0H.7 SFRSYM    DATA     BIT       PCMP1
      000000F8H.4 SFRSYM    DATA     BIT       OISWXH
      00000098H.4 SFRSYM    DATA     BIT       REN
      000000D7H   SFRSYM    DATA     BYTE      CMP_SR
      000000F8H.5 SFRSYM    DATA     BIT       OISWXL
      000000C8H.6 SFRSYM    DATA     BIT       PTSD0
      000000D8H.4 SFRSYM    DATA     BIT       PSPI0
      000000C8H.7 SFRSYM    DATA     BIT       PTSD1
      000000B8H.6 SFRSYM    DATA     BIT       PDRV0
      000000D8H.5 SFRSYM    DATA     BIT       PSPI1
      000000B8H.7 SFRSYM    DATA     BIT       PDRV1
      000000D1H   SFRSYM    DATA     BYTE      P1_IE
      000000D3H   SFRSYM    DATA     BYTE      P2_IE
      000000D2H   SFRSYM    DATA     BYTE      P1_IF
      000000D4H   SFRSYM    DATA     BYTE      P2_IF
      000000ACH   SFRSYM    DATA     WORD      TIM2__DR
      000000C8H.4 SFRSYM    DATA     BIT       PTIM4S0
      000000FCH   SFRSYM    DATA     BYTE      P0_OE
      000000A4H   SFRSYM    DATA     WORD      TIM3__DR
      000000C8H.5 SFRSYM    DATA     BIT       PTIM4S1
      000000FDH   SFRSYM    DATA     BYTE      P1_OE
LX51 LINKER/LOCATER V4.66.100.0                                                       04/25/2024  14:24:29  PAGE 78


      00000094H   SFRSYM    DATA     WORD      TIM4__DR
      000000D0H.5 SFRSYM    DATA     BIT       F0
      000000FEH   SFRSYM    DATA     BYTE      P2_OE
      000000D0H.1 SFRSYM    DATA     BIT       F1
      000000FFH   SFRSYM    DATA     BYTE      P3_OE
      00000080H.0 SFRSYM    DATA     BIT       GP00
      000000E9H   SFRSYM    DATA     BYTE      P4_OE
      00000090H.0 SFRSYM    DATA     BIT       GP10
      00000080H.1 SFRSYM    DATA     BIT       GP01
      000000A0H.0 SFRSYM    DATA     BIT       GP20
      00000090H.1 SFRSYM    DATA     BIT       GP11
      00000080H.2 SFRSYM    DATA     BIT       GP02
      000000B0H.0 SFRSYM    DATA     BIT       GP30
      000000A0H.1 SFRSYM    DATA     BIT       GP21
      00000090H.2 SFRSYM    DATA     BIT       GP12
      00000080H.3 SFRSYM    DATA     BIT       GP03
      000000B8H.0 SFRSYM    DATA     BIT       PLVW0
      000000A8H.1 SFRSYM    DATA     BIT       TSDIE
      000000D0H   SFRSYM    DATA     BYTE      PSW
      000000E8H.0 SFRSYM    DATA     BIT       GP40
      000000B0H.1 SFRSYM    DATA     BIT       GP31
      000000A0H.2 SFRSYM    DATA     BIT       GP22
      00000090H.3 SFRSYM    DATA     BIT       GP13
      00000080H.4 SFRSYM    DATA     BIT       GP04
      000000B8H.1 SFRSYM    DATA     BIT       PLVW1
      000000A8H.3 SFRSYM    DATA     BIT       SPIIE
      00000088H.5 SFRSYM    DATA     BIT       TSDIF
      000000E8H.1 SFRSYM    DATA     BIT       GP41
      000000B0H.2 SFRSYM    DATA     BIT       GP32
      000000A0H.3 SFRSYM    DATA     BIT       GP23
      00000090H.4 SFRSYM    DATA     BIT       GP14
      00000080H.5 SFRSYM    DATA     BIT       GP05
      000000C4H   SFRSYM    DATA     BYTE      MDU_DA0
      000000E8H.2 SFRSYM    DATA     BIT       GP42
      000000B0H.3 SFRSYM    DATA     BIT       GP33
      000000A0H.4 SFRSYM    DATA     BIT       GP24
      00000090H.5 SFRSYM    DATA     BIT       GP15
      00000080H.6 SFRSYM    DATA     BIT       GP06
      000000CCH   SFRSYM    DATA     BYTE      MDU_DB0
      000000C5H   SFRSYM    DATA     BYTE      MDU_DA1
      00000088H.0 SFRSYM    DATA     BIT       IT00

      ---         MODULE    ---      ---       USERFLASH
      020002B1H   PUBLIC    XDATA    ---       FlashReadLine
      020002B0H   PUBLIC    XDATA    BYTE      FaultOffset
      020002AFH   PUBLIC    XDATA    BYTE      FlashAddrOffset
      020002AEH   PUBLIC    XDATA    BYTE      FlashPieceNum
      020002ACH   PUBLIC    XDATA    WORD      FlashWriteTimes
      020002ABH   PUBLIC    XDATA    BYTE      FlashInitFlag
      020002AAH   PUBLIC    XDATA    BYTE      FlashSaveFlag
      01002E40H   PUBLIC    CODE     ---       FlashLoopPro
      01002669H   PUBLIC    CODE     ---       DryerFlashInit
      010031DEH   PUBLIC    CODE     ---       FlashEarseAndWrite
      010033ECH   PUBLIC    CODE     ---       FlashWriteData
      000000B0H.4 SFRSYM    DATA     BIT       GP34
      000000A0H.5 SFRSYM    DATA     BIT       GP25
      00000090H.6 SFRSYM    DATA     BIT       GP16
      00000080H.7 SFRSYM    DATA     BIT       GP07
      000000CDH   SFRSYM    DATA     BYTE      MDU_DB1
      000000C6H   SFRSYM    DATA     BYTE      MDU_DA2
      00000088H.1 SFRSYM    DATA     BIT       IT01
      00000088H.3 SFRSYM    DATA     BIT       IT10
      000000B0H.5 SFRSYM    DATA     BIT       GP35
      000000A0H.6 SFRSYM    DATA     BIT       GP26
      00000090H.7 SFRSYM    DATA     BIT       GP17
LX51 LINKER/LOCATER V4.66.100.0                                                       04/25/2024  14:24:29  PAGE 79


      00000080H   SFRSYM    DATA     BYTE      P0
      000000F6H   SFRSYM    DATA     WORD      PI_UKMIN
      000000C7H   SFRSYM    DATA     BYTE      MDU_DA3
      00000088H.4 SFRSYM    DATA     BIT       IT11
      000000C9H   SFRSYM    DATA     BYTE      RST_SR
      000000D9H   SFRSYM    DATA     BYTE      EVT_FILT
      000000B0H.6 SFRSYM    DATA     BIT       GP36
      000000A0H.7 SFRSYM    DATA     BIT       GP27
      00000090H   SFRSYM    DATA     BYTE      P1
      000000B0H.7 SFRSYM    DATA     BIT       GP37
      000000A0H   SFRSYM    DATA     BYTE      P2
      000000F4H   SFRSYM    DATA     WORD      PI_UKMAX
      000000B0H   SFRSYM    DATA     BYTE      P3
      000000E8H   SFRSYM    DATA     BYTE      P4
      000000D0H.6 SFRSYM    DATA     BIT       AC
      000000A8H.7 SFRSYM    DATA     BIT       EA
      000000D5H   SFRSYM    DATA     BYTE      CMP_CR0
      000000D6H   SFRSYM    DATA     BYTE      CMP_CR1
      000000DAH   SFRSYM    DATA     BYTE      CMP_CR2
      000000B8H.2 SFRSYM    DATA     BIT       PX00
      000000DCH   SFRSYM    DATA     BYTE      CMP_CR3
      000000F8H.0 SFRSYM    DATA     BIT       OISUH
      000000EAH   SFRSYM    DATA     WORD      PI_EK
      000000B8H.3 SFRSYM    DATA     BIT       PX01
      000000B8H.4 SFRSYM    DATA     BIT       PX10
      000000F8H.2 SFRSYM    DATA     BIT       OISVH
      000000B8H.5 SFRSYM    DATA     BIT       PX11
      000000F8H.1 SFRSYM    DATA     BIT       OISUL
      000000DDH   SFRSYM    DATA     BYTE      LPF_K
      000000F2H   SFRSYM    DATA     WORD      PI_KI
      000000A8H   SFRSYM    DATA     BYTE      IE
      000000F8H.3 SFRSYM    DATA     BIT       OISVL
      000000EEH   SFRSYM    DATA     WORD      PI_KP
      000000AAH   SFRSYM    DATA     WORD      TIM2__CNTR
      000000A2H   SFRSYM    DATA     WORD      TIM3__CNTR
      00000092H   SFRSYM    DATA     WORD      TIM4__CNTR
      000000ECH   SFRSYM    DATA     WORD      PI_UK
      000000DEH   SFRSYM    DATA     WORD      LPF_X
      00000098H.0 SFRSYM    DATA     BIT       RI
      00000098H.6 SFRSYM    DATA     BIT       UT_MOD0
      000000E6H   SFRSYM    DATA     WORD      LPF_Y
      00000098H.7 SFRSYM    DATA     BIT       UT_MOD1
      000000D0H.7 SFRSYM    DATA     BIT       CY
      00000098H.1 SFRSYM    DATA     BIT       TI
      000000C0H.2 SFRSYM    DATA     BIT       PTIM10
      00000084H   SFRSYM    DATA     BYTE      FLA_KEY
      000000C0H.0 SFRSYM    DATA     BIT       PTIM20
      000000C0H.3 SFRSYM    DATA     BIT       PTIM11
      00000098H   SFRSYM    DATA     BYTE      UT_CR
      000000C8H.2 SFRSYM    DATA     BIT       PTIM30
      000000C0H.1 SFRSYM    DATA     BIT       PTIM21
      00000099H   SFRSYM    DATA     BYTE      UT_DR
      000000C8H.3 SFRSYM    DATA     BIT       PTIM31
      000000D0H.2 SFRSYM    DATA     BIT       OV
      0000009AH   SFRSYM    DATA     WORD      UT_BAUD
      000000C4H   SFRSYM    DATA     WORD      MDU_DA01
      000000CCH   SFRSYM    DATA     WORD      MDU_DB01
      00000087H   SFRSYM    DATA     BYTE      PCON
      000000C6H   SFRSYM    DATA     WORD      MDU_DA23
      00000088H   SFRSYM    DATA     BYTE      TCON
      00000082H   SFRSYM    DATA     WORD      DPTR
      000000D8H.0 SFRSYM    DATA     BIT       PUART0
      000000D8H.1 SFRSYM    DATA     BIT       PUART1
      000000D8H.2 SFRSYM    DATA     BIT       PI2C0
      00000088H.2 SFRSYM    DATA     BIT       IF0
LX51 LINKER/LOCATER V4.66.100.0                                                       04/25/2024  14:24:29  PAGE 80


      000000D8H.3 SFRSYM    DATA     BIT       PI2C1
      000000AEH   SFRSYM    DATA     WORD      TIM2__ARR
      000000A1H   SFRSYM    DATA     BYTE      TIM2_CR0
      000000A6H   SFRSYM    DATA     WORD      TIM3__ARR
      0000009CH   SFRSYM    DATA     BYTE      TIM3_CR0
      000000A9H   SFRSYM    DATA     BYTE      TIM2_CR1
      00000096H   SFRSYM    DATA     WORD      TIM4__ARR
      0000009EH   SFRSYM    DATA     BYTE      TIM4_CR0
      0000009DH   SFRSYM    DATA     BYTE      TIM3_CR1
      000000F8H   SFRSYM    DATA     BYTE      DRV_OUT
      0000009FH   SFRSYM    DATA     BYTE      TIM4_CR1
      000000DBH   SFRSYM    DATA     BYTE      LVSR
      000000A8H.4 SFRSYM    DATA     BIT       ES0
      00000085H   SFRSYM    DATA     BYTE      FLA_CR
      000000C0H.4 SFRSYM    DATA     BIT       PADC0
      000000B8H   SFRSYM    DATA     BYTE      IP0
      000000C0H.5 SFRSYM    DATA     BIT       PADC1
      000000C0H   SFRSYM    DATA     BYTE      IP1
      000000C8H   SFRSYM    DATA     BYTE      IP2
      00000098H.2 SFRSYM    DATA     BIT       RB8
      000000D8H   SFRSYM    DATA     BYTE      IP3
      000000A8H.0 SFRSYM    DATA     BIT       EX0
      00000098H.3 SFRSYM    DATA     BIT       TB8
      000000A8H.2 SFRSYM    DATA     BIT       EX1
      000000D0H.0 SFRSYM    DATA     BIT       P
      000000F9H   SFRSYM    DATA     BYTE      PI_LPF_CR
      00000098H.5 SFRSYM    DATA     BIT       SM2
      000000D8H.6 SFRSYM    DATA     BIT       PDMA0
      000000D8H.7 SFRSYM    DATA     BIT       PDMA1
      000000C2H   SFRSYM    DATA     WORD      MDU_MA
      000000D0H.3 SFRSYM    DATA     BIT       RS0
      000000CAH   SFRSYM    DATA     WORD      MDU_MB
      000000D0H.4 SFRSYM    DATA     BIT       RS1
      000000C1H   SFRSYM    DATA     BYTE      MDU_CR
      000000F8H.7 SFRSYM    DATA     BIT       MOE
      000000C0H.6 SFRSYM    DATA     BIT       PCMP0
      000000C0H.7 SFRSYM    DATA     BIT       PCMP1
      000000F8H.4 SFRSYM    DATA     BIT       OISWXH
      00000098H.4 SFRSYM    DATA     BIT       REN
      000000D7H   SFRSYM    DATA     BYTE      CMP_SR
      000000F8H.5 SFRSYM    DATA     BIT       OISWXL
      000000C8H.6 SFRSYM    DATA     BIT       PTSD0
      000000D8H.4 SFRSYM    DATA     BIT       PSPI0
      000000C8H.7 SFRSYM    DATA     BIT       PTSD1
      000000B8H.6 SFRSYM    DATA     BIT       PDRV0
      000000D8H.5 SFRSYM    DATA     BIT       PSPI1
      000000B8H.7 SFRSYM    DATA     BIT       PDRV1
      000000D1H   SFRSYM    DATA     BYTE      P1_IE
      000000D3H   SFRSYM    DATA     BYTE      P2_IE
      000000D2H   SFRSYM    DATA     BYTE      P1_IF
      000000D4H   SFRSYM    DATA     BYTE      P2_IF
      000000ACH   SFRSYM    DATA     WORD      TIM2__DR
      000000C8H.4 SFRSYM    DATA     BIT       PTIM4S0
      000000FCH   SFRSYM    DATA     BYTE      P0_OE
      000000A4H   SFRSYM    DATA     WORD      TIM3__DR
      000000C8H.5 SFRSYM    DATA     BIT       PTIM4S1
      000000FDH   SFRSYM    DATA     BYTE      P1_OE
      00000094H   SFRSYM    DATA     WORD      TIM4__DR
      000000D0H.5 SFRSYM    DATA     BIT       F0
      000000FEH   SFRSYM    DATA     BYTE      P2_OE
      000000D0H.1 SFRSYM    DATA     BIT       F1
      000000FFH   SFRSYM    DATA     BYTE      P3_OE
      00000080H.0 SFRSYM    DATA     BIT       GP00
      000000E9H   SFRSYM    DATA     BYTE      P4_OE
      00000090H.0 SFRSYM    DATA     BIT       GP10
LX51 LINKER/LOCATER V4.66.100.0                                                       04/25/2024  14:24:29  PAGE 81


      00000080H.1 SFRSYM    DATA     BIT       GP01
      000000A0H.0 SFRSYM    DATA     BIT       GP20
      00000090H.1 SFRSYM    DATA     BIT       GP11
      00000080H.2 SFRSYM    DATA     BIT       GP02
      000000B0H.0 SFRSYM    DATA     BIT       GP30
      000000A0H.1 SFRSYM    DATA     BIT       GP21
      00000090H.2 SFRSYM    DATA     BIT       GP12
      00000080H.3 SFRSYM    DATA     BIT       GP03
      000000B8H.0 SFRSYM    DATA     BIT       PLVW0
      000000A8H.1 SFRSYM    DATA     BIT       TSDIE
      000000D0H   SFRSYM    DATA     BYTE      PSW
      000000E8H.0 SFRSYM    DATA     BIT       GP40
      000000B0H.1 SFRSYM    DATA     BIT       GP31
      000000A0H.2 SFRSYM    DATA     BIT       GP22
      00000090H.3 SFRSYM    DATA     BIT       GP13
      00000080H.4 SFRSYM    DATA     BIT       GP04
      000000B8H.1 SFRSYM    DATA     BIT       PLVW1
      000000A8H.3 SFRSYM    DATA     BIT       SPIIE
      00000088H.5 SFRSYM    DATA     BIT       TSDIF
      000000E8H.1 SFRSYM    DATA     BIT       GP41
      000000B0H.2 SFRSYM    DATA     BIT       GP32
      000000A0H.3 SFRSYM    DATA     BIT       GP23
      00000090H.4 SFRSYM    DATA     BIT       GP14
      00000080H.5 SFRSYM    DATA     BIT       GP05
      000000C4H   SFRSYM    DATA     BYTE      MDU_DA0
      000000E8H.2 SFRSYM    DATA     BIT       GP42
      000000B0H.3 SFRSYM    DATA     BIT       GP33
      000000A0H.4 SFRSYM    DATA     BIT       GP24
      00000090H.5 SFRSYM    DATA     BIT       GP15
      00000080H.6 SFRSYM    DATA     BIT       GP06
      000000CCH   SFRSYM    DATA     BYTE      MDU_DB0
      000000C5H   SFRSYM    DATA     BYTE      MDU_DA1
      00000088H.0 SFRSYM    DATA     BIT       IT00

      010033ECH   BLOCK     CODE     ---       LVL=0
      010033ECH   LINE      CODE     ---       #56
      010033ECH   LINE      CODE     ---       #57
      010033ECH   LINE      CODE     ---       #59
      010033FCH   LINE      CODE     ---       #60
      010033FDH   LINE      CODE     ---       #61
      0100340FH   LINE      CODE     ---       #62
      01003410H   LINE      CODE     ---       #63
      01003422H   LINE      CODE     ---       #64
      01003423H   LINE      CODE     ---       #65
      01003435H   LINE      CODE     ---       #66
      01003436H   LINE      CODE     ---       #67
      ---         BLOCKEND  ---      ---       LVL=0

      010031DEH   BLOCK     CODE     ---       LVL=0
      010031DEH   LINE      CODE     ---       #71
      010031DEH   LINE      CODE     ---       #72
      010031DEH   LINE      CODE     ---       #74
      010031E5H   LINE      CODE     ---       #77
      010031EEH   LINE      CODE     ---       #78
      010031F7H   LINE      CODE     ---       #81
      01003205H   LINE      CODE     ---       #82
      01003211H   LINE      CODE     ---       #85
      0100321AH   LINE      CODE     ---       #86
      01003225H   LINE      CODE     ---       #87
      01003230H   LINE      CODE     ---       #88
      0100323BH   LINE      CODE     ---       #120
      ---         BLOCKEND  ---      ---       LVL=0

      01002669H   BLOCK     CODE     ---       LVL=0
      01002669H   BLOCK     CODE     NEAR LAB  LVL=1
LX51 LINKER/LOCATER V4.66.100.0                                                       04/25/2024  14:24:29  PAGE 82


      02000297H   SYMBOL    XDATA    BYTE      i
      ---         BLOCKEND  ---      ---       LVL=1
      01002669H   LINE      CODE     ---       #123
      01002669H   LINE      CODE     ---       #124
      01002669H   LINE      CODE     ---       #127
      0100266BH   LINE      CODE     ---       #130
      01002674H   LINE      CODE     ---       #131
      01002674H   LINE      CODE     ---       #132
      01002676H   LINE      CODE     ---       #135
      01002684H   LINE      CODE     ---       #136
      010026A7H   LINE      CODE     ---       #139
      010026AFH   LINE      CODE     ---       #140
      010026AFH   LINE      CODE     ---       #141
      010026B7H   LINE      CODE     ---       #143
      010026BAH   LINE      CODE     ---       #145
      010026BDH   LINE      CODE     ---       #147
      010026C3H   LINE      CODE     ---       #148
      010026C7H   LINE      CODE     ---       #149
      010026C8H   LINE      CODE     ---       #152
      010026C8H   LINE      CODE     ---       #154
      010026CEH   LINE      CODE     ---       #155
      010026DCH   LINE      CODE     ---       #156
      010026DCH   LINE      CODE     ---       #157
      010026F1H   LINE      CODE     ---       #158
      010026F9H   LINE      CODE     ---       #159
      01002701H   LINE      CODE     ---       #162
      0100270EH   LINE      CODE     ---       #164
      01002725H   LINE      CODE     ---       #167
      01002738H   LINE      CODE     ---       #168
      01002748H   LINE      CODE     ---       #169
      01002758H   LINE      CODE     ---       #172
      0100275EH   LINE      CODE     ---       #173
      0100275EH   LINE      CODE     ---       #174
      0100276CH   LINE      CODE     ---       #176
      0100276FH   LINE      CODE     ---       #178
      01002775H   LINE      CODE     ---       #179
      01002779H   LINE      CODE     ---       #180
      0100277AH   LINE      CODE     ---       #183
      0100277AH   LINE      CODE     ---       #184
      01002780H   LINE      CODE     ---       #185
      01002785H   LINE      CODE     ---       #186
      01002785H   LINE      CODE     ---       #187
      01002785H   LINE      CODE     ---       #188
      01002785H   LINE      CODE     ---       #191
      ---         BLOCKEND  ---      ---       LVL=0

      01002E40H   BLOCK     CODE     ---       LVL=0
      01002E40H   LINE      CODE     ---       #195
      01002E40H   LINE      CODE     ---       #196
      01002E40H   LINE      CODE     ---       #198
      01002E47H   LINE      CODE     ---       #199
      01002E47H   LINE      CODE     ---       #200
      01002E4DH   LINE      CODE     ---       #201
      01002E4DH   LINE      CODE     ---       #202
      01002E53H   LINE      CODE     ---       #203
      01002E53H   LINE      CODE     ---       #204
      01002E55H   LINE      CODE     ---       #205
      01002E55H   LINE      CODE     ---       #206
      01002E55H   LINE      CODE     ---       #207
      01002E55H   LINE      CODE     ---       #210
      01002E5DH   LINE      CODE     ---       #211
      01002E5DH   LINE      CODE     ---       #212
      01002E60H   LINE      CODE     ---       #213
      01002E63H   LINE      CODE     ---       #214
      01002E63H   LINE      CODE     ---       #216
LX51 LINKER/LOCATER V4.66.100.0                                                       04/25/2024  14:24:29  PAGE 83


      01002E65H   LINE      CODE     ---       #217
      01002E6EH   LINE      CODE     ---       #218
      01002E6EH   LINE      CODE     ---       #219
      01002E7CH   LINE      CODE     ---       #221
      01002E7FH   LINE      CODE     ---       #223
      01002E85H   LINE      CODE     ---       #224
      01002E89H   LINE      CODE     ---       #225
      01002E8BH   LINE      CODE     ---       #228
      01002E8BH   LINE      CODE     ---       #229
      01002E8EH   LINE      CODE     ---       #231
      01002E94H   LINE      CODE     ---       #232
      01002E99H   LINE      CODE     ---       #233
      01002E99H   LINE      CODE     ---       #234
      01002E9BH   LINE      CODE     ---       #235
      01002E9BH   LINE      CODE     ---       #236
      01002E9BH   LINE      CODE     ---       #239
      01002EA2H   LINE      CODE     ---       #240
      01002EA2H   LINE      CODE     ---       #241
      01002EA8H   LINE      CODE     ---       #242
      01002EA8H   LINE      CODE     ---       #243
      01002EACH   LINE      CODE     ---       #244
      01002EAFH   LINE      CODE     ---       #245
      01002EAFH   LINE      CODE     ---       #246
      01002EB3H   LINE      CODE     ---       #247
      01002EB7H   LINE      CODE     ---       #249
      01002EBBH   LINE      CODE     ---       #250
      01002EBFH   LINE      CODE     ---       #252
      01002EC2H   LINE      CODE     ---       #253
      01002EC5H   LINE      CODE     ---       #254
      01002EC5H   LINE      CODE     ---       #255
      01002EC5H   LINE      CODE     ---       #256
      01002EC5H   LINE      CODE     ---       #257
      ---         BLOCKEND  ---      ---       LVL=0

      ---         MODULE    ---      ---       USERUART
      000000D1H   PUBLIC    IDATA    ---       UartTxLine
      000000CBH   PUBLIC    IDATA    ---       UartRxLine
      000000CAH   PUBLIC    IDATA    BYTE      UartTxData
      000000C9H   PUBLIC    IDATA    BYTE      UartTxFlag
      000000C8H   PUBLIC    IDATA    BYTE      UartRxData
      000000C7H   PUBLIC    IDATA    BYTE      UartRxFlag
      0200026CH   PUBLIC    XDATA    WORD      URXGoDuty
      0200026AH   PUBLIC    XDATA    WORD      UartRxIdleX1ms
      000000C6H   PUBLIC    IDATA    BYTE      UartNoRxErr
      02000268H   PUBLIC    XDATA    WORD      URXCmdPwr
      000000C5H   PUBLIC    IDATA    BYTE      UartErr
      02000264H   PUBLIC    XDATA    DWORD     URXCmdRpm
      02000260H   PUBLIC    XDATA    DWORD     URXCmdSpd
      000000C4H   PUBLIC    IDATA    BYTE      UartHeadErr
      0200025FH   PUBLIC    XDATA    BYTE      URXCmdVal
      000000C3H   PUBLIC    IDATA    BYTE      UTXSum
      000000C2H   PUBLIC    IDATA    BYTE      UartFrameErr
      000000C1H   PUBLIC    IDATA    BYTE      URXSum
      000000C0H   PUBLIC    IDATA    BYTE      UTXCnt
      000000BFH   PUBLIC    IDATA    BYTE      URXCnt
      0200025DH   PUBLIC    XDATA    WORD      UartRxInvalidX1ms
      000000BEH   PUBLIC    IDATA    BYTE      UartTimeOutErr
      000000BDH   PUBLIC    IDATA    BYTE      UartTxCnt
      000000BCH   PUBLIC    IDATA    BYTE      UartRxCnt
      0200025CH   PUBLIC    XDATA    BYTE      UTXMark
      0200025BH   PUBLIC    XDATA    BYTE      URXMark
      000000BBH   PUBLIC    IDATA    BYTE      UartTxTrig
      000000BAH   PUBLIC    IDATA    BYTE      UartSumErr
      000000B0H.4 SFRSYM    DATA     BIT       GP34
      000000A0H.5 SFRSYM    DATA     BIT       GP25
LX51 LINKER/LOCATER V4.66.100.0                                                       04/25/2024  14:24:29  PAGE 84


      00000090H.6 SFRSYM    DATA     BIT       GP16
      00000080H.7 SFRSYM    DATA     BIT       GP07
      000000CDH   SFRSYM    DATA     BYTE      MDU_DB1
      000000C6H   SFRSYM    DATA     BYTE      MDU_DA2
      00000088H.1 SFRSYM    DATA     BIT       IT01
      00000088H.3 SFRSYM    DATA     BIT       IT10
      000000B0H.5 SFRSYM    DATA     BIT       GP35
      000000A0H.6 SFRSYM    DATA     BIT       GP26
      00000090H.7 SFRSYM    DATA     BIT       GP17
      00000080H   SFRSYM    DATA     BYTE      P0
      000000F6H   SFRSYM    DATA     WORD      PI_UKMIN
      000000C7H   SFRSYM    DATA     BYTE      MDU_DA3
      00000088H.4 SFRSYM    DATA     BIT       IT11
      000000C9H   SFRSYM    DATA     BYTE      RST_SR
      000000D9H   SFRSYM    DATA     BYTE      EVT_FILT
      000000B0H.6 SFRSYM    DATA     BIT       GP36
      000000A0H.7 SFRSYM    DATA     BIT       GP27
      00000090H   SFRSYM    DATA     BYTE      P1
      000000B0H.7 SFRSYM    DATA     BIT       GP37
      000000A0H   SFRSYM    DATA     BYTE      P2
      000000F4H   SFRSYM    DATA     WORD      PI_UKMAX
      000000B0H   SFRSYM    DATA     BYTE      P3
      000000E8H   SFRSYM    DATA     BYTE      P4
      000000D0H.6 SFRSYM    DATA     BIT       AC
      000000A8H.7 SFRSYM    DATA     BIT       EA
      000000D5H   SFRSYM    DATA     BYTE      CMP_CR0
      000000D6H   SFRSYM    DATA     BYTE      CMP_CR1
      000000DAH   SFRSYM    DATA     BYTE      CMP_CR2
      000000B8H.2 SFRSYM    DATA     BIT       PX00
      000000DCH   SFRSYM    DATA     BYTE      CMP_CR3
      000000F8H.0 SFRSYM    DATA     BIT       OISUH
      000000EAH   SFRSYM    DATA     WORD      PI_EK
      000000B8H.3 SFRSYM    DATA     BIT       PX01
      000000B8H.4 SFRSYM    DATA     BIT       PX10
      000000F8H.2 SFRSYM    DATA     BIT       OISVH
      000000B8H.5 SFRSYM    DATA     BIT       PX11
      000000F8H.1 SFRSYM    DATA     BIT       OISUL
      000000DDH   SFRSYM    DATA     BYTE      LPF_K
      000000F2H   SFRSYM    DATA     WORD      PI_KI
      000000A8H   SFRSYM    DATA     BYTE      IE
      000000F8H.3 SFRSYM    DATA     BIT       OISVL
      000000EEH   SFRSYM    DATA     WORD      PI_KP
      000000AAH   SFRSYM    DATA     WORD      TIM2__CNTR
      000000A2H   SFRSYM    DATA     WORD      TIM3__CNTR
      00000092H   SFRSYM    DATA     WORD      TIM4__CNTR
      000000ECH   SFRSYM    DATA     WORD      PI_UK
      000000DEH   SFRSYM    DATA     WORD      LPF_X
      00000098H.0 SFRSYM    DATA     BIT       RI
      00000098H.6 SFRSYM    DATA     BIT       UT_MOD0
      000000E6H   SFRSYM    DATA     WORD      LPF_Y
      00000098H.7 SFRSYM    DATA     BIT       UT_MOD1
      000000D0H.7 SFRSYM    DATA     BIT       CY
      00000098H.1 SFRSYM    DATA     BIT       TI
      000000C0H.2 SFRSYM    DATA     BIT       PTIM10
      00000084H   SFRSYM    DATA     BYTE      FLA_KEY
      000000C0H.0 SFRSYM    DATA     BIT       PTIM20
      000000C0H.3 SFRSYM    DATA     BIT       PTIM11
      00000098H   SFRSYM    DATA     BYTE      UT_CR
      000000C8H.2 SFRSYM    DATA     BIT       PTIM30
      000000C0H.1 SFRSYM    DATA     BIT       PTIM21
      00000099H   SFRSYM    DATA     BYTE      UT_DR
      000000C8H.3 SFRSYM    DATA     BIT       PTIM31
      000000D0H.2 SFRSYM    DATA     BIT       OV
      0000009AH   SFRSYM    DATA     WORD      UT_BAUD
      000000C4H   SFRSYM    DATA     WORD      MDU_DA01
LX51 LINKER/LOCATER V4.66.100.0                                                       04/25/2024  14:24:29  PAGE 85


      000000CCH   SFRSYM    DATA     WORD      MDU_DB01
      00000087H   SFRSYM    DATA     BYTE      PCON
      000000C6H   SFRSYM    DATA     WORD      MDU_DA23
      00000088H   SFRSYM    DATA     BYTE      TCON
      00000082H   SFRSYM    DATA     WORD      DPTR
      000000D8H.0 SFRSYM    DATA     BIT       PUART0
      000000D8H.1 SFRSYM    DATA     BIT       PUART1
      000000D8H.2 SFRSYM    DATA     BIT       PI2C0
      00000088H.2 SFRSYM    DATA     BIT       IF0
      000000D8H.3 SFRSYM    DATA     BIT       PI2C1
      000000AEH   SFRSYM    DATA     WORD      TIM2__ARR
      000000A1H   SFRSYM    DATA     BYTE      TIM2_CR0
      000000A6H   SFRSYM    DATA     WORD      TIM3__ARR
      0000009CH   SFRSYM    DATA     BYTE      TIM3_CR0
      000000A9H   SFRSYM    DATA     BYTE      TIM2_CR1
      00000096H   SFRSYM    DATA     WORD      TIM4__ARR
      0000009EH   SFRSYM    DATA     BYTE      TIM4_CR0
      0000009DH   SFRSYM    DATA     BYTE      TIM3_CR1
      000000F8H   SFRSYM    DATA     BYTE      DRV_OUT
      0000009FH   SFRSYM    DATA     BYTE      TIM4_CR1
      000000DBH   SFRSYM    DATA     BYTE      LVSR
      000000A8H.4 SFRSYM    DATA     BIT       ES0
      00000085H   SFRSYM    DATA     BYTE      FLA_CR
      000000C0H.4 SFRSYM    DATA     BIT       PADC0
      000000B8H   SFRSYM    DATA     BYTE      IP0
      000000C0H.5 SFRSYM    DATA     BIT       PADC1
      000000C0H   SFRSYM    DATA     BYTE      IP1
      000000C8H   SFRSYM    DATA     BYTE      IP2
      00000098H.2 SFRSYM    DATA     BIT       RB8
      000000D8H   SFRSYM    DATA     BYTE      IP3
      000000A8H.0 SFRSYM    DATA     BIT       EX0
      00000098H.3 SFRSYM    DATA     BIT       TB8
      000000A8H.2 SFRSYM    DATA     BIT       EX1
      000000D0H.0 SFRSYM    DATA     BIT       P
      000000F9H   SFRSYM    DATA     BYTE      PI_LPF_CR
      00000098H.5 SFRSYM    DATA     BIT       SM2
      000000D8H.6 SFRSYM    DATA     BIT       PDMA0
      000000D8H.7 SFRSYM    DATA     BIT       PDMA1
      000000C2H   SFRSYM    DATA     WORD      MDU_MA
      000000D0H.3 SFRSYM    DATA     BIT       RS0
      000000CAH   SFRSYM    DATA     WORD      MDU_MB
      000000D0H.4 SFRSYM    DATA     BIT       RS1
      000000C1H   SFRSYM    DATA     BYTE      MDU_CR
      000000F8H.7 SFRSYM    DATA     BIT       MOE
      000000C0H.6 SFRSYM    DATA     BIT       PCMP0
      000000C0H.7 SFRSYM    DATA     BIT       PCMP1
      000000F8H.4 SFRSYM    DATA     BIT       OISWXH
      00000098H.4 SFRSYM    DATA     BIT       REN
      000000D7H   SFRSYM    DATA     BYTE      CMP_SR
      000000F8H.5 SFRSYM    DATA     BIT       OISWXL
      000000C8H.6 SFRSYM    DATA     BIT       PTSD0
      000000D8H.4 SFRSYM    DATA     BIT       PSPI0
      000000C8H.7 SFRSYM    DATA     BIT       PTSD1
      000000B8H.6 SFRSYM    DATA     BIT       PDRV0
      000000D8H.5 SFRSYM    DATA     BIT       PSPI1
      000000B8H.7 SFRSYM    DATA     BIT       PDRV1
      000000D1H   SFRSYM    DATA     BYTE      P1_IE
      000000D3H   SFRSYM    DATA     BYTE      P2_IE
      000000D2H   SFRSYM    DATA     BYTE      P1_IF
      000000D4H   SFRSYM    DATA     BYTE      P2_IF
      000000ACH   SFRSYM    DATA     WORD      TIM2__DR
      000000C8H.4 SFRSYM    DATA     BIT       PTIM4S0
      000000FCH   SFRSYM    DATA     BYTE      P0_OE
      000000A4H   SFRSYM    DATA     WORD      TIM3__DR
      000000C8H.5 SFRSYM    DATA     BIT       PTIM4S1
LX51 LINKER/LOCATER V4.66.100.0                                                       04/25/2024  14:24:29  PAGE 86


      000000FDH   SFRSYM    DATA     BYTE      P1_OE
      00000094H   SFRSYM    DATA     WORD      TIM4__DR
      000000D0H.5 SFRSYM    DATA     BIT       F0
      000000FEH   SFRSYM    DATA     BYTE      P2_OE
      000000D0H.1 SFRSYM    DATA     BIT       F1
      000000FFH   SFRSYM    DATA     BYTE      P3_OE
      00000080H.0 SFRSYM    DATA     BIT       GP00
      000000E9H   SFRSYM    DATA     BYTE      P4_OE
      00000090H.0 SFRSYM    DATA     BIT       GP10
      00000080H.1 SFRSYM    DATA     BIT       GP01
      000000A0H.0 SFRSYM    DATA     BIT       GP20
      00000090H.1 SFRSYM    DATA     BIT       GP11
      00000080H.2 SFRSYM    DATA     BIT       GP02
      000000B0H.0 SFRSYM    DATA     BIT       GP30
      000000A0H.1 SFRSYM    DATA     BIT       GP21
      00000090H.2 SFRSYM    DATA     BIT       GP12
      00000080H.3 SFRSYM    DATA     BIT       GP03
      000000B8H.0 SFRSYM    DATA     BIT       PLVW0
      000000A8H.1 SFRSYM    DATA     BIT       TSDIE
      000000D0H   SFRSYM    DATA     BYTE      PSW
      000000E8H.0 SFRSYM    DATA     BIT       GP40
      000000B0H.1 SFRSYM    DATA     BIT       GP31
      000000A0H.2 SFRSYM    DATA     BIT       GP22
      00000090H.3 SFRSYM    DATA     BIT       GP13
      00000080H.4 SFRSYM    DATA     BIT       GP04
      000000B8H.1 SFRSYM    DATA     BIT       PLVW1
      000000A8H.3 SFRSYM    DATA     BIT       SPIIE
      00000088H.5 SFRSYM    DATA     BIT       TSDIF
      000000E8H.1 SFRSYM    DATA     BIT       GP41
      000000B0H.2 SFRSYM    DATA     BIT       GP32
      000000A0H.3 SFRSYM    DATA     BIT       GP23
      00000090H.4 SFRSYM    DATA     BIT       GP14
      00000080H.5 SFRSYM    DATA     BIT       GP05
      000000C4H   SFRSYM    DATA     BYTE      MDU_DA0
      000000E8H.2 SFRSYM    DATA     BIT       GP42
      000000B0H.3 SFRSYM    DATA     BIT       GP33
      000000A0H.4 SFRSYM    DATA     BIT       GP24
      00000090H.5 SFRSYM    DATA     BIT       GP15
      00000080H.6 SFRSYM    DATA     BIT       GP06
      000000CCH   SFRSYM    DATA     BYTE      MDU_DB0
      000000C5H   SFRSYM    DATA     BYTE      MDU_DA1
      00000088H.0 SFRSYM    DATA     BIT       IT00

      ---         MODULE    ---      ---       FOCCONTROL
      020002CAH   PUBLIC    XDATA    BYTE      mcState
      020002C8H   PUBLIC    XDATA    WORD      TimeCnt
      020002C7H   PUBLIC    XDATA    ---       McStaSet
      01001D43H   PUBLIC    CODE     ---       MC_Control
      000000B0H.4 SFRSYM    DATA     BIT       GP34
      000000A0H.5 SFRSYM    DATA     BIT       GP25
      00000090H.6 SFRSYM    DATA     BIT       GP16
      00000080H.7 SFRSYM    DATA     BIT       GP07
      000000CDH   SFRSYM    DATA     BYTE      MDU_DB1
      000000C6H   SFRSYM    DATA     BYTE      MDU_DA2
      00000088H.1 SFRSYM    DATA     BIT       IT01
      00000088H.3 SFRSYM    DATA     BIT       IT10
      000000B0H.5 SFRSYM    DATA     BIT       GP35
      000000A0H.6 SFRSYM    DATA     BIT       GP26
      00000090H.7 SFRSYM    DATA     BIT       GP17
      00000080H   SFRSYM    DATA     BYTE      P0
      000000F6H   SFRSYM    DATA     WORD      PI_UKMIN
      000000C7H   SFRSYM    DATA     BYTE      MDU_DA3
      00000088H.4 SFRSYM    DATA     BIT       IT11
      000000C9H   SFRSYM    DATA     BYTE      RST_SR
      000000D9H   SFRSYM    DATA     BYTE      EVT_FILT
LX51 LINKER/LOCATER V4.66.100.0                                                       04/25/2024  14:24:29  PAGE 87


      000000B0H.6 SFRSYM    DATA     BIT       GP36
      000000A0H.7 SFRSYM    DATA     BIT       GP27
      00000090H   SFRSYM    DATA     BYTE      P1
      000000B0H.7 SFRSYM    DATA     BIT       GP37
      000000A0H   SFRSYM    DATA     BYTE      P2
      000000F4H   SFRSYM    DATA     WORD      PI_UKMAX
      000000B0H   SFRSYM    DATA     BYTE      P3
      000000E8H   SFRSYM    DATA     BYTE      P4
      000000D0H.6 SFRSYM    DATA     BIT       AC
      000000A8H.7 SFRSYM    DATA     BIT       EA
      000000D5H   SFRSYM    DATA     BYTE      CMP_CR0
      000000D6H   SFRSYM    DATA     BYTE      CMP_CR1
      000000DAH   SFRSYM    DATA     BYTE      CMP_CR2
      000000B8H.2 SFRSYM    DATA     BIT       PX00
      000000DCH   SFRSYM    DATA     BYTE      CMP_CR3
      000000F8H.0 SFRSYM    DATA     BIT       OISUH
      000000EAH   SFRSYM    DATA     WORD      PI_EK
      000000B8H.3 SFRSYM    DATA     BIT       PX01
      000000B8H.4 SFRSYM    DATA     BIT       PX10
      000000F8H.2 SFRSYM    DATA     BIT       OISVH
      000000B8H.5 SFRSYM    DATA     BIT       PX11
      000000F8H.1 SFRSYM    DATA     BIT       OISUL
      000000DDH   SFRSYM    DATA     BYTE      LPF_K
      000000F2H   SFRSYM    DATA     WORD      PI_KI
      000000A8H   SFRSYM    DATA     BYTE      IE
      000000F8H.3 SFRSYM    DATA     BIT       OISVL
      000000EEH   SFRSYM    DATA     WORD      PI_KP
      000000AAH   SFRSYM    DATA     WORD      TIM2__CNTR
      000000A2H   SFRSYM    DATA     WORD      TIM3__CNTR
      00000092H   SFRSYM    DATA     WORD      TIM4__CNTR
      000000ECH   SFRSYM    DATA     WORD      PI_UK
      000000DEH   SFRSYM    DATA     WORD      LPF_X
      00000098H.0 SFRSYM    DATA     BIT       RI
      00000098H.6 SFRSYM    DATA     BIT       UT_MOD0
      000000E6H   SFRSYM    DATA     WORD      LPF_Y
      00000098H.7 SFRSYM    DATA     BIT       UT_MOD1
      000000D0H.7 SFRSYM    DATA     BIT       CY
      00000098H.1 SFRSYM    DATA     BIT       TI
      000000C0H.2 SFRSYM    DATA     BIT       PTIM10
      00000084H   SFRSYM    DATA     BYTE      FLA_KEY
      000000C0H.0 SFRSYM    DATA     BIT       PTIM20
      000000C0H.3 SFRSYM    DATA     BIT       PTIM11
      00000098H   SFRSYM    DATA     BYTE      UT_CR
      000000C8H.2 SFRSYM    DATA     BIT       PTIM30
      000000C0H.1 SFRSYM    DATA     BIT       PTIM21
      00000099H   SFRSYM    DATA     BYTE      UT_DR
      000000C8H.3 SFRSYM    DATA     BIT       PTIM31
      000000D0H.2 SFRSYM    DATA     BIT       OV
      0000009AH   SFRSYM    DATA     WORD      UT_BAUD
      000000C4H   SFRSYM    DATA     WORD      MDU_DA01
      000000CCH   SFRSYM    DATA     WORD      MDU_DB01
      00000087H   SFRSYM    DATA     BYTE      PCON
      000000C6H   SFRSYM    DATA     WORD      MDU_DA23
      00000088H   SFRSYM    DATA     BYTE      TCON
      00000082H   SFRSYM    DATA     WORD      DPTR
      000000D8H.0 SFRSYM    DATA     BIT       PUART0
      000000D8H.1 SFRSYM    DATA     BIT       PUART1
      000000D8H.2 SFRSYM    DATA     BIT       PI2C0
      00000088H.2 SFRSYM    DATA     BIT       IF0
      000000D8H.3 SFRSYM    DATA     BIT       PI2C1
      000000AEH   SFRSYM    DATA     WORD      TIM2__ARR
      000000A1H   SFRSYM    DATA     BYTE      TIM2_CR0
      000000A6H   SFRSYM    DATA     WORD      TIM3__ARR
      0000009CH   SFRSYM    DATA     BYTE      TIM3_CR0
      000000A9H   SFRSYM    DATA     BYTE      TIM2_CR1
LX51 LINKER/LOCATER V4.66.100.0                                                       04/25/2024  14:24:29  PAGE 88


      00000096H   SFRSYM    DATA     WORD      TIM4__ARR
      0000009EH   SFRSYM    DATA     BYTE      TIM4_CR0
      0000009DH   SFRSYM    DATA     BYTE      TIM3_CR1
      000000F8H   SFRSYM    DATA     BYTE      DRV_OUT
      0000009FH   SFRSYM    DATA     BYTE      TIM4_CR1
      000000DBH   SFRSYM    DATA     BYTE      LVSR
      000000A8H.4 SFRSYM    DATA     BIT       ES0
      00000085H   SFRSYM    DATA     BYTE      FLA_CR
      000000C0H.4 SFRSYM    DATA     BIT       PADC0
      000000B8H   SFRSYM    DATA     BYTE      IP0
      000000C0H.5 SFRSYM    DATA     BIT       PADC1
      000000C0H   SFRSYM    DATA     BYTE      IP1
      000000C8H   SFRSYM    DATA     BYTE      IP2
      00000098H.2 SFRSYM    DATA     BIT       RB8
      000000D8H   SFRSYM    DATA     BYTE      IP3
      000000A8H.0 SFRSYM    DATA     BIT       EX0
      00000098H.3 SFRSYM    DATA     BIT       TB8
      000000A8H.2 SFRSYM    DATA     BIT       EX1
      000000D0H.0 SFRSYM    DATA     BIT       P
      000000F9H   SFRSYM    DATA     BYTE      PI_LPF_CR
      00000098H.5 SFRSYM    DATA     BIT       SM2
      000000D8H.6 SFRSYM    DATA     BIT       PDMA0
      000000D8H.7 SFRSYM    DATA     BIT       PDMA1
      000000C2H   SFRSYM    DATA     WORD      MDU_MA
      000000D0H.3 SFRSYM    DATA     BIT       RS0
      000000CAH   SFRSYM    DATA     WORD      MDU_MB
      000000D0H.4 SFRSYM    DATA     BIT       RS1
      000000C1H   SFRSYM    DATA     BYTE      MDU_CR
      000000F8H.7 SFRSYM    DATA     BIT       MOE
      000000C0H.6 SFRSYM    DATA     BIT       PCMP0
      000000C0H.7 SFRSYM    DATA     BIT       PCMP1
      000000F8H.4 SFRSYM    DATA     BIT       OISWXH
      00000098H.4 SFRSYM    DATA     BIT       REN
      000000D7H   SFRSYM    DATA     BYTE      CMP_SR
      000000F8H.5 SFRSYM    DATA     BIT       OISWXL
      000000C8H.6 SFRSYM    DATA     BIT       PTSD0
      000000D8H.4 SFRSYM    DATA     BIT       PSPI0
      000000C8H.7 SFRSYM    DATA     BIT       PTSD1
      000000B8H.6 SFRSYM    DATA     BIT       PDRV0
      000000D8H.5 SFRSYM    DATA     BIT       PSPI1
      000000B8H.7 SFRSYM    DATA     BIT       PDRV1
      000000D1H   SFRSYM    DATA     BYTE      P1_IE
      000000D3H   SFRSYM    DATA     BYTE      P2_IE
      000000D2H   SFRSYM    DATA     BYTE      P1_IF
      000000D4H   SFRSYM    DATA     BYTE      P2_IF
      000000ACH   SFRSYM    DATA     WORD      TIM2__DR
      000000C8H.4 SFRSYM    DATA     BIT       PTIM4S0
      000000FCH   SFRSYM    DATA     BYTE      P0_OE
      000000A4H   SFRSYM    DATA     WORD      TIM3__DR
      000000C8H.5 SFRSYM    DATA     BIT       PTIM4S1
      000000FDH   SFRSYM    DATA     BYTE      P1_OE
      00000094H   SFRSYM    DATA     WORD      TIM4__DR
      000000D0H.5 SFRSYM    DATA     BIT       F0
      000000FEH   SFRSYM    DATA     BYTE      P2_OE
      000000D0H.1 SFRSYM    DATA     BIT       F1
      000000FFH   SFRSYM    DATA     BYTE      P3_OE
      00000080H.0 SFRSYM    DATA     BIT       GP00
      000000E9H   SFRSYM    DATA     BYTE      P4_OE
      00000090H.0 SFRSYM    DATA     BIT       GP10
      00000080H.1 SFRSYM    DATA     BIT       GP01
      000000A0H.0 SFRSYM    DATA     BIT       GP20
      00000090H.1 SFRSYM    DATA     BIT       GP11
      00000080H.2 SFRSYM    DATA     BIT       GP02
      000000B0H.0 SFRSYM    DATA     BIT       GP30
      000000A0H.1 SFRSYM    DATA     BIT       GP21
LX51 LINKER/LOCATER V4.66.100.0                                                       04/25/2024  14:24:29  PAGE 89


      00000090H.2 SFRSYM    DATA     BIT       GP12
      00000080H.3 SFRSYM    DATA     BIT       GP03
      000000B8H.0 SFRSYM    DATA     BIT       PLVW0
      000000A8H.1 SFRSYM    DATA     BIT       TSDIE
      000000D0H   SFRSYM    DATA     BYTE      PSW
      000000E8H.0 SFRSYM    DATA     BIT       GP40
      000000B0H.1 SFRSYM    DATA     BIT       GP31
      000000A0H.2 SFRSYM    DATA     BIT       GP22
      00000090H.3 SFRSYM    DATA     BIT       GP13
      00000080H.4 SFRSYM    DATA     BIT       GP04
      000000B8H.1 SFRSYM    DATA     BIT       PLVW1
      000000A8H.3 SFRSYM    DATA     BIT       SPIIE
      00000088H.5 SFRSYM    DATA     BIT       TSDIF
      000000E8H.1 SFRSYM    DATA     BIT       GP41
      000000B0H.2 SFRSYM    DATA     BIT       GP32
      000000A0H.3 SFRSYM    DATA     BIT       GP23
      00000090H.4 SFRSYM    DATA     BIT       GP14
      00000080H.5 SFRSYM    DATA     BIT       GP05
      000000C4H   SFRSYM    DATA     BYTE      MDU_DA0
      000000E8H.2 SFRSYM    DATA     BIT       GP42
      000000B0H.3 SFRSYM    DATA     BIT       GP33
      000000A0H.4 SFRSYM    DATA     BIT       GP24
      00000090H.5 SFRSYM    DATA     BIT       GP15
      00000080H.6 SFRSYM    DATA     BIT       GP06
      000000CCH   SFRSYM    DATA     BYTE      MDU_DB0
      000000C5H   SFRSYM    DATA     BYTE      MDU_DA1
      00000088H.0 SFRSYM    DATA     BIT       IT00

      01001D43H   BLOCK     CODE     ---       LVL=0
      01001D43H   LINE      CODE     ---       #28
      01001D43H   LINE      CODE     ---       #29
      01001D43H   LINE      CODE     ---       #30
      01001D7AH   LINE      CODE     ---       #31
      01001D7AH   LINE      CODE     ---       #32
      01001D7AH   LINE      CODE     ---       #33
      01001D7DH   LINE      CODE     ---       #34
      01001DA0H   LINE      CODE     ---       #35
      01001DA0H   LINE      CODE     ---       #36
      01001DA5H   LINE      CODE     ---       #37
      01001DACH   LINE      CODE     ---       #38
      01001DB0H   LINE      CODE     ---       #39
      01001DB4H   LINE      CODE     ---       #40
      01001DB4H   LINE      CODE     ---       #41
      01001DB5H   LINE      CODE     ---       #43
      01001DB5H   LINE      CODE     ---       #44
      01001DB8H   LINE      CODE     ---       #45
      01001DBEH   LINE      CODE     ---       #46
      01001DC7H   LINE      CODE     ---       #47
      01001DC8H   LINE      CODE     ---       #49
      01001DC8H   LINE      CODE     ---       #50
      01001DCBH   LINE      CODE     ---       #52
      01001DD8H   LINE      CODE     ---       #53
      01001DD8H   LINE      CODE     ---       #54
      01001DDAH   LINE      CODE     ---       #55
      01001DE0H   LINE      CODE     ---       #56
      01001DE7H   LINE      CODE     ---       #57
      01001DE7H   LINE      CODE     ---       #59
      01001DE8H   LINE      CODE     ---       #61
      01001DE8H   LINE      CODE     ---       #63
      01001DEEH   LINE      CODE     ---       #64
      01001DF5H   LINE      CODE     ---       #65
      01001DFDH   LINE      CODE     ---       #71
      01001DFEH   LINE      CODE     ---       #73
      01001DFEH   LINE      CODE     ---       #75
      01001E05H   LINE      CODE     ---       #76
LX51 LINKER/LOCATER V4.66.100.0                                                       04/25/2024  14:24:29  PAGE 90


      01001E0BH   LINE      CODE     ---       #77
      01001E13H   LINE      CODE     ---       #89
      01001E14H   LINE      CODE     ---       #91
      01001E14H   LINE      CODE     ---       #92
      01001E17H   LINE      CODE     ---       #98
      01001E24H   LINE      CODE     ---       #99
      01001E24H   LINE      CODE     ---       #100
      01001E2AH   LINE      CODE     ---       #101
      01001E2AH   LINE      CODE     ---       #103
      01001E2BH   LINE      CODE     ---       #105
      01001E2BH   LINE      CODE     ---       #106
      01001E2EH   LINE      CODE     ---       #107
      01001E2FH   LINE      CODE     ---       #109
      01001E2FH   LINE      CODE     ---       #113
      01001E2FH   LINE      CODE     ---       #115
      01001E2FH   LINE      CODE     ---       #116
      01001E38H   LINE      CODE     ---       #117
      01001E38H   LINE      CODE     ---       #118
      01001E3EH   LINE      CODE     ---       #119
      01001E47H   LINE      CODE     ---       #120
      01001E4EH   LINE      CODE     ---       #122
      01001E50H   LINE      CODE     ---       #123
      01001E57H   LINE      CODE     ---       #124
      01001E5CH   LINE      CODE     ---       #125
      01001E5CH   LINE      CODE     ---       #126
      01001E5DH   LINE      CODE     ---       #128
      01001E5DH   LINE      CODE     ---       #138
      01001E5DH   LINE      CODE     ---       #139
      01001E67H   LINE      CODE     ---       #140
      01001E67H   LINE      CODE     ---       #141
      01001E69H   LINE      CODE     ---       #142
      01001E6DH   LINE      CODE     ---       #143
      01001E74H   LINE      CODE     ---       #144
      01001E83H   LINE      CODE     ---       #145
      01001E99H   LINE      CODE     ---       #146
      01001EAFH   LINE      CODE     ---       #147
      01001EB6H   LINE      CODE     ---       #148
      01001EB8H   LINE      CODE     ---       #149
      01001EBEH   LINE      CODE     ---       #150
      01001EC8H   LINE      CODE     ---       #151
      01001EC8H   LINE      CODE     ---       #152
      01001EC8H   LINE      CODE     ---       #154
      01001EC9H   LINE      CODE     ---       #156
      01001EC9H   LINE      CODE     ---       #157
      01001ED3H   LINE      CODE     ---       #158
      01001ED3H   LINE      CODE     ---       #159
      01001ED5H   LINE      CODE     ---       #160
      01001EDCH   LINE      CODE     ---       #161
      01001EE1H   LINE      CODE     ---       #162
      01001EE1H   LINE      CODE     ---       #163
      01001EE1H   LINE      CODE     ---       #165
      01001EE1H   LINE      CODE     ---       #166
      01001EE1H   LINE      CODE     ---       #167
      01001EE1H   LINE      CODE     ---       #168
      ---         BLOCKEND  ---      ---       LVL=0

      ---         MODULE    ---      ---       FOCCONTROLFUNCTION
      02000246H   PUBLIC    XDATA    ---       mcCurOffset
      010037F2H   PUBLIC    CODE     ---       Motor_Init
      01003575H   PUBLIC    CODE     ---       Motor_Ready
      01002967H   PUBLIC    CODE     ---       GetCurrentOffset
      01003115H   PUBLIC    CODE     ---       VariablesPreInit
      01002786H   PUBLIC    CODE     ---       MotorcontrolInit
      01002BDDH   PUBLIC    CODE     ---       Motor_Open
      01002FB9H   PUBLIC    CODE     ---       Motor_Align
LX51 LINKER/LOCATER V4.66.100.0                                                       04/25/2024  14:24:29  PAGE 91


      01002881H   PUBLIC    CODE     ---       Motor_Charge
      010022F5H   PUBLIC    CODE     ---       FOC_Init
      000000B0H.4 SFRSYM    DATA     BIT       GP34
      000000A0H.5 SFRSYM    DATA     BIT       GP25
      00000090H.6 SFRSYM    DATA     BIT       GP16
      00000080H.7 SFRSYM    DATA     BIT       GP07
      000000CDH   SFRSYM    DATA     BYTE      MDU_DB1
      000000C6H   SFRSYM    DATA     BYTE      MDU_DA2
      00000088H.1 SFRSYM    DATA     BIT       IT01
      00000088H.3 SFRSYM    DATA     BIT       IT10
      000000B0H.5 SFRSYM    DATA     BIT       GP35
      000000A0H.6 SFRSYM    DATA     BIT       GP26
      00000090H.7 SFRSYM    DATA     BIT       GP17
      00000080H   SFRSYM    DATA     BYTE      P0
      000000F6H   SFRSYM    DATA     WORD      PI_UKMIN
      000000C7H   SFRSYM    DATA     BYTE      MDU_DA3
      00000088H.4 SFRSYM    DATA     BIT       IT11
      000000C9H   SFRSYM    DATA     BYTE      RST_SR
      000000D9H   SFRSYM    DATA     BYTE      EVT_FILT
      000000B0H.6 SFRSYM    DATA     BIT       GP36
      000000A0H.7 SFRSYM    DATA     BIT       GP27
      00000090H   SFRSYM    DATA     BYTE      P1
      000000B0H.7 SFRSYM    DATA     BIT       GP37
      000000A0H   SFRSYM    DATA     BYTE      P2
      000000F4H   SFRSYM    DATA     WORD      PI_UKMAX
      000000B0H   SFRSYM    DATA     BYTE      P3
      000000E8H   SFRSYM    DATA     BYTE      P4
      000000D0H.6 SFRSYM    DATA     BIT       AC
      000000A8H.7 SFRSYM    DATA     BIT       EA
      000000D5H   SFRSYM    DATA     BYTE      CMP_CR0
      000000D6H   SFRSYM    DATA     BYTE      CMP_CR1
      000000DAH   SFRSYM    DATA     BYTE      CMP_CR2
      000000B8H.2 SFRSYM    DATA     BIT       PX00
      000000DCH   SFRSYM    DATA     BYTE      CMP_CR3
      000000F8H.0 SFRSYM    DATA     BIT       OISUH
      000000EAH   SFRSYM    DATA     WORD      PI_EK
      000000B8H.3 SFRSYM    DATA     BIT       PX01
      000000B8H.4 SFRSYM    DATA     BIT       PX10
      000000F8H.2 SFRSYM    DATA     BIT       OISVH
      000000B8H.5 SFRSYM    DATA     BIT       PX11
      000000F8H.1 SFRSYM    DATA     BIT       OISUL
      000000DDH   SFRSYM    DATA     BYTE      LPF_K
      000000F2H   SFRSYM    DATA     WORD      PI_KI
      000000A8H   SFRSYM    DATA     BYTE      IE
      000000F8H.3 SFRSYM    DATA     BIT       OISVL
      000000EEH   SFRSYM    DATA     WORD      PI_KP
      000000AAH   SFRSYM    DATA     WORD      TIM2__CNTR
      000000A2H   SFRSYM    DATA     WORD      TIM3__CNTR
      00000092H   SFRSYM    DATA     WORD      TIM4__CNTR
      000000ECH   SFRSYM    DATA     WORD      PI_UK
      000000DEH   SFRSYM    DATA     WORD      LPF_X
      00000098H.0 SFRSYM    DATA     BIT       RI
      00000098H.6 SFRSYM    DATA     BIT       UT_MOD0
      000000E6H   SFRSYM    DATA     WORD      LPF_Y
      00000098H.7 SFRSYM    DATA     BIT       UT_MOD1
      000000D0H.7 SFRSYM    DATA     BIT       CY
      00000098H.1 SFRSYM    DATA     BIT       TI
      000000C0H.2 SFRSYM    DATA     BIT       PTIM10
      00000084H   SFRSYM    DATA     BYTE      FLA_KEY
      000000C0H.0 SFRSYM    DATA     BIT       PTIM20
      000000C0H.3 SFRSYM    DATA     BIT       PTIM11
      00000098H   SFRSYM    DATA     BYTE      UT_CR
      000000C8H.2 SFRSYM    DATA     BIT       PTIM30
      000000C0H.1 SFRSYM    DATA     BIT       PTIM21
      00000099H   SFRSYM    DATA     BYTE      UT_DR
LX51 LINKER/LOCATER V4.66.100.0                                                       04/25/2024  14:24:29  PAGE 92


      000000C8H.3 SFRSYM    DATA     BIT       PTIM31
      000000D0H.2 SFRSYM    DATA     BIT       OV
      0000009AH   SFRSYM    DATA     WORD      UT_BAUD
      000000C4H   SFRSYM    DATA     WORD      MDU_DA01
      000000CCH   SFRSYM    DATA     WORD      MDU_DB01
      00000087H   SFRSYM    DATA     BYTE      PCON
      000000C6H   SFRSYM    DATA     WORD      MDU_DA23
      00000088H   SFRSYM    DATA     BYTE      TCON
      00000082H   SFRSYM    DATA     WORD      DPTR
      000000D8H.0 SFRSYM    DATA     BIT       PUART0
      000000D8H.1 SFRSYM    DATA     BIT       PUART1
      000000D8H.2 SFRSYM    DATA     BIT       PI2C0
      00000088H.2 SFRSYM    DATA     BIT       IF0
      000000D8H.3 SFRSYM    DATA     BIT       PI2C1
      000000AEH   SFRSYM    DATA     WORD      TIM2__ARR
      000000A1H   SFRSYM    DATA     BYTE      TIM2_CR0
      000000A6H   SFRSYM    DATA     WORD      TIM3__ARR
      0000009CH   SFRSYM    DATA     BYTE      TIM3_CR0
      000000A9H   SFRSYM    DATA     BYTE      TIM2_CR1
      00000096H   SFRSYM    DATA     WORD      TIM4__ARR
      0000009EH   SFRSYM    DATA     BYTE      TIM4_CR0
      0000009DH   SFRSYM    DATA     BYTE      TIM3_CR1
      000000F8H   SFRSYM    DATA     BYTE      DRV_OUT
      0000009FH   SFRSYM    DATA     BYTE      TIM4_CR1
      000000DBH   SFRSYM    DATA     BYTE      LVSR
      000000A8H.4 SFRSYM    DATA     BIT       ES0
      00000085H   SFRSYM    DATA     BYTE      FLA_CR
      000000C0H.4 SFRSYM    DATA     BIT       PADC0
      000000B8H   SFRSYM    DATA     BYTE      IP0
      000000C0H.5 SFRSYM    DATA     BIT       PADC1
      000000C0H   SFRSYM    DATA     BYTE      IP1
      000000C8H   SFRSYM    DATA     BYTE      IP2
      00000098H.2 SFRSYM    DATA     BIT       RB8
      000000D8H   SFRSYM    DATA     BYTE      IP3
      000000A8H.0 SFRSYM    DATA     BIT       EX0
      00000098H.3 SFRSYM    DATA     BIT       TB8
      000000A8H.2 SFRSYM    DATA     BIT       EX1
      000000D0H.0 SFRSYM    DATA     BIT       P
      000000F9H   SFRSYM    DATA     BYTE      PI_LPF_CR
      00000098H.5 SFRSYM    DATA     BIT       SM2
      000000D8H.6 SFRSYM    DATA     BIT       PDMA0
      000000D8H.7 SFRSYM    DATA     BIT       PDMA1
      000000C2H   SFRSYM    DATA     WORD      MDU_MA
      000000D0H.3 SFRSYM    DATA     BIT       RS0
      000000CAH   SFRSYM    DATA     WORD      MDU_MB
      000000D0H.4 SFRSYM    DATA     BIT       RS1
      000000C1H   SFRSYM    DATA     BYTE      MDU_CR
      000000F8H.7 SFRSYM    DATA     BIT       MOE
      000000C0H.6 SFRSYM    DATA     BIT       PCMP0
      000000C0H.7 SFRSYM    DATA     BIT       PCMP1
      000000F8H.4 SFRSYM    DATA     BIT       OISWXH
      00000098H.4 SFRSYM    DATA     BIT       REN
      000000D7H   SFRSYM    DATA     BYTE      CMP_SR
      000000F8H.5 SFRSYM    DATA     BIT       OISWXL
      000000C8H.6 SFRSYM    DATA     BIT       PTSD0
      000000D8H.4 SFRSYM    DATA     BIT       PSPI0
      000000C8H.7 SFRSYM    DATA     BIT       PTSD1
      000000B8H.6 SFRSYM    DATA     BIT       PDRV0
      000000D8H.5 SFRSYM    DATA     BIT       PSPI1
      000000B8H.7 SFRSYM    DATA     BIT       PDRV1
      000000D1H   SFRSYM    DATA     BYTE      P1_IE
      000000D3H   SFRSYM    DATA     BYTE      P2_IE
      000000D2H   SFRSYM    DATA     BYTE      P1_IF
      000000D4H   SFRSYM    DATA     BYTE      P2_IF
      000000ACH   SFRSYM    DATA     WORD      TIM2__DR
LX51 LINKER/LOCATER V4.66.100.0                                                       04/25/2024  14:24:29  PAGE 93


      000000C8H.4 SFRSYM    DATA     BIT       PTIM4S0
      000000FCH   SFRSYM    DATA     BYTE      P0_OE
      000000A4H   SFRSYM    DATA     WORD      TIM3__DR
      000000C8H.5 SFRSYM    DATA     BIT       PTIM4S1
      000000FDH   SFRSYM    DATA     BYTE      P1_OE
      00000094H   SFRSYM    DATA     WORD      TIM4__DR
      000000D0H.5 SFRSYM    DATA     BIT       F0
      000000FEH   SFRSYM    DATA     BYTE      P2_OE
      000000D0H.1 SFRSYM    DATA     BIT       F1
      000000FFH   SFRSYM    DATA     BYTE      P3_OE
      00000080H.0 SFRSYM    DATA     BIT       GP00
      000000E9H   SFRSYM    DATA     BYTE      P4_OE
      00000090H.0 SFRSYM    DATA     BIT       GP10
      00000080H.1 SFRSYM    DATA     BIT       GP01
      000000A0H.0 SFRSYM    DATA     BIT       GP20
      00000090H.1 SFRSYM    DATA     BIT       GP11
      00000080H.2 SFRSYM    DATA     BIT       GP02
      000000B0H.0 SFRSYM    DATA     BIT       GP30
      000000A0H.1 SFRSYM    DATA     BIT       GP21
      00000090H.2 SFRSYM    DATA     BIT       GP12
      00000080H.3 SFRSYM    DATA     BIT       GP03
      000000B8H.0 SFRSYM    DATA     BIT       PLVW0
      000000A8H.1 SFRSYM    DATA     BIT       TSDIE
      000000D0H   SFRSYM    DATA     BYTE      PSW
      000000E8H.0 SFRSYM    DATA     BIT       GP40
      000000B0H.1 SFRSYM    DATA     BIT       GP31
      000000A0H.2 SFRSYM    DATA     BIT       GP22
      00000090H.3 SFRSYM    DATA     BIT       GP13
      00000080H.4 SFRSYM    DATA     BIT       GP04
      000000B8H.1 SFRSYM    DATA     BIT       PLVW1
      000000A8H.3 SFRSYM    DATA     BIT       SPIIE
      00000088H.5 SFRSYM    DATA     BIT       TSDIF
      000000E8H.1 SFRSYM    DATA     BIT       GP41
      000000B0H.2 SFRSYM    DATA     BIT       GP32
      000000A0H.3 SFRSYM    DATA     BIT       GP23
      00000090H.4 SFRSYM    DATA     BIT       GP14
      00000080H.5 SFRSYM    DATA     BIT       GP05
      000000C4H   SFRSYM    DATA     BYTE      MDU_DA0
      000000E8H.2 SFRSYM    DATA     BIT       GP42
      000000B0H.3 SFRSYM    DATA     BIT       GP33
      000000A0H.4 SFRSYM    DATA     BIT       GP24
      00000090H.5 SFRSYM    DATA     BIT       GP15
      00000080H.6 SFRSYM    DATA     BIT       GP06
      000000CCH   SFRSYM    DATA     BYTE      MDU_DB0
      000000C5H   SFRSYM    DATA     BYTE      MDU_DA1
      00000088H.0 SFRSYM    DATA     BIT       IT00

      010022F5H   BLOCK     CODE     ---       LVL=0
      010022F5H   LINE      CODE     ---       #29
      010022F5H   LINE      CODE     ---       #30
      010022F5H   LINE      CODE     ---       #32
      010022FCH   LINE      CODE     ---       #33
      01002300H   LINE      CODE     ---       #35
      01002305H   LINE      CODE     ---       #36
      01002307H   LINE      CODE     ---       #37
      0100230DH   LINE      CODE     ---       #38
      01002311H   LINE      CODE     ---       #40
      01002317H   LINE      CODE     ---       #41
      0100231DH   LINE      CODE     ---       #42
      01002323H   LINE      CODE     ---       #43
      01002327H   LINE      CODE     ---       #44
      01002330H   LINE      CODE     ---       #45
      01002336H   LINE      CODE     ---       #48
      01002340H   LINE      CODE     ---       #49
      01002348H   LINE      CODE     ---       #51
LX51 LINKER/LOCATER V4.66.100.0                                                       04/25/2024  14:24:29  PAGE 94


      01002350H   LINE      CODE     ---       #52
      01002358H   LINE      CODE     ---       #55
      01002362H   LINE      CODE     ---       #56
      0100236AH   LINE      CODE     ---       #57
      01002374H   LINE      CODE     ---       #58
      01002379H   LINE      CODE     ---       #59
      01002383H   LINE      CODE     ---       #60
      0100238CH   LINE      CODE     ---       #61
      01002396H   LINE      CODE     ---       #64
      0100239BH   LINE      CODE     ---       #68
      0100239BH   LINE      CODE     ---       #69
      010023A2H   LINE      CODE     ---       #70
      010023ACH   LINE      CODE     ---       #71
      010023B3H   LINE      CODE     ---       #72
      010023B3H   LINE      CODE     ---       #81
      010023BAH   LINE      CODE     ---       #84
      010023C1H   LINE      CODE     ---       #85
      010023C1H   LINE      CODE     ---       #86
      010023C8H   LINE      CODE     ---       #87
      010023CAH   LINE      CODE     ---       #89
      010023CAH   LINE      CODE     ---       #90
      010023D1H   LINE      CODE     ---       #91
      010023D1H   LINE      CODE     ---       #103
      010023D1H   LINE      CODE     ---       #104
      010023D8H   LINE      CODE     ---       #105
      010023DBH   LINE      CODE     ---       #106
      010023DFH   LINE      CODE     ---       #107
      010023DFH   LINE      CODE     ---       #126
      010023DFH   LINE      CODE     ---       #127
      010023E6H   LINE      CODE     ---       #128
      010023ECH   LINE      CODE     ---       #129
      010023F2H   LINE      CODE     ---       #131
      010023F9H   LINE      CODE     ---       #132
      010023FCH   LINE      CODE     ---       #133
      010023FCH   LINE      CODE     ---       #205
      010023FCH   LINE      CODE     ---       #206
      01002403H   LINE      CODE     ---       #207
      01002403H   LINE      CODE     ---       #209
      01002403H   LINE      CODE     ---       #211
      0100240AH   LINE      CODE     ---       #212
      01002419H   LINE      CODE     ---       #214
      01002419H   LINE      CODE     ---       #238
      01002419H   LINE      CODE     ---       #239
      01002419H   LINE      CODE     ---       #247
      01002420H   LINE      CODE     ---       #248
      ---         BLOCKEND  ---      ---       LVL=0

      01002881H   BLOCK     CODE     ---       LVL=0
      01002881H   LINE      CODE     ---       #256
      01002881H   LINE      CODE     ---       #257
      01002881H   LINE      CODE     ---       #258
      01002888H   LINE      CODE     ---       #259
      01002888H   LINE      CODE     ---       #260
      0100288CH   LINE      CODE     ---       #266
      0100288CH   LINE      CODE     ---       #267
      010028AEH   LINE      CODE     ---       #268
      010028AEH   LINE      CODE     ---       #275
      010028B5H   LINE      CODE     ---       #276
      010028BCH   LINE      CODE     ---       #277
      010028BCH   LINE      CODE     ---       #278
      010028D5H   LINE      CODE     ---       #279
      010028D5H   LINE      CODE     ---       #280
      010028DCH   LINE      CODE     ---       #286
      010028DCH   LINE      CODE     ---       #287
      010028F2H   LINE      CODE     ---       #288
LX51 LINKER/LOCATER V4.66.100.0                                                       04/25/2024  14:24:29  PAGE 95


      010028F2H   LINE      CODE     ---       #290
      010028F4H   LINE      CODE     ---       #291
      010028F4H   LINE      CODE     ---       #292
      0100290FH   LINE      CODE     ---       #293
      0100290FH   LINE      CODE     ---       #294
      01002917H   LINE      CODE     ---       #300
      01002917H   LINE      CODE     ---       #301
      0100292DH   LINE      CODE     ---       #302
      0100292DH   LINE      CODE     ---       #304
      0100292DH   LINE      CODE     ---       #305
      01002948H   LINE      CODE     ---       #306
      01002948H   LINE      CODE     ---       #307
      01002950H   LINE      CODE     ---       #313
      01002950H   LINE      CODE     ---       #314
      01002966H   LINE      CODE     ---       #315
      01002966H   LINE      CODE     ---       #317
      01002966H   LINE      CODE     ---       #318
      ---         BLOCKEND  ---      ---       LVL=0

      01002FB9H   BLOCK     CODE     ---       LVL=0
      01002FB9H   LINE      CODE     ---       #325
      01002FB9H   LINE      CODE     ---       #326
      01002FB9H   LINE      CODE     ---       #327
      01002FC0H   LINE      CODE     ---       #328
      01002FC0H   LINE      CODE     ---       #329
      01002FC4H   LINE      CODE     ---       #332
      01002FC7H   LINE      CODE     ---       #335
      01002FCEH   LINE      CODE     ---       #336
      01002FD2H   LINE      CODE     ---       #338
      01002FD9H   LINE      CODE     ---       #339
      01002FDFH   LINE      CODE     ---       #341
      01002FE9H   LINE      CODE     ---       #342
      01002FF0H   LINE      CODE     ---       #350
      01002FF0H   LINE      CODE     ---       #356
      01002FF0H   LINE      CODE     ---       #357
      01002FF7H   LINE      CODE     ---       #358
      01002FF7H   LINE      CODE     ---       #360
      01002FF7H   LINE      CODE     ---       #364
      01002FF7H   LINE      CODE     ---       #365
      01003009H   LINE      CODE     ---       #366
      01003009H   LINE      CODE     ---       #372
      01003018H   LINE      CODE     ---       #375
      0100302EH   LINE      CODE     ---       #376
      01003030H   LINE      CODE     ---       #378
      01003030H   LINE      CODE     ---       #379
      ---         BLOCKEND  ---      ---       LVL=0

      01002BDDH   BLOCK     CODE     ---       LVL=0
      01002BDDH   BLOCK     CODE     NEAR LAB  LVL=1
      02000244H   SYMBOL    XDATA    BYTE      OpenRampCycles
      ---         BLOCKEND  ---      ---       LVL=1
      01002BDDH   LINE      CODE     ---       #387
      01002BDDH   LINE      CODE     ---       #388
      01002BDDH   LINE      CODE     ---       #390
      01002BE7H   LINE      CODE     ---       #391
      01002BE7H   LINE      CODE     ---       #392
      01002BEBH   LINE      CODE     ---       #400
      01002BEBH   LINE      CODE     ---       #401
      01002BF2H   LINE      CODE     ---       #402
      01002BF2H   LINE      CODE     ---       #406
      01002BF2H   LINE      CODE     ---       #407
      01002C04H   LINE      CODE     ---       #408
      01002C04H   LINE      CODE     ---       #415
      01002C13H   LINE      CODE     ---       #417
      01002C1AH   LINE      CODE     ---       #418
LX51 LINKER/LOCATER V4.66.100.0                                                       04/25/2024  14:24:29  PAGE 96


      01002C24H   LINE      CODE     ---       #420
      01002C2EH   LINE      CODE     ---       #421
      01002C35H   LINE      CODE     ---       #427
      01002C3FH   LINE      CODE     ---       #428
      01002C46H   LINE      CODE     ---       #432
      01002C46H   LINE      CODE     ---       #433
      01002C4FH   LINE      CODE     ---       #434
      01002C56H   LINE      CODE     ---       #435
      01002C5DH   LINE      CODE     ---       #437
      01002C64H   LINE      CODE     ---       #438
      01002C68H   LINE      CODE     ---       #439
      01002C6CH   LINE      CODE     ---       #440
      01002C6CH   LINE      CODE     ---       #468
      01002C6CH   LINE      CODE     ---       #495
      01002C6CH   LINE      CODE     ---       #498
      01002C6CH   LINE      CODE     ---       #499
      01002C75H   LINE      CODE     ---       #500
      01002C75H   LINE      CODE     ---       #507
      01002C7BH   LINE      CODE     ---       #508
      01002C7BH   LINE      CODE     ---       #511
      01002C8AH   LINE      CODE     ---       #512
      ---         BLOCKEND  ---      ---       LVL=0
      02000245H   SYMBOL    XDATA    BYTE      OpenRampCycles

      01002786H   BLOCK     CODE     ---       LVL=0
      01002786H   LINE      CODE     ---       #700
      01002786H   LINE      CODE     ---       #701
      01002786H   LINE      CODE     ---       #703
      01002795H   LINE      CODE     ---       #706
      010027A4H   LINE      CODE     ---       #709
      010027B3H   LINE      CODE     ---       #712
      010027C2H   LINE      CODE     ---       #715
      010027D1H   LINE      CODE     ---       #718
      010027E0H   LINE      CODE     ---       #721
      010027EFH   LINE      CODE     ---       #722
      010027F9H   LINE      CODE     ---       #723
      01002803H   LINE      CODE     ---       #724
      0100280DH   LINE      CODE     ---       #727
      0100281CH   LINE      CODE     ---       #728
      01002826H   LINE      CODE     ---       #731
      01002835H   LINE      CODE     ---       #732
      0100283DH   LINE      CODE     ---       #735
      0100284BH   LINE      CODE     ---       #738
      0100285AH   LINE      CODE     ---       #741
      01002869H   LINE      CODE     ---       #744
      0100286EH   LINE      CODE     ---       #747
      01002872H   LINE      CODE     ---       #748
      01002876H   LINE      CODE     ---       #749
      01002880H   LINE      CODE     ---       #750
      ---         BLOCKEND  ---      ---       LVL=0

      01003115H   BLOCK     CODE     ---       LVL=0
      01003115H   LINE      CODE     ---       #758
      01003115H   LINE      CODE     ---       #759
      01003115H   LINE      CODE     ---       #761
      01003124H   LINE      CODE     ---       #764
      01003133H   LINE      CODE     ---       #767
      01003142H   LINE      CODE     ---       #768
      0100314CH   LINE      CODE     ---       #770
      0100315BH   LINE      CODE     ---       #773
      01003160H   LINE      CODE     ---       #775
      0100316AH   LINE      CODE     ---       #777
      0100316FH   LINE      CODE     ---       #779
      01003179H   LINE      CODE     ---       #780
      ---         BLOCKEND  ---      ---       LVL=0
LX51 LINKER/LOCATER V4.66.100.0                                                       04/25/2024  14:24:29  PAGE 97



      01002967H   BLOCK     CODE     ---       LVL=0
      01002967H   LINE      CODE     ---       #788
      01002967H   LINE      CODE     ---       #789
      01002967H   LINE      CODE     ---       #790
      01002970H   LINE      CODE     ---       #791
      01002970H   LINE      CODE     ---       #792
      01002977H   LINE      CODE     ---       #793
      0100297EH   LINE      CODE     ---       #795
      0100297EH   LINE      CODE     ---       #796
      010029C4H   LINE      CODE     ---       #797
      010029DFH   LINE      CODE     ---       #798
      01002A15H   LINE      CODE     ---       #799
      01002A15H   LINE      CODE     ---       #827
      01002A23H   LINE      CODE     ---       #828
      01002A34H   LINE      CODE     ---       #829
      01002A34H   LINE      CODE     ---       #830
      01002A3AH   LINE      CODE     ---       #831
      01002A3AH   LINE      CODE     ---       #832
      01002A3AH   LINE      CODE     ---       #833
      ---         BLOCKEND  ---      ---       LVL=0

      01003575H   BLOCK     CODE     ---       LVL=0
      01003575H   LINE      CODE     ---       #841
      01003575H   LINE      CODE     ---       #842
      01003575H   LINE      CODE     ---       #843
      0100357CH   LINE      CODE     ---       #844
      0100357CH   LINE      CODE     ---       #845
      01003580H   LINE      CODE     ---       #846
      01003587H   LINE      CODE     ---       #847
      01003589H   LINE      CODE     ---       #848
      0100359FH   LINE      CODE     ---       #849
      010035A4H   LINE      CODE     ---       #850
      010035AAH   LINE      CODE     ---       #851
      010035AAH   LINE      CODE     ---       #852
      ---         BLOCKEND  ---      ---       LVL=0

      010037F2H   BLOCK     CODE     ---       LVL=0
      010037F2H   LINE      CODE     ---       #859
      010037F2H   LINE      CODE     ---       #860
      010037F2H   LINE      CODE     ---       #861
      01003808H   LINE      CODE     ---       #862
      0100380BH   LINE      CODE     ---       #863
      0100380EH   LINE      CODE     ---       #866
      ---         BLOCKEND  ---      ---       LVL=0

      ---         MODULE    ---      ---       BEMFDETECT
      020001F2H   PUBLIC    XDATA    ---       BEMFDetect
      000000B0H.4 SFRSYM    DATA     BIT       GP34
      000000A0H.5 SFRSYM    DATA     BIT       GP25
      00000090H.6 SFRSYM    DATA     BIT       GP16
      00000080H.7 SFRSYM    DATA     BIT       GP07
      000000CDH   SFRSYM    DATA     BYTE      MDU_DB1
      000000C6H   SFRSYM    DATA     BYTE      MDU_DA2
      00000088H.1 SFRSYM    DATA     BIT       IT01
      00000088H.3 SFRSYM    DATA     BIT       IT10
      000000B0H.5 SFRSYM    DATA     BIT       GP35
      000000A0H.6 SFRSYM    DATA     BIT       GP26
      00000090H.7 SFRSYM    DATA     BIT       GP17
      00000080H   SFRSYM    DATA     BYTE      P0
      000000F6H   SFRSYM    DATA     WORD      PI_UKMIN
      000000C7H   SFRSYM    DATA     BYTE      MDU_DA3
      00000088H.4 SFRSYM    DATA     BIT       IT11
      000000C9H   SFRSYM    DATA     BYTE      RST_SR
      000000D9H   SFRSYM    DATA     BYTE      EVT_FILT
LX51 LINKER/LOCATER V4.66.100.0                                                       04/25/2024  14:24:29  PAGE 98


      000000B0H.6 SFRSYM    DATA     BIT       GP36
      000000A0H.7 SFRSYM    DATA     BIT       GP27
      00000090H   SFRSYM    DATA     BYTE      P1
      000000B0H.7 SFRSYM    DATA     BIT       GP37
      000000A0H   SFRSYM    DATA     BYTE      P2
      000000F4H   SFRSYM    DATA     WORD      PI_UKMAX
      000000B0H   SFRSYM    DATA     BYTE      P3
      000000E8H   SFRSYM    DATA     BYTE      P4
      000000D0H.6 SFRSYM    DATA     BIT       AC
      000000A8H.7 SFRSYM    DATA     BIT       EA
      000000D5H   SFRSYM    DATA     BYTE      CMP_CR0
      000000D6H   SFRSYM    DATA     BYTE      CMP_CR1
      000000DAH   SFRSYM    DATA     BYTE      CMP_CR2
      000000B8H.2 SFRSYM    DATA     BIT       PX00
      000000DCH   SFRSYM    DATA     BYTE      CMP_CR3
      000000F8H.0 SFRSYM    DATA     BIT       OISUH
      000000EAH   SFRSYM    DATA     WORD      PI_EK
      000000B8H.3 SFRSYM    DATA     BIT       PX01
      000000B8H.4 SFRSYM    DATA     BIT       PX10
      000000F8H.2 SFRSYM    DATA     BIT       OISVH
      000000B8H.5 SFRSYM    DATA     BIT       PX11
      000000F8H.1 SFRSYM    DATA     BIT       OISUL
      000000DDH   SFRSYM    DATA     BYTE      LPF_K
      000000F2H   SFRSYM    DATA     WORD      PI_KI
      000000A8H   SFRSYM    DATA     BYTE      IE
      000000F8H.3 SFRSYM    DATA     BIT       OISVL
      000000EEH   SFRSYM    DATA     WORD      PI_KP
      000000AAH   SFRSYM    DATA     WORD      TIM2__CNTR
      000000A2H   SFRSYM    DATA     WORD      TIM3__CNTR
      00000092H   SFRSYM    DATA     WORD      TIM4__CNTR
      000000ECH   SFRSYM    DATA     WORD      PI_UK
      000000DEH   SFRSYM    DATA     WORD      LPF_X
      00000098H.0 SFRSYM    DATA     BIT       RI
      00000098H.6 SFRSYM    DATA     BIT       UT_MOD0
      000000E6H   SFRSYM    DATA     WORD      LPF_Y
      00000098H.7 SFRSYM    DATA     BIT       UT_MOD1
      000000D0H.7 SFRSYM    DATA     BIT       CY
      00000098H.1 SFRSYM    DATA     BIT       TI
      000000C0H.2 SFRSYM    DATA     BIT       PTIM10
      00000084H   SFRSYM    DATA     BYTE      FLA_KEY
      000000C0H.0 SFRSYM    DATA     BIT       PTIM20
      000000C0H.3 SFRSYM    DATA     BIT       PTIM11
      00000098H   SFRSYM    DATA     BYTE      UT_CR
      000000C8H.2 SFRSYM    DATA     BIT       PTIM30
      000000C0H.1 SFRSYM    DATA     BIT       PTIM21
      00000099H   SFRSYM    DATA     BYTE      UT_DR
      000000C8H.3 SFRSYM    DATA     BIT       PTIM31
      000000D0H.2 SFRSYM    DATA     BIT       OV
      0000009AH   SFRSYM    DATA     WORD      UT_BAUD
      000000C4H   SFRSYM    DATA     WORD      MDU_DA01
      000000CCH   SFRSYM    DATA     WORD      MDU_DB01
      00000087H   SFRSYM    DATA     BYTE      PCON
      000000C6H   SFRSYM    DATA     WORD      MDU_DA23
      00000088H   SFRSYM    DATA     BYTE      TCON
      00000082H   SFRSYM    DATA     WORD      DPTR
      000000D8H.0 SFRSYM    DATA     BIT       PUART0
      000000D8H.1 SFRSYM    DATA     BIT       PUART1
      000000D8H.2 SFRSYM    DATA     BIT       PI2C0
      00000088H.2 SFRSYM    DATA     BIT       IF0
      000000D8H.3 SFRSYM    DATA     BIT       PI2C1
      000000AEH   SFRSYM    DATA     WORD      TIM2__ARR
      000000A1H   SFRSYM    DATA     BYTE      TIM2_CR0
      000000A6H   SFRSYM    DATA     WORD      TIM3__ARR
      0000009CH   SFRSYM    DATA     BYTE      TIM3_CR0
      000000A9H   SFRSYM    DATA     BYTE      TIM2_CR1
LX51 LINKER/LOCATER V4.66.100.0                                                       04/25/2024  14:24:29  PAGE 99


      00000096H   SFRSYM    DATA     WORD      TIM4__ARR
      0000009EH   SFRSYM    DATA     BYTE      TIM4_CR0
      0000009DH   SFRSYM    DATA     BYTE      TIM3_CR1
      000000F8H   SFRSYM    DATA     BYTE      DRV_OUT
      0000009FH   SFRSYM    DATA     BYTE      TIM4_CR1
      000000DBH   SFRSYM    DATA     BYTE      LVSR
      000000A8H.4 SFRSYM    DATA     BIT       ES0
      00000085H   SFRSYM    DATA     BYTE      FLA_CR
      000000C0H.4 SFRSYM    DATA     BIT       PADC0
      000000B8H   SFRSYM    DATA     BYTE      IP0
      000000C0H.5 SFRSYM    DATA     BIT       PADC1
      000000C0H   SFRSYM    DATA     BYTE      IP1
      000000C8H   SFRSYM    DATA     BYTE      IP2
      00000098H.2 SFRSYM    DATA     BIT       RB8
      000000D8H   SFRSYM    DATA     BYTE      IP3
      000000A8H.0 SFRSYM    DATA     BIT       EX0
      00000098H.3 SFRSYM    DATA     BIT       TB8
      000000A8H.2 SFRSYM    DATA     BIT       EX1
      000000D0H.0 SFRSYM    DATA     BIT       P
      000000F9H   SFRSYM    DATA     BYTE      PI_LPF_CR
      00000098H.5 SFRSYM    DATA     BIT       SM2
      000000D8H.6 SFRSYM    DATA     BIT       PDMA0
      000000D8H.7 SFRSYM    DATA     BIT       PDMA1
      000000C2H   SFRSYM    DATA     WORD      MDU_MA
      000000D0H.3 SFRSYM    DATA     BIT       RS0
      000000CAH   SFRSYM    DATA     WORD      MDU_MB
      000000D0H.4 SFRSYM    DATA     BIT       RS1
      000000C1H   SFRSYM    DATA     BYTE      MDU_CR
      000000F8H.7 SFRSYM    DATA     BIT       MOE
      000000C0H.6 SFRSYM    DATA     BIT       PCMP0
      000000C0H.7 SFRSYM    DATA     BIT       PCMP1
      000000F8H.4 SFRSYM    DATA     BIT       OISWXH
      00000098H.4 SFRSYM    DATA     BIT       REN
      000000D7H   SFRSYM    DATA     BYTE      CMP_SR
      000000F8H.5 SFRSYM    DATA     BIT       OISWXL
      000000C8H.6 SFRSYM    DATA     BIT       PTSD0
      000000D8H.4 SFRSYM    DATA     BIT       PSPI0
      000000C8H.7 SFRSYM    DATA     BIT       PTSD1
      000000B8H.6 SFRSYM    DATA     BIT       PDRV0
      000000D8H.5 SFRSYM    DATA     BIT       PSPI1
      000000B8H.7 SFRSYM    DATA     BIT       PDRV1
      000000D1H   SFRSYM    DATA     BYTE      P1_IE
      000000D3H   SFRSYM    DATA     BYTE      P2_IE
      000000D2H   SFRSYM    DATA     BYTE      P1_IF
      000000D4H   SFRSYM    DATA     BYTE      P2_IF
      000000ACH   SFRSYM    DATA     WORD      TIM2__DR
      000000C8H.4 SFRSYM    DATA     BIT       PTIM4S0
      000000FCH   SFRSYM    DATA     BYTE      P0_OE
      000000A4H   SFRSYM    DATA     WORD      TIM3__DR
      000000C8H.5 SFRSYM    DATA     BIT       PTIM4S1
      000000FDH   SFRSYM    DATA     BYTE      P1_OE
      00000094H   SFRSYM    DATA     WORD      TIM4__DR
      000000D0H.5 SFRSYM    DATA     BIT       F0
      000000FEH   SFRSYM    DATA     BYTE      P2_OE
      000000D0H.1 SFRSYM    DATA     BIT       F1
      000000FFH   SFRSYM    DATA     BYTE      P3_OE
      00000080H.0 SFRSYM    DATA     BIT       GP00
      000000E9H   SFRSYM    DATA     BYTE      P4_OE
      00000090H.0 SFRSYM    DATA     BIT       GP10
      00000080H.1 SFRSYM    DATA     BIT       GP01
      000000A0H.0 SFRSYM    DATA     BIT       GP20
      00000090H.1 SFRSYM    DATA     BIT       GP11
      00000080H.2 SFRSYM    DATA     BIT       GP02
      000000B0H.0 SFRSYM    DATA     BIT       GP30
      000000A0H.1 SFRSYM    DATA     BIT       GP21
LX51 LINKER/LOCATER V4.66.100.0                                                       04/25/2024  14:24:29  PAGE 100


      00000090H.2 SFRSYM    DATA     BIT       GP12
      00000080H.3 SFRSYM    DATA     BIT       GP03
      000000B8H.0 SFRSYM    DATA     BIT       PLVW0
      000000A8H.1 SFRSYM    DATA     BIT       TSDIE
      000000D0H   SFRSYM    DATA     BYTE      PSW
      000000E8H.0 SFRSYM    DATA     BIT       GP40
      000000B0H.1 SFRSYM    DATA     BIT       GP31
      000000A0H.2 SFRSYM    DATA     BIT       GP22
      00000090H.3 SFRSYM    DATA     BIT       GP13
      00000080H.4 SFRSYM    DATA     BIT       GP04
      000000B8H.1 SFRSYM    DATA     BIT       PLVW1
      000000A8H.3 SFRSYM    DATA     BIT       SPIIE
      00000088H.5 SFRSYM    DATA     BIT       TSDIF
      000000E8H.1 SFRSYM    DATA     BIT       GP41
      000000B0H.2 SFRSYM    DATA     BIT       GP32
      000000A0H.3 SFRSYM    DATA     BIT       GP23
      00000090H.4 SFRSYM    DATA     BIT       GP14
      00000080H.5 SFRSYM    DATA     BIT       GP05
      000000C4H   SFRSYM    DATA     BYTE      MDU_DA0
      000000E8H.2 SFRSYM    DATA     BIT       GP42
      000000B0H.3 SFRSYM    DATA     BIT       GP33
      000000A0H.4 SFRSYM    DATA     BIT       GP24
      00000090H.5 SFRSYM    DATA     BIT       GP15
      00000080H.6 SFRSYM    DATA     BIT       GP06
      000000CCH   SFRSYM    DATA     BYTE      MDU_DB0
      000000C5H   SFRSYM    DATA     BYTE      MDU_DA1
      00000088H.0 SFRSYM    DATA     BIT       IT00
      00000007H   SYMBOL    DATA     BYTE      BEMFStatus
      00000007H   SYMBOL    DATA     BYTE      HallStatus
      020001F0H   SYMBOL    XDATA    BYTE      MC_FR
      020001F1H   SYMBOL    XDATA    BYTE      MC_HallStatus

      ---         MODULE    ---      ---       FOCTAILDECT
      02000214H   PUBLIC    XDATA    ---       TailWindDetect
      010035ABH   PUBLIC    CODE     ---       FOCTailWindTimeLimit
      000000B0H.4 SFRSYM    DATA     BIT       GP34
      000000A0H.5 SFRSYM    DATA     BIT       GP25
      00000090H.6 SFRSYM    DATA     BIT       GP16
      00000080H.7 SFRSYM    DATA     BIT       GP07
      000000CDH   SFRSYM    DATA     BYTE      MDU_DB1
      000000C6H   SFRSYM    DATA     BYTE      MDU_DA2
      00000088H.1 SFRSYM    DATA     BIT       IT01
      00000088H.3 SFRSYM    DATA     BIT       IT10
      000000B0H.5 SFRSYM    DATA     BIT       GP35
      000000A0H.6 SFRSYM    DATA     BIT       GP26
      00000090H.7 SFRSYM    DATA     BIT       GP17
      00000080H   SFRSYM    DATA     BYTE      P0
      000000F6H   SFRSYM    DATA     WORD      PI_UKMIN
      000000C7H   SFRSYM    DATA     BYTE      MDU_DA3
      00000088H.4 SFRSYM    DATA     BIT       IT11
      000000C9H   SFRSYM    DATA     BYTE      RST_SR
      000000D9H   SFRSYM    DATA     BYTE      EVT_FILT
      000000B0H.6 SFRSYM    DATA     BIT       GP36
      000000A0H.7 SFRSYM    DATA     BIT       GP27
      00000090H   SFRSYM    DATA     BYTE      P1
      000000B0H.7 SFRSYM    DATA     BIT       GP37
      000000A0H   SFRSYM    DATA     BYTE      P2
      000000F4H   SFRSYM    DATA     WORD      PI_UKMAX
      000000B0H   SFRSYM    DATA     BYTE      P3
      000000E8H   SFRSYM    DATA     BYTE      P4
      000000D0H.6 SFRSYM    DATA     BIT       AC
      000000A8H.7 SFRSYM    DATA     BIT       EA
      000000D5H   SFRSYM    DATA     BYTE      CMP_CR0
      000000D6H   SFRSYM    DATA     BYTE      CMP_CR1
      000000DAH   SFRSYM    DATA     BYTE      CMP_CR2
LX51 LINKER/LOCATER V4.66.100.0                                                       04/25/2024  14:24:29  PAGE 101


      000000B8H.2 SFRSYM    DATA     BIT       PX00
      000000DCH   SFRSYM    DATA     BYTE      CMP_CR3
      000000F8H.0 SFRSYM    DATA     BIT       OISUH
      000000EAH   SFRSYM    DATA     WORD      PI_EK
      000000B8H.3 SFRSYM    DATA     BIT       PX01
      000000B8H.4 SFRSYM    DATA     BIT       PX10
      000000F8H.2 SFRSYM    DATA     BIT       OISVH
      000000B8H.5 SFRSYM    DATA     BIT       PX11
      000000F8H.1 SFRSYM    DATA     BIT       OISUL
      000000DDH   SFRSYM    DATA     BYTE      LPF_K
      000000F2H   SFRSYM    DATA     WORD      PI_KI
      000000A8H   SFRSYM    DATA     BYTE      IE
      000000F8H.3 SFRSYM    DATA     BIT       OISVL
      000000EEH   SFRSYM    DATA     WORD      PI_KP
      000000AAH   SFRSYM    DATA     WORD      TIM2__CNTR
      000000A2H   SFRSYM    DATA     WORD      TIM3__CNTR
      00000092H   SFRSYM    DATA     WORD      TIM4__CNTR
      000000ECH   SFRSYM    DATA     WORD      PI_UK
      000000DEH   SFRSYM    DATA     WORD      LPF_X
      00000098H.0 SFRSYM    DATA     BIT       RI
      00000098H.6 SFRSYM    DATA     BIT       UT_MOD0
      000000E6H   SFRSYM    DATA     WORD      LPF_Y
      00000098H.7 SFRSYM    DATA     BIT       UT_MOD1
      000000D0H.7 SFRSYM    DATA     BIT       CY
      00000098H.1 SFRSYM    DATA     BIT       TI
      000000C0H.2 SFRSYM    DATA     BIT       PTIM10
      00000084H   SFRSYM    DATA     BYTE      FLA_KEY
      000000C0H.0 SFRSYM    DATA     BIT       PTIM20
      000000C0H.3 SFRSYM    DATA     BIT       PTIM11
      00000098H   SFRSYM    DATA     BYTE      UT_CR
      000000C8H.2 SFRSYM    DATA     BIT       PTIM30
      000000C0H.1 SFRSYM    DATA     BIT       PTIM21
      00000099H   SFRSYM    DATA     BYTE      UT_DR
      000000C8H.3 SFRSYM    DATA     BIT       PTIM31
      000000D0H.2 SFRSYM    DATA     BIT       OV
      0000009AH   SFRSYM    DATA     WORD      UT_BAUD
      000000C4H   SFRSYM    DATA     WORD      MDU_DA01
      000000CCH   SFRSYM    DATA     WORD      MDU_DB01
      00000087H   SFRSYM    DATA     BYTE      PCON
      000000C6H   SFRSYM    DATA     WORD      MDU_DA23
      00000088H   SFRSYM    DATA     BYTE      TCON
      00000082H   SFRSYM    DATA     WORD      DPTR
      000000D8H.0 SFRSYM    DATA     BIT       PUART0
      000000D8H.1 SFRSYM    DATA     BIT       PUART1
      000000D8H.2 SFRSYM    DATA     BIT       PI2C0
      00000088H.2 SFRSYM    DATA     BIT       IF0
      000000D8H.3 SFRSYM    DATA     BIT       PI2C1
      000000AEH   SFRSYM    DATA     WORD      TIM2__ARR
      000000A1H   SFRSYM    DATA     BYTE      TIM2_CR0
      000000A6H   SFRSYM    DATA     WORD      TIM3__ARR
      0000009CH   SFRSYM    DATA     BYTE      TIM3_CR0
      000000A9H   SFRSYM    DATA     BYTE      TIM2_CR1
      00000096H   SFRSYM    DATA     WORD      TIM4__ARR
      0000009EH   SFRSYM    DATA     BYTE      TIM4_CR0
      0000009DH   SFRSYM    DATA     BYTE      TIM3_CR1
      000000F8H   SFRSYM    DATA     BYTE      DRV_OUT
      0000009FH   SFRSYM    DATA     BYTE      TIM4_CR1
      000000DBH   SFRSYM    DATA     BYTE      LVSR
      000000A8H.4 SFRSYM    DATA     BIT       ES0
      00000085H   SFRSYM    DATA     BYTE      FLA_CR
      000000C0H.4 SFRSYM    DATA     BIT       PADC0
      000000B8H   SFRSYM    DATA     BYTE      IP0
      000000C0H.5 SFRSYM    DATA     BIT       PADC1
      000000C0H   SFRSYM    DATA     BYTE      IP1
      000000C8H   SFRSYM    DATA     BYTE      IP2
LX51 LINKER/LOCATER V4.66.100.0                                                       04/25/2024  14:24:29  PAGE 102


      00000098H.2 SFRSYM    DATA     BIT       RB8
      000000D8H   SFRSYM    DATA     BYTE      IP3
      000000A8H.0 SFRSYM    DATA     BIT       EX0
      00000098H.3 SFRSYM    DATA     BIT       TB8
      000000A8H.2 SFRSYM    DATA     BIT       EX1
      000000D0H.0 SFRSYM    DATA     BIT       P
      000000F9H   SFRSYM    DATA     BYTE      PI_LPF_CR
      00000098H.5 SFRSYM    DATA     BIT       SM2
      000000D8H.6 SFRSYM    DATA     BIT       PDMA0
      000000D8H.7 SFRSYM    DATA     BIT       PDMA1
      000000C2H   SFRSYM    DATA     WORD      MDU_MA
      000000D0H.3 SFRSYM    DATA     BIT       RS0
      000000CAH   SFRSYM    DATA     WORD      MDU_MB
      000000D0H.4 SFRSYM    DATA     BIT       RS1
      000000C1H   SFRSYM    DATA     BYTE      MDU_CR
      000000F8H.7 SFRSYM    DATA     BIT       MOE
      000000C0H.6 SFRSYM    DATA     BIT       PCMP0
      000000C0H.7 SFRSYM    DATA     BIT       PCMP1
      000000F8H.4 SFRSYM    DATA     BIT       OISWXH
      00000098H.4 SFRSYM    DATA     BIT       REN
      000000D7H   SFRSYM    DATA     BYTE      CMP_SR
      000000F8H.5 SFRSYM    DATA     BIT       OISWXL
      000000C8H.6 SFRSYM    DATA     BIT       PTSD0
      000000D8H.4 SFRSYM    DATA     BIT       PSPI0
      000000C8H.7 SFRSYM    DATA     BIT       PTSD1
      000000B8H.6 SFRSYM    DATA     BIT       PDRV0
      000000D8H.5 SFRSYM    DATA     BIT       PSPI1
      000000B8H.7 SFRSYM    DATA     BIT       PDRV1
      000000D1H   SFRSYM    DATA     BYTE      P1_IE
      000000D3H   SFRSYM    DATA     BYTE      P2_IE
      000000D2H   SFRSYM    DATA     BYTE      P1_IF
      000000D4H   SFRSYM    DATA     BYTE      P2_IF
      000000ACH   SFRSYM    DATA     WORD      TIM2__DR
      000000C8H.4 SFRSYM    DATA     BIT       PTIM4S0
      000000FCH   SFRSYM    DATA     BYTE      P0_OE
      000000A4H   SFRSYM    DATA     WORD      TIM3__DR
      000000C8H.5 SFRSYM    DATA     BIT       PTIM4S1
      000000FDH   SFRSYM    DATA     BYTE      P1_OE
      00000094H   SFRSYM    DATA     WORD      TIM4__DR
      000000D0H.5 SFRSYM    DATA     BIT       F0
      000000FEH   SFRSYM    DATA     BYTE      P2_OE
      000000D0H.1 SFRSYM    DATA     BIT       F1
      000000FFH   SFRSYM    DATA     BYTE      P3_OE
      00000080H.0 SFRSYM    DATA     BIT       GP00
      000000E9H   SFRSYM    DATA     BYTE      P4_OE
      00000090H.0 SFRSYM    DATA     BIT       GP10
      00000080H.1 SFRSYM    DATA     BIT       GP01
      000000A0H.0 SFRSYM    DATA     BIT       GP20
      00000090H.1 SFRSYM    DATA     BIT       GP11
      00000080H.2 SFRSYM    DATA     BIT       GP02
      000000B0H.0 SFRSYM    DATA     BIT       GP30
      000000A0H.1 SFRSYM    DATA     BIT       GP21
      00000090H.2 SFRSYM    DATA     BIT       GP12
      00000080H.3 SFRSYM    DATA     BIT       GP03
      000000B8H.0 SFRSYM    DATA     BIT       PLVW0
      000000A8H.1 SFRSYM    DATA     BIT       TSDIE
      000000D0H   SFRSYM    DATA     BYTE      PSW
      000000E8H.0 SFRSYM    DATA     BIT       GP40
      000000B0H.1 SFRSYM    DATA     BIT       GP31
      000000A0H.2 SFRSYM    DATA     BIT       GP22
      00000090H.3 SFRSYM    DATA     BIT       GP13
      00000080H.4 SFRSYM    DATA     BIT       GP04
      000000B8H.1 SFRSYM    DATA     BIT       PLVW1
      000000A8H.3 SFRSYM    DATA     BIT       SPIIE
      00000088H.5 SFRSYM    DATA     BIT       TSDIF
LX51 LINKER/LOCATER V4.66.100.0                                                       04/25/2024  14:24:29  PAGE 103


      000000E8H.1 SFRSYM    DATA     BIT       GP41
      000000B0H.2 SFRSYM    DATA     BIT       GP32
      000000A0H.3 SFRSYM    DATA     BIT       GP23
      00000090H.4 SFRSYM    DATA     BIT       GP14
      00000080H.5 SFRSYM    DATA     BIT       GP05
      000000C4H   SFRSYM    DATA     BYTE      MDU_DA0
      000000E8H.2 SFRSYM    DATA     BIT       GP42
      000000B0H.3 SFRSYM    DATA     BIT       GP33
      000000A0H.4 SFRSYM    DATA     BIT       GP24
      00000090H.5 SFRSYM    DATA     BIT       GP15
      00000080H.6 SFRSYM    DATA     BIT       GP06
      000000CCH   SFRSYM    DATA     BYTE      MDU_DB0
      000000C5H   SFRSYM    DATA     BYTE      MDU_DA1
      00000088H.0 SFRSYM    DATA     BIT       IT00
      02000212H   SYMBOL    XDATA    INT       LatestTheta

      010035ABH   BLOCK     CODE     ---       LVL=0
      010035ABH   LINE      CODE     ---       #187
      010035ABH   LINE      CODE     ---       #188
      010035ABH   LINE      CODE     ---       #189
      010035B2H   LINE      CODE     ---       #190
      010035B2H   LINE      CODE     ---       #192
      010035C1H   LINE      CODE     ---       #193
      010035C1H   LINE      CODE     ---       #194
      010035CDH   LINE      CODE     ---       #195
      010035CEH   LINE      CODE     ---       #197
      010035CEH   LINE      CODE     ---       #198
      010035D5H   LINE      CODE     ---       #199
      010035DBH   LINE      CODE     ---       #200
      010035E0H   LINE      CODE     ---       #201
      010035E0H   LINE      CODE     ---       #202
      010035E0H   LINE      CODE     ---       #203
      ---         BLOCKEND  ---      ---       LVL=0

      ---         MODULE    ---      ---       RPD
      0200017EH   PUBLIC    XDATA    ---       RPDPara
      0200017DH   PUBLIC    XDATA    BYTE      RPD_Status
      000000B0H.4 SFRSYM    DATA     BIT       GP34
      000000A0H.5 SFRSYM    DATA     BIT       GP25
      00000090H.6 SFRSYM    DATA     BIT       GP16
      00000080H.7 SFRSYM    DATA     BIT       GP07
      000000CDH   SFRSYM    DATA     BYTE      MDU_DB1
      000000C6H   SFRSYM    DATA     BYTE      MDU_DA2
      00000088H.1 SFRSYM    DATA     BIT       IT01
      00000088H.3 SFRSYM    DATA     BIT       IT10
      000000B0H.5 SFRSYM    DATA     BIT       GP35
      000000A0H.6 SFRSYM    DATA     BIT       GP26
      00000090H.7 SFRSYM    DATA     BIT       GP17
      00000080H   SFRSYM    DATA     BYTE      P0
      000000F6H   SFRSYM    DATA     WORD      PI_UKMIN
      000000C7H   SFRSYM    DATA     BYTE      MDU_DA3
      00000088H.4 SFRSYM    DATA     BIT       IT11
      000000C9H   SFRSYM    DATA     BYTE      RST_SR
      000000D9H   SFRSYM    DATA     BYTE      EVT_FILT
      000000B0H.6 SFRSYM    DATA     BIT       GP36
      000000A0H.7 SFRSYM    DATA     BIT       GP27
      00000090H   SFRSYM    DATA     BYTE      P1
      000000B0H.7 SFRSYM    DATA     BIT       GP37
      000000A0H   SFRSYM    DATA     BYTE      P2
      000000F4H   SFRSYM    DATA     WORD      PI_UKMAX
      000000B0H   SFRSYM    DATA     BYTE      P3
      000000E8H   SFRSYM    DATA     BYTE      P4
      000000D0H.6 SFRSYM    DATA     BIT       AC
      000000A8H.7 SFRSYM    DATA     BIT       EA
      000000D5H   SFRSYM    DATA     BYTE      CMP_CR0
LX51 LINKER/LOCATER V4.66.100.0                                                       04/25/2024  14:24:29  PAGE 104


      000000D6H   SFRSYM    DATA     BYTE      CMP_CR1
      000000DAH   SFRSYM    DATA     BYTE      CMP_CR2
      000000B8H.2 SFRSYM    DATA     BIT       PX00
      000000DCH   SFRSYM    DATA     BYTE      CMP_CR3
      000000F8H.0 SFRSYM    DATA     BIT       OISUH
      000000EAH   SFRSYM    DATA     WORD      PI_EK
      000000B8H.3 SFRSYM    DATA     BIT       PX01
      000000B8H.4 SFRSYM    DATA     BIT       PX10
      000000F8H.2 SFRSYM    DATA     BIT       OISVH
      000000B8H.5 SFRSYM    DATA     BIT       PX11
      000000F8H.1 SFRSYM    DATA     BIT       OISUL
      000000DDH   SFRSYM    DATA     BYTE      LPF_K
      000000F2H   SFRSYM    DATA     WORD      PI_KI
      000000A8H   SFRSYM    DATA     BYTE      IE
      000000F8H.3 SFRSYM    DATA     BIT       OISVL
      000000EEH   SFRSYM    DATA     WORD      PI_KP
      000000AAH   SFRSYM    DATA     WORD      TIM2__CNTR
      000000A2H   SFRSYM    DATA     WORD      TIM3__CNTR
      00000092H   SFRSYM    DATA     WORD      TIM4__CNTR
      000000ECH   SFRSYM    DATA     WORD      PI_UK
      000000DEH   SFRSYM    DATA     WORD      LPF_X
      00000098H.0 SFRSYM    DATA     BIT       RI
      00000098H.6 SFRSYM    DATA     BIT       UT_MOD0
      000000E6H   SFRSYM    DATA     WORD      LPF_Y
      00000098H.7 SFRSYM    DATA     BIT       UT_MOD1
      000000D0H.7 SFRSYM    DATA     BIT       CY
      00000098H.1 SFRSYM    DATA     BIT       TI
      000000C0H.2 SFRSYM    DATA     BIT       PTIM10
      00000084H   SFRSYM    DATA     BYTE      FLA_KEY
      000000C0H.0 SFRSYM    DATA     BIT       PTIM20
      000000C0H.3 SFRSYM    DATA     BIT       PTIM11
      00000098H   SFRSYM    DATA     BYTE      UT_CR
      000000C8H.2 SFRSYM    DATA     BIT       PTIM30
      000000C0H.1 SFRSYM    DATA     BIT       PTIM21
      00000099H   SFRSYM    DATA     BYTE      UT_DR
      000000C8H.3 SFRSYM    DATA     BIT       PTIM31
      000000D0H.2 SFRSYM    DATA     BIT       OV
      0000009AH   SFRSYM    DATA     WORD      UT_BAUD
      000000C4H   SFRSYM    DATA     WORD      MDU_DA01
      000000CCH   SFRSYM    DATA     WORD      MDU_DB01
      00000087H   SFRSYM    DATA     BYTE      PCON
      000000C6H   SFRSYM    DATA     WORD      MDU_DA23
      00000088H   SFRSYM    DATA     BYTE      TCON
      00000082H   SFRSYM    DATA     WORD      DPTR
      000000D8H.0 SFRSYM    DATA     BIT       PUART0
      000000D8H.1 SFRSYM    DATA     BIT       PUART1
      000000D8H.2 SFRSYM    DATA     BIT       PI2C0
      00000088H.2 SFRSYM    DATA     BIT       IF0
      000000D8H.3 SFRSYM    DATA     BIT       PI2C1
      000000AEH   SFRSYM    DATA     WORD      TIM2__ARR
      000000A1H   SFRSYM    DATA     BYTE      TIM2_CR0
      000000A6H   SFRSYM    DATA     WORD      TIM3__ARR
      0000009CH   SFRSYM    DATA     BYTE      TIM3_CR0
      000000A9H   SFRSYM    DATA     BYTE      TIM2_CR1
      00000096H   SFRSYM    DATA     WORD      TIM4__ARR
      0000009EH   SFRSYM    DATA     BYTE      TIM4_CR0
      0000009DH   SFRSYM    DATA     BYTE      TIM3_CR1
      000000F8H   SFRSYM    DATA     BYTE      DRV_OUT
      0000009FH   SFRSYM    DATA     BYTE      TIM4_CR1
      000000DBH   SFRSYM    DATA     BYTE      LVSR
      000000A8H.4 SFRSYM    DATA     BIT       ES0
      00000085H   SFRSYM    DATA     BYTE      FLA_CR
      000000C0H.4 SFRSYM    DATA     BIT       PADC0
      000000B8H   SFRSYM    DATA     BYTE      IP0
      000000C0H.5 SFRSYM    DATA     BIT       PADC1
LX51 LINKER/LOCATER V4.66.100.0                                                       04/25/2024  14:24:29  PAGE 105


      000000C0H   SFRSYM    DATA     BYTE      IP1
      000000C8H   SFRSYM    DATA     BYTE      IP2
      00000098H.2 SFRSYM    DATA     BIT       RB8
      000000D8H   SFRSYM    DATA     BYTE      IP3
      000000A8H.0 SFRSYM    DATA     BIT       EX0
      00000098H.3 SFRSYM    DATA     BIT       TB8
      000000A8H.2 SFRSYM    DATA     BIT       EX1
      000000D0H.0 SFRSYM    DATA     BIT       P
      000000F9H   SFRSYM    DATA     BYTE      PI_LPF_CR
      00000098H.5 SFRSYM    DATA     BIT       SM2
      000000D8H.6 SFRSYM    DATA     BIT       PDMA0
      000000D8H.7 SFRSYM    DATA     BIT       PDMA1
      000000C2H   SFRSYM    DATA     WORD      MDU_MA
      000000D0H.3 SFRSYM    DATA     BIT       RS0
      000000CAH   SFRSYM    DATA     WORD      MDU_MB
      000000D0H.4 SFRSYM    DATA     BIT       RS1
      000000C1H   SFRSYM    DATA     BYTE      MDU_CR
      000000F8H.7 SFRSYM    DATA     BIT       MOE
      000000C0H.6 SFRSYM    DATA     BIT       PCMP0
      000000C0H.7 SFRSYM    DATA     BIT       PCMP1
      000000F8H.4 SFRSYM    DATA     BIT       OISWXH
      00000098H.4 SFRSYM    DATA     BIT       REN
      000000D7H   SFRSYM    DATA     BYTE      CMP_SR
      000000F8H.5 SFRSYM    DATA     BIT       OISWXL
      000000C8H.6 SFRSYM    DATA     BIT       PTSD0
      000000D8H.4 SFRSYM    DATA     BIT       PSPI0
      000000C8H.7 SFRSYM    DATA     BIT       PTSD1
      000000B8H.6 SFRSYM    DATA     BIT       PDRV0
      000000D8H.5 SFRSYM    DATA     BIT       PSPI1
      000000B8H.7 SFRSYM    DATA     BIT       PDRV1
      000000D1H   SFRSYM    DATA     BYTE      P1_IE
      000000D3H   SFRSYM    DATA     BYTE      P2_IE
      000000D2H   SFRSYM    DATA     BYTE      P1_IF
      000000D4H   SFRSYM    DATA     BYTE      P2_IF
      000000ACH   SFRSYM    DATA     WORD      TIM2__DR
      000000C8H.4 SFRSYM    DATA     BIT       PTIM4S0
      000000FCH   SFRSYM    DATA     BYTE      P0_OE
      000000A4H   SFRSYM    DATA     WORD      TIM3__DR
      000000C8H.5 SFRSYM    DATA     BIT       PTIM4S1
      000000FDH   SFRSYM    DATA     BYTE      P1_OE
      00000094H   SFRSYM    DATA     WORD      TIM4__DR
      000000D0H.5 SFRSYM    DATA     BIT       F0
      000000FEH   SFRSYM    DATA     BYTE      P2_OE
      000000D0H.1 SFRSYM    DATA     BIT       F1
      000000FFH   SFRSYM    DATA     BYTE      P3_OE
      00000080H.0 SFRSYM    DATA     BIT       GP00
      000000E9H   SFRSYM    DATA     BYTE      P4_OE
      00000090H.0 SFRSYM    DATA     BIT       GP10
      00000080H.1 SFRSYM    DATA     BIT       GP01
      000000A0H.0 SFRSYM    DATA     BIT       GP20
      00000090H.1 SFRSYM    DATA     BIT       GP11
      00000080H.2 SFRSYM    DATA     BIT       GP02
      000000B0H.0 SFRSYM    DATA     BIT       GP30
      000000A0H.1 SFRSYM    DATA     BIT       GP21
      00000090H.2 SFRSYM    DATA     BIT       GP12
      00000080H.3 SFRSYM    DATA     BIT       GP03
      000000B8H.0 SFRSYM    DATA     BIT       PLVW0
      000000A8H.1 SFRSYM    DATA     BIT       TSDIE
      000000D0H   SFRSYM    DATA     BYTE      PSW
      000000E8H.0 SFRSYM    DATA     BIT       GP40
      000000B0H.1 SFRSYM    DATA     BIT       GP31
      000000A0H.2 SFRSYM    DATA     BIT       GP22
      00000090H.3 SFRSYM    DATA     BIT       GP13
      00000080H.4 SFRSYM    DATA     BIT       GP04
      000000B8H.1 SFRSYM    DATA     BIT       PLVW1
LX51 LINKER/LOCATER V4.66.100.0                                                       04/25/2024  14:24:29  PAGE 106


      000000A8H.3 SFRSYM    DATA     BIT       SPIIE
      00000088H.5 SFRSYM    DATA     BIT       TSDIF
      000000E8H.1 SFRSYM    DATA     BIT       GP41
      000000B0H.2 SFRSYM    DATA     BIT       GP32
      000000A0H.3 SFRSYM    DATA     BIT       GP23
      00000090H.4 SFRSYM    DATA     BIT       GP14
      00000080H.5 SFRSYM    DATA     BIT       GP05
      000000C4H   SFRSYM    DATA     BYTE      MDU_DA0
      000000E8H.2 SFRSYM    DATA     BIT       GP42
      000000B0H.3 SFRSYM    DATA     BIT       GP33
      000000A0H.4 SFRSYM    DATA     BIT       GP24
      00000090H.5 SFRSYM    DATA     BIT       GP15
      00000080H.6 SFRSYM    DATA     BIT       GP06
      000000CCH   SFRSYM    DATA     BYTE      MDU_DB0
      000000C5H   SFRSYM    DATA     BYTE      MDU_DA1
      00000088H.0 SFRSYM    DATA     BIT       IT00

      ---         MODULE    ---      ---       RSDDETECT
      000000B0H.4 SFRSYM    DATA     BIT       GP34
      000000A0H.5 SFRSYM    DATA     BIT       GP25
      00000090H.6 SFRSYM    DATA     BIT       GP16
      00000080H.7 SFRSYM    DATA     BIT       GP07
      000000CDH   SFRSYM    DATA     BYTE      MDU_DB1
      000000C6H   SFRSYM    DATA     BYTE      MDU_DA2
      00000088H.1 SFRSYM    DATA     BIT       IT01
      00000088H.3 SFRSYM    DATA     BIT       IT10
      000000B0H.5 SFRSYM    DATA     BIT       GP35
      000000A0H.6 SFRSYM    DATA     BIT       GP26
      00000090H.7 SFRSYM    DATA     BIT       GP17
      00000080H   SFRSYM    DATA     BYTE      P0
      000000F6H   SFRSYM    DATA     WORD      PI_UKMIN
      000000C7H   SFRSYM    DATA     BYTE      MDU_DA3
      00000088H.4 SFRSYM    DATA     BIT       IT11
      000000C9H   SFRSYM    DATA     BYTE      RST_SR
      000000D9H   SFRSYM    DATA     BYTE      EVT_FILT
      000000B0H.6 SFRSYM    DATA     BIT       GP36
      000000A0H.7 SFRSYM    DATA     BIT       GP27
      00000090H   SFRSYM    DATA     BYTE      P1
      000000B0H.7 SFRSYM    DATA     BIT       GP37
      000000A0H   SFRSYM    DATA     BYTE      P2
      000000F4H   SFRSYM    DATA     WORD      PI_UKMAX
      000000B0H   SFRSYM    DATA     BYTE      P3
      000000E8H   SFRSYM    DATA     BYTE      P4
      000000D0H.6 SFRSYM    DATA     BIT       AC
      000000A8H.7 SFRSYM    DATA     BIT       EA
      000000D5H   SFRSYM    DATA     BYTE      CMP_CR0
      000000D6H   SFRSYM    DATA     BYTE      CMP_CR1
      000000DAH   SFRSYM    DATA     BYTE      CMP_CR2
      000000B8H.2 SFRSYM    DATA     BIT       PX00
      000000DCH   SFRSYM    DATA     BYTE      CMP_CR3
      000000F8H.0 SFRSYM    DATA     BIT       OISUH
      000000EAH   SFRSYM    DATA     WORD      PI_EK
      000000B8H.3 SFRSYM    DATA     BIT       PX01
      000000B8H.4 SFRSYM    DATA     BIT       PX10
      000000F8H.2 SFRSYM    DATA     BIT       OISVH
      000000B8H.5 SFRSYM    DATA     BIT       PX11
      000000F8H.1 SFRSYM    DATA     BIT       OISUL
      000000DDH   SFRSYM    DATA     BYTE      LPF_K
      000000F2H   SFRSYM    DATA     WORD      PI_KI
      000000A8H   SFRSYM    DATA     BYTE      IE
      000000F8H.3 SFRSYM    DATA     BIT       OISVL
      000000EEH   SFRSYM    DATA     WORD      PI_KP
      000000AAH   SFRSYM    DATA     WORD      TIM2__CNTR
      000000A2H   SFRSYM    DATA     WORD      TIM3__CNTR
      00000092H   SFRSYM    DATA     WORD      TIM4__CNTR
LX51 LINKER/LOCATER V4.66.100.0                                                       04/25/2024  14:24:29  PAGE 107


      000000ECH   SFRSYM    DATA     WORD      PI_UK
      000000DEH   SFRSYM    DATA     WORD      LPF_X
      00000098H.0 SFRSYM    DATA     BIT       RI
      00000098H.6 SFRSYM    DATA     BIT       UT_MOD0
      000000E6H   SFRSYM    DATA     WORD      LPF_Y
      00000098H.7 SFRSYM    DATA     BIT       UT_MOD1
      000000D0H.7 SFRSYM    DATA     BIT       CY
      00000098H.1 SFRSYM    DATA     BIT       TI
      000000C0H.2 SFRSYM    DATA     BIT       PTIM10
      00000084H   SFRSYM    DATA     BYTE      FLA_KEY
      000000C0H.0 SFRSYM    DATA     BIT       PTIM20
      000000C0H.3 SFRSYM    DATA     BIT       PTIM11
      00000098H   SFRSYM    DATA     BYTE      UT_CR
      000000C8H.2 SFRSYM    DATA     BIT       PTIM30
      000000C0H.1 SFRSYM    DATA     BIT       PTIM21
      00000099H   SFRSYM    DATA     BYTE      UT_DR
      000000C8H.3 SFRSYM    DATA     BIT       PTIM31
      000000D0H.2 SFRSYM    DATA     BIT       OV
      0000009AH   SFRSYM    DATA     WORD      UT_BAUD
      000000C4H   SFRSYM    DATA     WORD      MDU_DA01
      000000CCH   SFRSYM    DATA     WORD      MDU_DB01
      00000087H   SFRSYM    DATA     BYTE      PCON
      000000C6H   SFRSYM    DATA     WORD      MDU_DA23
      00000088H   SFRSYM    DATA     BYTE      TCON
      00000082H   SFRSYM    DATA     WORD      DPTR
      000000D8H.0 SFRSYM    DATA     BIT       PUART0
      000000D8H.1 SFRSYM    DATA     BIT       PUART1
      000000D8H.2 SFRSYM    DATA     BIT       PI2C0
      00000088H.2 SFRSYM    DATA     BIT       IF0
      000000D8H.3 SFRSYM    DATA     BIT       PI2C1
      000000AEH   SFRSYM    DATA     WORD      TIM2__ARR
      000000A1H   SFRSYM    DATA     BYTE      TIM2_CR0
      000000A6H   SFRSYM    DATA     WORD      TIM3__ARR
      0000009CH   SFRSYM    DATA     BYTE      TIM3_CR0
      000000A9H   SFRSYM    DATA     BYTE      TIM2_CR1
      00000096H   SFRSYM    DATA     WORD      TIM4__ARR
      0000009EH   SFRSYM    DATA     BYTE      TIM4_CR0
      0000009DH   SFRSYM    DATA     BYTE      TIM3_CR1
      000000F8H   SFRSYM    DATA     BYTE      DRV_OUT
      0000009FH   SFRSYM    DATA     BYTE      TIM4_CR1
      000000DBH   SFRSYM    DATA     BYTE      LVSR
      000000A8H.4 SFRSYM    DATA     BIT       ES0
      00000085H   SFRSYM    DATA     BYTE      FLA_CR
      000000C0H.4 SFRSYM    DATA     BIT       PADC0
      000000B8H   SFRSYM    DATA     BYTE      IP0
      000000C0H.5 SFRSYM    DATA     BIT       PADC1
      000000C0H   SFRSYM    DATA     BYTE      IP1
      000000C8H   SFRSYM    DATA     BYTE      IP2
      00000098H.2 SFRSYM    DATA     BIT       RB8
      000000D8H   SFRSYM    DATA     BYTE      IP3
      000000A8H.0 SFRSYM    DATA     BIT       EX0
      00000098H.3 SFRSYM    DATA     BIT       TB8
      000000A8H.2 SFRSYM    DATA     BIT       EX1
      000000D0H.0 SFRSYM    DATA     BIT       P
      000000F9H   SFRSYM    DATA     BYTE      PI_LPF_CR
      00000098H.5 SFRSYM    DATA     BIT       SM2
      000000D8H.6 SFRSYM    DATA     BIT       PDMA0
      000000D8H.7 SFRSYM    DATA     BIT       PDMA1
      000000C2H   SFRSYM    DATA     WORD      MDU_MA
      000000D0H.3 SFRSYM    DATA     BIT       RS0
      000000CAH   SFRSYM    DATA     WORD      MDU_MB
      000000D0H.4 SFRSYM    DATA     BIT       RS1
      000000C1H   SFRSYM    DATA     BYTE      MDU_CR
      000000F8H.7 SFRSYM    DATA     BIT       MOE
      000000C0H.6 SFRSYM    DATA     BIT       PCMP0
LX51 LINKER/LOCATER V4.66.100.0                                                       04/25/2024  14:24:29  PAGE 108


      000000C0H.7 SFRSYM    DATA     BIT       PCMP1
      000000F8H.4 SFRSYM    DATA     BIT       OISWXH
      00000098H.4 SFRSYM    DATA     BIT       REN
      000000D7H   SFRSYM    DATA     BYTE      CMP_SR
      000000F8H.5 SFRSYM    DATA     BIT       OISWXL
      000000C8H.6 SFRSYM    DATA     BIT       PTSD0
      000000D8H.4 SFRSYM    DATA     BIT       PSPI0
      000000C8H.7 SFRSYM    DATA     BIT       PTSD1
      000000B8H.6 SFRSYM    DATA     BIT       PDRV0
      000000D8H.5 SFRSYM    DATA     BIT       PSPI1
      000000B8H.7 SFRSYM    DATA     BIT       PDRV1
      000000D1H   SFRSYM    DATA     BYTE      P1_IE
      000000D3H   SFRSYM    DATA     BYTE      P2_IE
      000000D2H   SFRSYM    DATA     BYTE      P1_IF
      000000D4H   SFRSYM    DATA     BYTE      P2_IF
      000000ACH   SFRSYM    DATA     WORD      TIM2__DR
      000000C8H.4 SFRSYM    DATA     BIT       PTIM4S0
      000000FCH   SFRSYM    DATA     BYTE      P0_OE
      000000A4H   SFRSYM    DATA     WORD      TIM3__DR
      000000C8H.5 SFRSYM    DATA     BIT       PTIM4S1
      000000FDH   SFRSYM    DATA     BYTE      P1_OE
      00000094H   SFRSYM    DATA     WORD      TIM4__DR
      000000D0H.5 SFRSYM    DATA     BIT       F0
      000000FEH   SFRSYM    DATA     BYTE      P2_OE
      000000D0H.1 SFRSYM    DATA     BIT       F1
      000000FFH   SFRSYM    DATA     BYTE      P3_OE
      00000080H.0 SFRSYM    DATA     BIT       GP00
      000000E9H   SFRSYM    DATA     BYTE      P4_OE
      00000090H.0 SFRSYM    DATA     BIT       GP10
      00000080H.1 SFRSYM    DATA     BIT       GP01
      000000A0H.0 SFRSYM    DATA     BIT       GP20
      00000090H.1 SFRSYM    DATA     BIT       GP11
      00000080H.2 SFRSYM    DATA     BIT       GP02
      000000B0H.0 SFRSYM    DATA     BIT       GP30
      000000A0H.1 SFRSYM    DATA     BIT       GP21
      00000090H.2 SFRSYM    DATA     BIT       GP12
      00000080H.3 SFRSYM    DATA     BIT       GP03
      000000B8H.0 SFRSYM    DATA     BIT       PLVW0
      000000A8H.1 SFRSYM    DATA     BIT       TSDIE
      000000D0H   SFRSYM    DATA     BYTE      PSW
      000000E8H.0 SFRSYM    DATA     BIT       GP40
      000000B0H.1 SFRSYM    DATA     BIT       GP31
      000000A0H.2 SFRSYM    DATA     BIT       GP22
      00000090H.3 SFRSYM    DATA     BIT       GP13
      00000080H.4 SFRSYM    DATA     BIT       GP04
      000000B8H.1 SFRSYM    DATA     BIT       PLVW1
      000000A8H.3 SFRSYM    DATA     BIT       SPIIE
      00000088H.5 SFRSYM    DATA     BIT       TSDIF
      000000E8H.1 SFRSYM    DATA     BIT       GP41
      000000B0H.2 SFRSYM    DATA     BIT       GP32
      000000A0H.3 SFRSYM    DATA     BIT       GP23
      00000090H.4 SFRSYM    DATA     BIT       GP14
      00000080H.5 SFRSYM    DATA     BIT       GP05
      000000C4H   SFRSYM    DATA     BYTE      MDU_DA0
      000000E8H.2 SFRSYM    DATA     BIT       GP42
      000000B0H.3 SFRSYM    DATA     BIT       GP33
      000000A0H.4 SFRSYM    DATA     BIT       GP24
      00000090H.5 SFRSYM    DATA     BIT       GP15
      00000080H.6 SFRSYM    DATA     BIT       GP06
      000000CCH   SFRSYM    DATA     BYTE      MDU_DB0
      000000C5H   SFRSYM    DATA     BYTE      MDU_DA1
      00000088H.0 SFRSYM    DATA     BIT       IT00

      ---         MODULE    ---      ---       KEYSCAN
      0200022BH   PUBLIC    XDATA    ---       KS
LX51 LINKER/LOCATER V4.66.100.0                                                       04/25/2024  14:24:29  PAGE 109


      000000B0H.4 SFRSYM    DATA     BIT       GP34
      000000A0H.5 SFRSYM    DATA     BIT       GP25
      00000090H.6 SFRSYM    DATA     BIT       GP16
      00000080H.7 SFRSYM    DATA     BIT       GP07
      000000CDH   SFRSYM    DATA     BYTE      MDU_DB1
      000000C6H   SFRSYM    DATA     BYTE      MDU_DA2
      00000088H.1 SFRSYM    DATA     BIT       IT01
      00000088H.3 SFRSYM    DATA     BIT       IT10
      000000B0H.5 SFRSYM    DATA     BIT       GP35
      000000A0H.6 SFRSYM    DATA     BIT       GP26
      00000090H.7 SFRSYM    DATA     BIT       GP17
      00000080H   SFRSYM    DATA     BYTE      P0
      000000F6H   SFRSYM    DATA     WORD      PI_UKMIN
      000000C7H   SFRSYM    DATA     BYTE      MDU_DA3
      00000088H.4 SFRSYM    DATA     BIT       IT11
      000000C9H   SFRSYM    DATA     BYTE      RST_SR
      000000D9H   SFRSYM    DATA     BYTE      EVT_FILT
      000000B0H.6 SFRSYM    DATA     BIT       GP36
      000000A0H.7 SFRSYM    DATA     BIT       GP27
      00000090H   SFRSYM    DATA     BYTE      P1
      000000B0H.7 SFRSYM    DATA     BIT       GP37
      000000A0H   SFRSYM    DATA     BYTE      P2
      000000F4H   SFRSYM    DATA     WORD      PI_UKMAX
      000000B0H   SFRSYM    DATA     BYTE      P3
      000000E8H   SFRSYM    DATA     BYTE      P4
      000000D0H.6 SFRSYM    DATA     BIT       AC
      000000A8H.7 SFRSYM    DATA     BIT       EA
      000000D5H   SFRSYM    DATA     BYTE      CMP_CR0
      000000D6H   SFRSYM    DATA     BYTE      CMP_CR1
      000000DAH   SFRSYM    DATA     BYTE      CMP_CR2
      000000B8H.2 SFRSYM    DATA     BIT       PX00
      000000DCH   SFRSYM    DATA     BYTE      CMP_CR3
      000000F8H.0 SFRSYM    DATA     BIT       OISUH
      000000EAH   SFRSYM    DATA     WORD      PI_EK
      000000B8H.3 SFRSYM    DATA     BIT       PX01
      000000B8H.4 SFRSYM    DATA     BIT       PX10
      000000F8H.2 SFRSYM    DATA     BIT       OISVH
      000000B8H.5 SFRSYM    DATA     BIT       PX11
      000000F8H.1 SFRSYM    DATA     BIT       OISUL
      000000DDH   SFRSYM    DATA     BYTE      LPF_K
      000000F2H   SFRSYM    DATA     WORD      PI_KI
      000000A8H   SFRSYM    DATA     BYTE      IE
      000000F8H.3 SFRSYM    DATA     BIT       OISVL
      000000EEH   SFRSYM    DATA     WORD      PI_KP
      000000AAH   SFRSYM    DATA     WORD      TIM2__CNTR
      000000A2H   SFRSYM    DATA     WORD      TIM3__CNTR
      00000092H   SFRSYM    DATA     WORD      TIM4__CNTR
      000000ECH   SFRSYM    DATA     WORD      PI_UK
      000000DEH   SFRSYM    DATA     WORD      LPF_X
      00000098H.0 SFRSYM    DATA     BIT       RI
      00000098H.6 SFRSYM    DATA     BIT       UT_MOD0
      000000E6H   SFRSYM    DATA     WORD      LPF_Y
      00000098H.7 SFRSYM    DATA     BIT       UT_MOD1
      000000D0H.7 SFRSYM    DATA     BIT       CY
      00000098H.1 SFRSYM    DATA     BIT       TI
      000000C0H.2 SFRSYM    DATA     BIT       PTIM10
      00000084H   SFRSYM    DATA     BYTE      FLA_KEY
      000000C0H.0 SFRSYM    DATA     BIT       PTIM20
      000000C0H.3 SFRSYM    DATA     BIT       PTIM11
      00000098H   SFRSYM    DATA     BYTE      UT_CR
      000000C8H.2 SFRSYM    DATA     BIT       PTIM30
      000000C0H.1 SFRSYM    DATA     BIT       PTIM21
      00000099H   SFRSYM    DATA     BYTE      UT_DR
      000000C8H.3 SFRSYM    DATA     BIT       PTIM31
      000000D0H.2 SFRSYM    DATA     BIT       OV
LX51 LINKER/LOCATER V4.66.100.0                                                       04/25/2024  14:24:29  PAGE 110


      0000009AH   SFRSYM    DATA     WORD      UT_BAUD
      000000C4H   SFRSYM    DATA     WORD      MDU_DA01
      000000CCH   SFRSYM    DATA     WORD      MDU_DB01
      00000087H   SFRSYM    DATA     BYTE      PCON
      000000C6H   SFRSYM    DATA     WORD      MDU_DA23
      00000088H   SFRSYM    DATA     BYTE      TCON
      00000082H   SFRSYM    DATA     WORD      DPTR
      000000D8H.0 SFRSYM    DATA     BIT       PUART0
      000000D8H.1 SFRSYM    DATA     BIT       PUART1
      000000D8H.2 SFRSYM    DATA     BIT       PI2C0
      00000088H.2 SFRSYM    DATA     BIT       IF0
      000000D8H.3 SFRSYM    DATA     BIT       PI2C1
      000000AEH   SFRSYM    DATA     WORD      TIM2__ARR
      000000A1H   SFRSYM    DATA     BYTE      TIM2_CR0
      000000A6H   SFRSYM    DATA     WORD      TIM3__ARR
      0000009CH   SFRSYM    DATA     BYTE      TIM3_CR0
      000000A9H   SFRSYM    DATA     BYTE      TIM2_CR1
      00000096H   SFRSYM    DATA     WORD      TIM4__ARR
      0000009EH   SFRSYM    DATA     BYTE      TIM4_CR0
      0000009DH   SFRSYM    DATA     BYTE      TIM3_CR1
      000000F8H   SFRSYM    DATA     BYTE      DRV_OUT
      0000009FH   SFRSYM    DATA     BYTE      TIM4_CR1
      000000DBH   SFRSYM    DATA     BYTE      LVSR
      000000A8H.4 SFRSYM    DATA     BIT       ES0
      00000085H   SFRSYM    DATA     BYTE      FLA_CR
      000000C0H.4 SFRSYM    DATA     BIT       PADC0
      000000B8H   SFRSYM    DATA     BYTE      IP0
      000000C0H.5 SFRSYM    DATA     BIT       PADC1
      000000C0H   SFRSYM    DATA     BYTE      IP1
      000000C8H   SFRSYM    DATA     BYTE      IP2
      00000098H.2 SFRSYM    DATA     BIT       RB8
      000000D8H   SFRSYM    DATA     BYTE      IP3
      000000A8H.0 SFRSYM    DATA     BIT       EX0
      00000098H.3 SFRSYM    DATA     BIT       TB8
      000000A8H.2 SFRSYM    DATA     BIT       EX1
      000000D0H.0 SFRSYM    DATA     BIT       P
      000000F9H   SFRSYM    DATA     BYTE      PI_LPF_CR
      00000098H.5 SFRSYM    DATA     BIT       SM2
      000000D8H.6 SFRSYM    DATA     BIT       PDMA0
      000000D8H.7 SFRSYM    DATA     BIT       PDMA1
      000000C2H   SFRSYM    DATA     WORD      MDU_MA
      000000D0H.3 SFRSYM    DATA     BIT       RS0
      000000CAH   SFRSYM    DATA     WORD      MDU_MB
      000000D0H.4 SFRSYM    DATA     BIT       RS1
      000000C1H   SFRSYM    DATA     BYTE      MDU_CR
      000000F8H.7 SFRSYM    DATA     BIT       MOE
      000000C0H.6 SFRSYM    DATA     BIT       PCMP0
      000000C0H.7 SFRSYM    DATA     BIT       PCMP1
      000000F8H.4 SFRSYM    DATA     BIT       OISWXH
      00000098H.4 SFRSYM    DATA     BIT       REN
      000000D7H   SFRSYM    DATA     BYTE      CMP_SR
      000000F8H.5 SFRSYM    DATA     BIT       OISWXL
      000000C8H.6 SFRSYM    DATA     BIT       PTSD0
      000000D8H.4 SFRSYM    DATA     BIT       PSPI0
      000000C8H.7 SFRSYM    DATA     BIT       PTSD1
      000000B8H.6 SFRSYM    DATA     BIT       PDRV0
      000000D8H.5 SFRSYM    DATA     BIT       PSPI1
      000000B8H.7 SFRSYM    DATA     BIT       PDRV1
      000000D1H   SFRSYM    DATA     BYTE      P1_IE
      000000D3H   SFRSYM    DATA     BYTE      P2_IE
      000000D2H   SFRSYM    DATA     BYTE      P1_IF
      000000D4H   SFRSYM    DATA     BYTE      P2_IF
      000000ACH   SFRSYM    DATA     WORD      TIM2__DR
      000000C8H.4 SFRSYM    DATA     BIT       PTIM4S0
      000000FCH   SFRSYM    DATA     BYTE      P0_OE
LX51 LINKER/LOCATER V4.66.100.0                                                       04/25/2024  14:24:29  PAGE 111


      000000A4H   SFRSYM    DATA     WORD      TIM3__DR
      000000C8H.5 SFRSYM    DATA     BIT       PTIM4S1
      000000FDH   SFRSYM    DATA     BYTE      P1_OE
      00000094H   SFRSYM    DATA     WORD      TIM4__DR
      000000D0H.5 SFRSYM    DATA     BIT       F0
      000000FEH   SFRSYM    DATA     BYTE      P2_OE
      000000D0H.1 SFRSYM    DATA     BIT       F1
      000000FFH   SFRSYM    DATA     BYTE      P3_OE
      00000080H.0 SFRSYM    DATA     BIT       GP00
      000000E9H   SFRSYM    DATA     BYTE      P4_OE
      00000090H.0 SFRSYM    DATA     BIT       GP10
      00000080H.1 SFRSYM    DATA     BIT       GP01
      000000A0H.0 SFRSYM    DATA     BIT       GP20
      00000090H.1 SFRSYM    DATA     BIT       GP11
      00000080H.2 SFRSYM    DATA     BIT       GP02
      000000B0H.0 SFRSYM    DATA     BIT       GP30
      000000A0H.1 SFRSYM    DATA     BIT       GP21
      00000090H.2 SFRSYM    DATA     BIT       GP12
      00000080H.3 SFRSYM    DATA     BIT       GP03
      000000B8H.0 SFRSYM    DATA     BIT       PLVW0
      000000A8H.1 SFRSYM    DATA     BIT       TSDIE
      000000D0H   SFRSYM    DATA     BYTE      PSW
      000000E8H.0 SFRSYM    DATA     BIT       GP40
      000000B0H.1 SFRSYM    DATA     BIT       GP31
      000000A0H.2 SFRSYM    DATA     BIT       GP22
      00000090H.3 SFRSYM    DATA     BIT       GP13
      00000080H.4 SFRSYM    DATA     BIT       GP04
      000000B8H.1 SFRSYM    DATA     BIT       PLVW1
      000000A8H.3 SFRSYM    DATA     BIT       SPIIE
      00000088H.5 SFRSYM    DATA     BIT       TSDIF
      000000E8H.1 SFRSYM    DATA     BIT       GP41
      000000B0H.2 SFRSYM    DATA     BIT       GP32
      000000A0H.3 SFRSYM    DATA     BIT       GP23
      00000090H.4 SFRSYM    DATA     BIT       GP14
      00000080H.5 SFRSYM    DATA     BIT       GP05
      000000C4H   SFRSYM    DATA     BYTE      MDU_DA0
      000000E8H.2 SFRSYM    DATA     BIT       GP42
      000000B0H.3 SFRSYM    DATA     BIT       GP33
      000000A0H.4 SFRSYM    DATA     BIT       GP24
      00000090H.5 SFRSYM    DATA     BIT       GP15
      00000080H.6 SFRSYM    DATA     BIT       GP06
      000000CCH   SFRSYM    DATA     BYTE      MDU_DB0
      000000C5H   SFRSYM    DATA     BYTE      MDU_DA1
      00000088H.0 SFRSYM    DATA     BIT       IT00

      ---         MODULE    ---      ---       LED
      00000021H.6 PUBLIC    BIT      BIT       LH_Gear
      020002C5H   PUBLIC    XDATA    WORD      KeyCount_Dd1
      020002C3H   PUBLIC    XDATA    WORD      KeyCount_Up
      020002C1H   PUBLIC    XDATA    WORD      KeyCount_Dd
      020002BFH   PUBLIC    XDATA    WORD      KeyCount_Long
      000000B0H.4 SFRSYM    DATA     BIT       GP34
      000000A0H.5 SFRSYM    DATA     BIT       GP25
      00000090H.6 SFRSYM    DATA     BIT       GP16
      00000080H.7 SFRSYM    DATA     BIT       GP07
      000000CDH   SFRSYM    DATA     BYTE      MDU_DB1
      000000C6H   SFRSYM    DATA     BYTE      MDU_DA2
      00000088H.1 SFRSYM    DATA     BIT       IT01
      00000088H.3 SFRSYM    DATA     BIT       IT10
      000000B0H.5 SFRSYM    DATA     BIT       GP35
      000000A0H.6 SFRSYM    DATA     BIT       GP26
      00000090H.7 SFRSYM    DATA     BIT       GP17
      00000080H   SFRSYM    DATA     BYTE      P0
      000000F6H   SFRSYM    DATA     WORD      PI_UKMIN
      000000C7H   SFRSYM    DATA     BYTE      MDU_DA3
LX51 LINKER/LOCATER V4.66.100.0                                                       04/25/2024  14:24:29  PAGE 112


      00000088H.4 SFRSYM    DATA     BIT       IT11
      000000C9H   SFRSYM    DATA     BYTE      RST_SR
      000000D9H   SFRSYM    DATA     BYTE      EVT_FILT
      000000B0H.6 SFRSYM    DATA     BIT       GP36
      000000A0H.7 SFRSYM    DATA     BIT       GP27
      00000090H   SFRSYM    DATA     BYTE      P1
      000000B0H.7 SFRSYM    DATA     BIT       GP37
      000000A0H   SFRSYM    DATA     BYTE      P2
      000000F4H   SFRSYM    DATA     WORD      PI_UKMAX
      000000B0H   SFRSYM    DATA     BYTE      P3
      000000E8H   SFRSYM    DATA     BYTE      P4
      000000D0H.6 SFRSYM    DATA     BIT       AC
      000000A8H.7 SFRSYM    DATA     BIT       EA
      000000D5H   SFRSYM    DATA     BYTE      CMP_CR0
      000000D6H   SFRSYM    DATA     BYTE      CMP_CR1
      000000DAH   SFRSYM    DATA     BYTE      CMP_CR2
      000000B8H.2 SFRSYM    DATA     BIT       PX00
      000000DCH   SFRSYM    DATA     BYTE      CMP_CR3
      000000F8H.0 SFRSYM    DATA     BIT       OISUH
      000000EAH   SFRSYM    DATA     WORD      PI_EK
      000000B8H.3 SFRSYM    DATA     BIT       PX01
      000000B8H.4 SFRSYM    DATA     BIT       PX10
      000000F8H.2 SFRSYM    DATA     BIT       OISVH
      000000B8H.5 SFRSYM    DATA     BIT       PX11
      000000F8H.1 SFRSYM    DATA     BIT       OISUL
      000000DDH   SFRSYM    DATA     BYTE      LPF_K
      000000F2H   SFRSYM    DATA     WORD      PI_KI
      000000A8H   SFRSYM    DATA     BYTE      IE
      000000F8H.3 SFRSYM    DATA     BIT       OISVL
      000000EEH   SFRSYM    DATA     WORD      PI_KP
      000000AAH   SFRSYM    DATA     WORD      TIM2__CNTR
      000000A2H   SFRSYM    DATA     WORD      TIM3__CNTR
      00000092H   SFRSYM    DATA     WORD      TIM4__CNTR
      000000ECH   SFRSYM    DATA     WORD      PI_UK
      000000DEH   SFRSYM    DATA     WORD      LPF_X
      00000098H.0 SFRSYM    DATA     BIT       RI
      00000098H.6 SFRSYM    DATA     BIT       UT_MOD0
      000000E6H   SFRSYM    DATA     WORD      LPF_Y
      00000098H.7 SFRSYM    DATA     BIT       UT_MOD1
      000000D0H.7 SFRSYM    DATA     BIT       CY
      00000098H.1 SFRSYM    DATA     BIT       TI
      000000C0H.2 SFRSYM    DATA     BIT       PTIM10
      00000084H   SFRSYM    DATA     BYTE      FLA_KEY
      000000C0H.0 SFRSYM    DATA     BIT       PTIM20
      000000C0H.3 SFRSYM    DATA     BIT       PTIM11
      00000098H   SFRSYM    DATA     BYTE      UT_CR
      000000C8H.2 SFRSYM    DATA     BIT       PTIM30
      000000C0H.1 SFRSYM    DATA     BIT       PTIM21
      00000099H   SFRSYM    DATA     BYTE      UT_DR
      000000C8H.3 SFRSYM    DATA     BIT       PTIM31
      000000D0H.2 SFRSYM    DATA     BIT       OV
      0000009AH   SFRSYM    DATA     WORD      UT_BAUD
      000000C4H   SFRSYM    DATA     WORD      MDU_DA01
      000000CCH   SFRSYM    DATA     WORD      MDU_DB01
      00000087H   SFRSYM    DATA     BYTE      PCON
      000000C6H   SFRSYM    DATA     WORD      MDU_DA23
      00000088H   SFRSYM    DATA     BYTE      TCON
      00000082H   SFRSYM    DATA     WORD      DPTR
      000000D8H.0 SFRSYM    DATA     BIT       PUART0
      000000D8H.1 SFRSYM    DATA     BIT       PUART1
      000000D8H.2 SFRSYM    DATA     BIT       PI2C0
      00000088H.2 SFRSYM    DATA     BIT       IF0
      000000D8H.3 SFRSYM    DATA     BIT       PI2C1
      000000AEH   SFRSYM    DATA     WORD      TIM2__ARR
      000000A1H   SFRSYM    DATA     BYTE      TIM2_CR0
LX51 LINKER/LOCATER V4.66.100.0                                                       04/25/2024  14:24:29  PAGE 113


      000000A6H   SFRSYM    DATA     WORD      TIM3__ARR
      0000009CH   SFRSYM    DATA     BYTE      TIM3_CR0
      000000A9H   SFRSYM    DATA     BYTE      TIM2_CR1
      00000096H   SFRSYM    DATA     WORD      TIM4__ARR
      0000009EH   SFRSYM    DATA     BYTE      TIM4_CR0
      0000009DH   SFRSYM    DATA     BYTE      TIM3_CR1
      000000F8H   SFRSYM    DATA     BYTE      DRV_OUT
      0000009FH   SFRSYM    DATA     BYTE      TIM4_CR1
      000000DBH   SFRSYM    DATA     BYTE      LVSR
      000000A8H.4 SFRSYM    DATA     BIT       ES0
      00000085H   SFRSYM    DATA     BYTE      FLA_CR
      000000C0H.4 SFRSYM    DATA     BIT       PADC0
      000000B8H   SFRSYM    DATA     BYTE      IP0
      000000C0H.5 SFRSYM    DATA     BIT       PADC1
      000000C0H   SFRSYM    DATA     BYTE      IP1
      000000C8H   SFRSYM    DATA     BYTE      IP2
      00000098H.2 SFRSYM    DATA     BIT       RB8
      000000D8H   SFRSYM    DATA     BYTE      IP3
      000000A8H.0 SFRSYM    DATA     BIT       EX0
      00000098H.3 SFRSYM    DATA     BIT       TB8
      000000A8H.2 SFRSYM    DATA     BIT       EX1
      000000D0H.0 SFRSYM    DATA     BIT       P
      000000F9H   SFRSYM    DATA     BYTE      PI_LPF_CR
      00000098H.5 SFRSYM    DATA     BIT       SM2
      000000D8H.6 SFRSYM    DATA     BIT       PDMA0
      000000D8H.7 SFRSYM    DATA     BIT       PDMA1
      000000C2H   SFRSYM    DATA     WORD      MDU_MA
      000000D0H.3 SFRSYM    DATA     BIT       RS0
      000000CAH   SFRSYM    DATA     WORD      MDU_MB
      000000D0H.4 SFRSYM    DATA     BIT       RS1
      000000C1H   SFRSYM    DATA     BYTE      MDU_CR
      000000F8H.7 SFRSYM    DATA     BIT       MOE
      000000C0H.6 SFRSYM    DATA     BIT       PCMP0
      000000C0H.7 SFRSYM    DATA     BIT       PCMP1
      000000F8H.4 SFRSYM    DATA     BIT       OISWXH
      00000098H.4 SFRSYM    DATA     BIT       REN
      000000D7H   SFRSYM    DATA     BYTE      CMP_SR
      000000F8H.5 SFRSYM    DATA     BIT       OISWXL
      000000C8H.6 SFRSYM    DATA     BIT       PTSD0
      000000D8H.4 SFRSYM    DATA     BIT       PSPI0
      000000C8H.7 SFRSYM    DATA     BIT       PTSD1
      000000B8H.6 SFRSYM    DATA     BIT       PDRV0
      000000D8H.5 SFRSYM    DATA     BIT       PSPI1
      000000B8H.7 SFRSYM    DATA     BIT       PDRV1
      000000D1H   SFRSYM    DATA     BYTE      P1_IE
      000000D3H   SFRSYM    DATA     BYTE      P2_IE
      000000D2H   SFRSYM    DATA     BYTE      P1_IF
      000000D4H   SFRSYM    DATA     BYTE      P2_IF
      000000ACH   SFRSYM    DATA     WORD      TIM2__DR
      000000C8H.4 SFRSYM    DATA     BIT       PTIM4S0
      000000FCH   SFRSYM    DATA     BYTE      P0_OE
      000000A4H   SFRSYM    DATA     WORD      TIM3__DR
      000000C8H.5 SFRSYM    DATA     BIT       PTIM4S1
      000000FDH   SFRSYM    DATA     BYTE      P1_OE
      00000094H   SFRSYM    DATA     WORD      TIM4__DR
      000000D0H.5 SFRSYM    DATA     BIT       F0
      000000FEH   SFRSYM    DATA     BYTE      P2_OE
      000000D0H.1 SFRSYM    DATA     BIT       F1
      000000FFH   SFRSYM    DATA     BYTE      P3_OE
      00000080H.0 SFRSYM    DATA     BIT       GP00
      000000E9H   SFRSYM    DATA     BYTE      P4_OE
      00000090H.0 SFRSYM    DATA     BIT       GP10
      00000080H.1 SFRSYM    DATA     BIT       GP01
      000000A0H.0 SFRSYM    DATA     BIT       GP20
      00000090H.1 SFRSYM    DATA     BIT       GP11
LX51 LINKER/LOCATER V4.66.100.0                                                       04/25/2024  14:24:29  PAGE 114


      00000080H.2 SFRSYM    DATA     BIT       GP02
      000000B0H.0 SFRSYM    DATA     BIT       GP30
      000000A0H.1 SFRSYM    DATA     BIT       GP21
      00000090H.2 SFRSYM    DATA     BIT       GP12
      00000080H.3 SFRSYM    DATA     BIT       GP03
      000000B8H.0 SFRSYM    DATA     BIT       PLVW0
      000000A8H.1 SFRSYM    DATA     BIT       TSDIE
      000000D0H   SFRSYM    DATA     BYTE      PSW
      000000E8H.0 SFRSYM    DATA     BIT       GP40
      000000B0H.1 SFRSYM    DATA     BIT       GP31
      000000A0H.2 SFRSYM    DATA     BIT       GP22
      00000090H.3 SFRSYM    DATA     BIT       GP13
      00000080H.4 SFRSYM    DATA     BIT       GP04
      000000B8H.1 SFRSYM    DATA     BIT       PLVW1
      000000A8H.3 SFRSYM    DATA     BIT       SPIIE
      00000088H.5 SFRSYM    DATA     BIT       TSDIF
      000000E8H.1 SFRSYM    DATA     BIT       GP41
      000000B0H.2 SFRSYM    DATA     BIT       GP32
      000000A0H.3 SFRSYM    DATA     BIT       GP23
      00000090H.4 SFRSYM    DATA     BIT       GP14
      00000080H.5 SFRSYM    DATA     BIT       GP05
      000000C4H   SFRSYM    DATA     BYTE      MDU_DA0
      000000E8H.2 SFRSYM    DATA     BIT       GP42
      000000B0H.3 SFRSYM    DATA     BIT       GP33
      000000A0H.4 SFRSYM    DATA     BIT       GP24
      00000090H.5 SFRSYM    DATA     BIT       GP15
      00000080H.6 SFRSYM    DATA     BIT       GP06
      000000CCH   SFRSYM    DATA     BYTE      MDU_DB0
      000000C5H   SFRSYM    DATA     BYTE      MDU_DA1
      00000088H.0 SFRSYM    DATA     BIT       IT00

      ---         MODULE    ---      ---       FLASH
      020002CDH   PUBLIC    XDATA    ---       Rom
      0000000AH   PUBLIC    IDATA    BYTE      FLASHUsingStatus
      000000B0H.4 SFRSYM    DATA     BIT       GP34
      000000A0H.5 SFRSYM    DATA     BIT       GP25
      00000090H.6 SFRSYM    DATA     BIT       GP16
      00000080H.7 SFRSYM    DATA     BIT       GP07
      000000CDH   SFRSYM    DATA     BYTE      MDU_DB1
      000000C6H   SFRSYM    DATA     BYTE      MDU_DA2
      00000088H.1 SFRSYM    DATA     BIT       IT01
      00000088H.3 SFRSYM    DATA     BIT       IT10
      000000B0H.5 SFRSYM    DATA     BIT       GP35
      000000A0H.6 SFRSYM    DATA     BIT       GP26
      00000090H.7 SFRSYM    DATA     BIT       GP17
      00000080H   SFRSYM    DATA     BYTE      P0
      000000F6H   SFRSYM    DATA     WORD      PI_UKMIN
      000000C7H   SFRSYM    DATA     BYTE      MDU_DA3
      00000088H.4 SFRSYM    DATA     BIT       IT11
      000000C9H   SFRSYM    DATA     BYTE      RST_SR
      000000D9H   SFRSYM    DATA     BYTE      EVT_FILT
      000000B0H.6 SFRSYM    DATA     BIT       GP36
      000000A0H.7 SFRSYM    DATA     BIT       GP27
      00000090H   SFRSYM    DATA     BYTE      P1
      000000B0H.7 SFRSYM    DATA     BIT       GP37
      000000A0H   SFRSYM    DATA     BYTE      P2
      000000F4H   SFRSYM    DATA     WORD      PI_UKMAX
      000000B0H   SFRSYM    DATA     BYTE      P3
      000000E8H   SFRSYM    DATA     BYTE      P4
      000000D0H.6 SFRSYM    DATA     BIT       AC
      000000A8H.7 SFRSYM    DATA     BIT       EA
      000000D5H   SFRSYM    DATA     BYTE      CMP_CR0
      000000D6H   SFRSYM    DATA     BYTE      CMP_CR1
      000000DAH   SFRSYM    DATA     BYTE      CMP_CR2
      000000B8H.2 SFRSYM    DATA     BIT       PX00
LX51 LINKER/LOCATER V4.66.100.0                                                       04/25/2024  14:24:29  PAGE 115


      000000DCH   SFRSYM    DATA     BYTE      CMP_CR3
      000000F8H.0 SFRSYM    DATA     BIT       OISUH
      000000EAH   SFRSYM    DATA     WORD      PI_EK
      000000B8H.3 SFRSYM    DATA     BIT       PX01
      000000B8H.4 SFRSYM    DATA     BIT       PX10
      000000F8H.2 SFRSYM    DATA     BIT       OISVH
      000000B8H.5 SFRSYM    DATA     BIT       PX11
      000000F8H.1 SFRSYM    DATA     BIT       OISUL
      000000DDH   SFRSYM    DATA     BYTE      LPF_K
      000000F2H   SFRSYM    DATA     WORD      PI_KI
      000000A8H   SFRSYM    DATA     BYTE      IE
      000000F8H.3 SFRSYM    DATA     BIT       OISVL
      000000EEH   SFRSYM    DATA     WORD      PI_KP
      000000AAH   SFRSYM    DATA     WORD      TIM2__CNTR
      000000A2H   SFRSYM    DATA     WORD      TIM3__CNTR
      00000092H   SFRSYM    DATA     WORD      TIM4__CNTR
      000000ECH   SFRSYM    DATA     WORD      PI_UK
      000000DEH   SFRSYM    DATA     WORD      LPF_X
      00000098H.0 SFRSYM    DATA     BIT       RI
      00000098H.6 SFRSYM    DATA     BIT       UT_MOD0
      000000E6H   SFRSYM    DATA     WORD      LPF_Y
      00000098H.7 SFRSYM    DATA     BIT       UT_MOD1
      000000D0H.7 SFRSYM    DATA     BIT       CY
      00000098H.1 SFRSYM    DATA     BIT       TI
      000000C0H.2 SFRSYM    DATA     BIT       PTIM10
      00000084H   SFRSYM    DATA     BYTE      FLA_KEY
      000000C0H.0 SFRSYM    DATA     BIT       PTIM20
      000000C0H.3 SFRSYM    DATA     BIT       PTIM11
      00000098H   SFRSYM    DATA     BYTE      UT_CR
      000000C8H.2 SFRSYM    DATA     BIT       PTIM30
      000000C0H.1 SFRSYM    DATA     BIT       PTIM21
      00000099H   SFRSYM    DATA     BYTE      UT_DR
      000000C8H.3 SFRSYM    DATA     BIT       PTIM31
      000000D0H.2 SFRSYM    DATA     BIT       OV
      0000009AH   SFRSYM    DATA     WORD      UT_BAUD
      000000C4H   SFRSYM    DATA     WORD      MDU_DA01
      000000CCH   SFRSYM    DATA     WORD      MDU_DB01
      00000087H   SFRSYM    DATA     BYTE      PCON
      000000C6H   SFRSYM    DATA     WORD      MDU_DA23
      00000088H   SFRSYM    DATA     BYTE      TCON
      00000082H   SFRSYM    DATA     WORD      DPTR
      000000D8H.0 SFRSYM    DATA     BIT       PUART0
      000000D8H.1 SFRSYM    DATA     BIT       PUART1
      000000D8H.2 SFRSYM    DATA     BIT       PI2C0
      00000088H.2 SFRSYM    DATA     BIT       IF0
      000000D8H.3 SFRSYM    DATA     BIT       PI2C1
      000000AEH   SFRSYM    DATA     WORD      TIM2__ARR
      000000A1H   SFRSYM    DATA     BYTE      TIM2_CR0
      000000A6H   SFRSYM    DATA     WORD      TIM3__ARR
      0000009CH   SFRSYM    DATA     BYTE      TIM3_CR0
      000000A9H   SFRSYM    DATA     BYTE      TIM2_CR1
      00000096H   SFRSYM    DATA     WORD      TIM4__ARR
      0000009EH   SFRSYM    DATA     BYTE      TIM4_CR0
      0000009DH   SFRSYM    DATA     BYTE      TIM3_CR1
      000000F8H   SFRSYM    DATA     BYTE      DRV_OUT
      0000009FH   SFRSYM    DATA     BYTE      TIM4_CR1
      000000DBH   SFRSYM    DATA     BYTE      LVSR
      000000A8H.4 SFRSYM    DATA     BIT       ES0
      00000085H   SFRSYM    DATA     BYTE      FLA_CR
      000000C0H.4 SFRSYM    DATA     BIT       PADC0
      000000B8H   SFRSYM    DATA     BYTE      IP0
      000000C0H.5 SFRSYM    DATA     BIT       PADC1
      000000C0H   SFRSYM    DATA     BYTE      IP1
      000000C8H   SFRSYM    DATA     BYTE      IP2
      00000098H.2 SFRSYM    DATA     BIT       RB8
LX51 LINKER/LOCATER V4.66.100.0                                                       04/25/2024  14:24:29  PAGE 116


      000000D8H   SFRSYM    DATA     BYTE      IP3
      000000A8H.0 SFRSYM    DATA     BIT       EX0
      00000098H.3 SFRSYM    DATA     BIT       TB8
      000000A8H.2 SFRSYM    DATA     BIT       EX1
      000000D0H.0 SFRSYM    DATA     BIT       P
      000000F9H   SFRSYM    DATA     BYTE      PI_LPF_CR
      00000098H.5 SFRSYM    DATA     BIT       SM2
      000000D8H.6 SFRSYM    DATA     BIT       PDMA0
      000000D8H.7 SFRSYM    DATA     BIT       PDMA1
      000000C2H   SFRSYM    DATA     WORD      MDU_MA
      000000D0H.3 SFRSYM    DATA     BIT       RS0
      000000CAH   SFRSYM    DATA     WORD      MDU_MB
      000000D0H.4 SFRSYM    DATA     BIT       RS1
      000000C1H   SFRSYM    DATA     BYTE      MDU_CR
      000000F8H.7 SFRSYM    DATA     BIT       MOE
      000000C0H.6 SFRSYM    DATA     BIT       PCMP0
      000000C0H.7 SFRSYM    DATA     BIT       PCMP1
      000000F8H.4 SFRSYM    DATA     BIT       OISWXH
      00000098H.4 SFRSYM    DATA     BIT       REN
      000000D7H   SFRSYM    DATA     BYTE      CMP_SR
      000000F8H.5 SFRSYM    DATA     BIT       OISWXL
      000000C8H.6 SFRSYM    DATA     BIT       PTSD0
      000000D8H.4 SFRSYM    DATA     BIT       PSPI0
      000000C8H.7 SFRSYM    DATA     BIT       PTSD1
      000000B8H.6 SFRSYM    DATA     BIT       PDRV0
      000000D8H.5 SFRSYM    DATA     BIT       PSPI1
      000000B8H.7 SFRSYM    DATA     BIT       PDRV1
      000000D1H   SFRSYM    DATA     BYTE      P1_IE
      000000D3H   SFRSYM    DATA     BYTE      P2_IE
      000000D2H   SFRSYM    DATA     BYTE      P1_IF
      000000D4H   SFRSYM    DATA     BYTE      P2_IF
      000000ACH   SFRSYM    DATA     WORD      TIM2__DR
      000000C8H.4 SFRSYM    DATA     BIT       PTIM4S0
      000000FCH   SFRSYM    DATA     BYTE      P0_OE
      000000A4H   SFRSYM    DATA     WORD      TIM3__DR
      000000C8H.5 SFRSYM    DATA     BIT       PTIM4S1
      000000FDH   SFRSYM    DATA     BYTE      P1_OE
      00000094H   SFRSYM    DATA     WORD      TIM4__DR
      000000D0H.5 SFRSYM    DATA     BIT       F0
      000000FEH   SFRSYM    DATA     BYTE      P2_OE
      000000D0H.1 SFRSYM    DATA     BIT       F1
      000000FFH   SFRSYM    DATA     BYTE      P3_OE
      00000080H.0 SFRSYM    DATA     BIT       GP00
      000000E9H   SFRSYM    DATA     BYTE      P4_OE
      00000090H.0 SFRSYM    DATA     BIT       GP10
      00000080H.1 SFRSYM    DATA     BIT       GP01
      000000A0H.0 SFRSYM    DATA     BIT       GP20
      00000090H.1 SFRSYM    DATA     BIT       GP11
      00000080H.2 SFRSYM    DATA     BIT       GP02
      000000B0H.0 SFRSYM    DATA     BIT       GP30
      000000A0H.1 SFRSYM    DATA     BIT       GP21
      00000090H.2 SFRSYM    DATA     BIT       GP12
      00000080H.3 SFRSYM    DATA     BIT       GP03
      000000B8H.0 SFRSYM    DATA     BIT       PLVW0
      000000A8H.1 SFRSYM    DATA     BIT       TSDIE
      000000D0H   SFRSYM    DATA     BYTE      PSW
      000000E8H.0 SFRSYM    DATA     BIT       GP40
      000000B0H.1 SFRSYM    DATA     BIT       GP31
      000000A0H.2 SFRSYM    DATA     BIT       GP22
      00000090H.3 SFRSYM    DATA     BIT       GP13
      00000080H.4 SFRSYM    DATA     BIT       GP04
      000000B8H.1 SFRSYM    DATA     BIT       PLVW1
      000000A8H.3 SFRSYM    DATA     BIT       SPIIE
      00000088H.5 SFRSYM    DATA     BIT       TSDIF
      000000E8H.1 SFRSYM    DATA     BIT       GP41
LX51 LINKER/LOCATER V4.66.100.0                                                       04/25/2024  14:24:29  PAGE 117


      000000B0H.2 SFRSYM    DATA     BIT       GP32
      000000A0H.3 SFRSYM    DATA     BIT       GP23
      00000090H.4 SFRSYM    DATA     BIT       GP14
      00000080H.5 SFRSYM    DATA     BIT       GP05
      000000C4H   SFRSYM    DATA     BYTE      MDU_DA0
      000000E8H.2 SFRSYM    DATA     BIT       GP42
      000000B0H.3 SFRSYM    DATA     BIT       GP33
      000000A0H.4 SFRSYM    DATA     BIT       GP24
      00000090H.5 SFRSYM    DATA     BIT       GP15
      00000080H.6 SFRSYM    DATA     BIT       GP06
      000000CCH   SFRSYM    DATA     BYTE      MDU_DB0
      000000C5H   SFRSYM    DATA     BYTE      MDU_DA1
      00000088H.0 SFRSYM    DATA     BIT       IT00
      00000006H   SYMBOL    DATA     ---       BlockStartAddr
      00000004H   SYMBOL    DATA     WORD      NewData2Flash
      00000006H   SYMBOL    DATA     ---       BlockStartAddr
      00000005H   SYMBOL    DATA     BYTE      NewData2Flash
      00000005H   SYMBOL    DATA     BYTE      tempofFlashData
      00000006H   SYMBOL    DATA     ---       BlockStartAddr
      00000004H   SYMBOL    DATA     ---       FlashStartAddr
      00000007H   SYMBOL    DATA     BYTE      i
      00000006H   SYMBOL    DATA     BYTE      tempofFlashData

      ---         MODULE    ---      ---       AMPINIT
      0100382BH   PUBLIC    CODE     ---       AMP_Init
      000000B0H.4 SFRSYM    DATA     BIT       GP34
      000000A0H.5 SFRSYM    DATA     BIT       GP25
      00000090H.6 SFRSYM    DATA     BIT       GP16
      00000080H.7 SFRSYM    DATA     BIT       GP07
      000000CDH   SFRSYM    DATA     BYTE      MDU_DB1
      000000C6H   SFRSYM    DATA     BYTE      MDU_DA2
      00000088H.1 SFRSYM    DATA     BIT       IT01
      00000088H.3 SFRSYM    DATA     BIT       IT10
      000000B0H.5 SFRSYM    DATA     BIT       GP35
      000000A0H.6 SFRSYM    DATA     BIT       GP26
      00000090H.7 SFRSYM    DATA     BIT       GP17
      00000080H   SFRSYM    DATA     BYTE      P0
      000000F6H   SFRSYM    DATA     WORD      PI_UKMIN
      000000C7H   SFRSYM    DATA     BYTE      MDU_DA3
      00000088H.4 SFRSYM    DATA     BIT       IT11
      000000C9H   SFRSYM    DATA     BYTE      RST_SR
      000000D9H   SFRSYM    DATA     BYTE      EVT_FILT
      000000B0H.6 SFRSYM    DATA     BIT       GP36
      000000A0H.7 SFRSYM    DATA     BIT       GP27
      00000090H   SFRSYM    DATA     BYTE      P1
      000000B0H.7 SFRSYM    DATA     BIT       GP37
      000000A0H   SFRSYM    DATA     BYTE      P2
      000000F4H   SFRSYM    DATA     WORD      PI_UKMAX
      000000B0H   SFRSYM    DATA     BYTE      P3
      000000E8H   SFRSYM    DATA     BYTE      P4
      000000D0H.6 SFRSYM    DATA     BIT       AC
      000000A8H.7 SFRSYM    DATA     BIT       EA
      000000D5H   SFRSYM    DATA     BYTE      CMP_CR0
      000000D6H   SFRSYM    DATA     BYTE      CMP_CR1
      000000DAH   SFRSYM    DATA     BYTE      CMP_CR2
      000000B8H.2 SFRSYM    DATA     BIT       PX00
      000000DCH   SFRSYM    DATA     BYTE      CMP_CR3
      000000F8H.0 SFRSYM    DATA     BIT       OISUH
      000000EAH   SFRSYM    DATA     WORD      PI_EK
      000000B8H.3 SFRSYM    DATA     BIT       PX01
      000000B8H.4 SFRSYM    DATA     BIT       PX10
      000000F8H.2 SFRSYM    DATA     BIT       OISVH
      000000B8H.5 SFRSYM    DATA     BIT       PX11
      000000F8H.1 SFRSYM    DATA     BIT       OISUL
      000000DDH   SFRSYM    DATA     BYTE      LPF_K
LX51 LINKER/LOCATER V4.66.100.0                                                       04/25/2024  14:24:29  PAGE 118


      000000F2H   SFRSYM    DATA     WORD      PI_KI
      000000A8H   SFRSYM    DATA     BYTE      IE
      000000F8H.3 SFRSYM    DATA     BIT       OISVL
      000000EEH   SFRSYM    DATA     WORD      PI_KP
      000000AAH   SFRSYM    DATA     WORD      TIM2__CNTR
      000000A2H   SFRSYM    DATA     WORD      TIM3__CNTR
      00000092H   SFRSYM    DATA     WORD      TIM4__CNTR
      000000ECH   SFRSYM    DATA     WORD      PI_UK
      000000DEH   SFRSYM    DATA     WORD      LPF_X
      00000098H.0 SFRSYM    DATA     BIT       RI
      00000098H.6 SFRSYM    DATA     BIT       UT_MOD0
      000000E6H   SFRSYM    DATA     WORD      LPF_Y
      00000098H.7 SFRSYM    DATA     BIT       UT_MOD1
      000000D0H.7 SFRSYM    DATA     BIT       CY
      00000098H.1 SFRSYM    DATA     BIT       TI
      000000C0H.2 SFRSYM    DATA     BIT       PTIM10
      00000084H   SFRSYM    DATA     BYTE      FLA_KEY
      000000C0H.0 SFRSYM    DATA     BIT       PTIM20
      000000C0H.3 SFRSYM    DATA     BIT       PTIM11
      00000098H   SFRSYM    DATA     BYTE      UT_CR
      000000C8H.2 SFRSYM    DATA     BIT       PTIM30
      000000C0H.1 SFRSYM    DATA     BIT       PTIM21
      00000099H   SFRSYM    DATA     BYTE      UT_DR
      000000C8H.3 SFRSYM    DATA     BIT       PTIM31
      000000D0H.2 SFRSYM    DATA     BIT       OV
      0000009AH   SFRSYM    DATA     WORD      UT_BAUD
      000000C4H   SFRSYM    DATA     WORD      MDU_DA01
      000000CCH   SFRSYM    DATA     WORD      MDU_DB01
      00000087H   SFRSYM    DATA     BYTE      PCON
      000000C6H   SFRSYM    DATA     WORD      MDU_DA23
      00000088H   SFRSYM    DATA     BYTE      TCON
      00000082H   SFRSYM    DATA     WORD      DPTR
      000000D8H.0 SFRSYM    DATA     BIT       PUART0
      000000D8H.1 SFRSYM    DATA     BIT       PUART1
      000000D8H.2 SFRSYM    DATA     BIT       PI2C0
      00000088H.2 SFRSYM    DATA     BIT       IF0
      000000D8H.3 SFRSYM    DATA     BIT       PI2C1
      000000AEH   SFRSYM    DATA     WORD      TIM2__ARR
      000000A1H   SFRSYM    DATA     BYTE      TIM2_CR0
      000000A6H   SFRSYM    DATA     WORD      TIM3__ARR
      0000009CH   SFRSYM    DATA     BYTE      TIM3_CR0
      000000A9H   SFRSYM    DATA     BYTE      TIM2_CR1
      00000096H   SFRSYM    DATA     WORD      TIM4__ARR
      0000009EH   SFRSYM    DATA     BYTE      TIM4_CR0
      0000009DH   SFRSYM    DATA     BYTE      TIM3_CR1
      000000F8H   SFRSYM    DATA     BYTE      DRV_OUT
      0000009FH   SFRSYM    DATA     BYTE      TIM4_CR1
      000000DBH   SFRSYM    DATA     BYTE      LVSR
      000000A8H.4 SFRSYM    DATA     BIT       ES0
      00000085H   SFRSYM    DATA     BYTE      FLA_CR
      000000C0H.4 SFRSYM    DATA     BIT       PADC0
      000000B8H   SFRSYM    DATA     BYTE      IP0
      000000C0H.5 SFRSYM    DATA     BIT       PADC1
      000000C0H   SFRSYM    DATA     BYTE      IP1
      000000C8H   SFRSYM    DATA     BYTE      IP2
      00000098H.2 SFRSYM    DATA     BIT       RB8
      000000D8H   SFRSYM    DATA     BYTE      IP3
      000000A8H.0 SFRSYM    DATA     BIT       EX0
      00000098H.3 SFRSYM    DATA     BIT       TB8
      000000A8H.2 SFRSYM    DATA     BIT       EX1
      000000D0H.0 SFRSYM    DATA     BIT       P
      000000F9H   SFRSYM    DATA     BYTE      PI_LPF_CR
      00000098H.5 SFRSYM    DATA     BIT       SM2
      000000D8H.6 SFRSYM    DATA     BIT       PDMA0
      000000D8H.7 SFRSYM    DATA     BIT       PDMA1
LX51 LINKER/LOCATER V4.66.100.0                                                       04/25/2024  14:24:29  PAGE 119


      000000C2H   SFRSYM    DATA     WORD      MDU_MA
      000000D0H.3 SFRSYM    DATA     BIT       RS0
      000000CAH   SFRSYM    DATA     WORD      MDU_MB
      000000D0H.4 SFRSYM    DATA     BIT       RS1
      000000C1H   SFRSYM    DATA     BYTE      MDU_CR
      000000F8H.7 SFRSYM    DATA     BIT       MOE
      000000C0H.6 SFRSYM    DATA     BIT       PCMP0
      000000C0H.7 SFRSYM    DATA     BIT       PCMP1
      000000F8H.4 SFRSYM    DATA     BIT       OISWXH
      00000098H.4 SFRSYM    DATA     BIT       REN
      000000D7H   SFRSYM    DATA     BYTE      CMP_SR
      000000F8H.5 SFRSYM    DATA     BIT       OISWXL
      000000C8H.6 SFRSYM    DATA     BIT       PTSD0
      000000D8H.4 SFRSYM    DATA     BIT       PSPI0
      000000C8H.7 SFRSYM    DATA     BIT       PTSD1
      000000B8H.6 SFRSYM    DATA     BIT       PDRV0
      000000D8H.5 SFRSYM    DATA     BIT       PSPI1
      000000B8H.7 SFRSYM    DATA     BIT       PDRV1
      000000D1H   SFRSYM    DATA     BYTE      P1_IE
      000000D3H   SFRSYM    DATA     BYTE      P2_IE
      000000D2H   SFRSYM    DATA     BYTE      P1_IF
      000000D4H   SFRSYM    DATA     BYTE      P2_IF
      000000ACH   SFRSYM    DATA     WORD      TIM2__DR
      000000C8H.4 SFRSYM    DATA     BIT       PTIM4S0
      000000FCH   SFRSYM    DATA     BYTE      P0_OE
      000000A4H   SFRSYM    DATA     WORD      TIM3__DR
      000000C8H.5 SFRSYM    DATA     BIT       PTIM4S1
      000000FDH   SFRSYM    DATA     BYTE      P1_OE
      00000094H   SFRSYM    DATA     WORD      TIM4__DR
      000000D0H.5 SFRSYM    DATA     BIT       F0
      000000FEH   SFRSYM    DATA     BYTE      P2_OE
      000000D0H.1 SFRSYM    DATA     BIT       F1
      000000FFH   SFRSYM    DATA     BYTE      P3_OE
      00000080H.0 SFRSYM    DATA     BIT       GP00
      000000E9H   SFRSYM    DATA     BYTE      P4_OE
      00000090H.0 SFRSYM    DATA     BIT       GP10
      00000080H.1 SFRSYM    DATA     BIT       GP01
      000000A0H.0 SFRSYM    DATA     BIT       GP20
      00000090H.1 SFRSYM    DATA     BIT       GP11
      00000080H.2 SFRSYM    DATA     BIT       GP02
      000000B0H.0 SFRSYM    DATA     BIT       GP30
      000000A0H.1 SFRSYM    DATA     BIT       GP21
      00000090H.2 SFRSYM    DATA     BIT       GP12
      00000080H.3 SFRSYM    DATA     BIT       GP03
      000000B8H.0 SFRSYM    DATA     BIT       PLVW0
      000000A8H.1 SFRSYM    DATA     BIT       TSDIE
      000000D0H   SFRSYM    DATA     BYTE      PSW
      000000E8H.0 SFRSYM    DATA     BIT       GP40
      000000B0H.1 SFRSYM    DATA     BIT       GP31
      000000A0H.2 SFRSYM    DATA     BIT       GP22
      00000090H.3 SFRSYM    DATA     BIT       GP13
      00000080H.4 SFRSYM    DATA     BIT       GP04
      000000B8H.1 SFRSYM    DATA     BIT       PLVW1
      000000A8H.3 SFRSYM    DATA     BIT       SPIIE
      00000088H.5 SFRSYM    DATA     BIT       TSDIF
      000000E8H.1 SFRSYM    DATA     BIT       GP41
      000000B0H.2 SFRSYM    DATA     BIT       GP32
      000000A0H.3 SFRSYM    DATA     BIT       GP23
      00000090H.4 SFRSYM    DATA     BIT       GP14
      00000080H.5 SFRSYM    DATA     BIT       GP05
      000000C4H   SFRSYM    DATA     BYTE      MDU_DA0
      000000E8H.2 SFRSYM    DATA     BIT       GP42
      000000B0H.3 SFRSYM    DATA     BIT       GP33
      000000A0H.4 SFRSYM    DATA     BIT       GP24
      00000090H.5 SFRSYM    DATA     BIT       GP15
LX51 LINKER/LOCATER V4.66.100.0                                                       04/25/2024  14:24:29  PAGE 120


      00000080H.6 SFRSYM    DATA     BIT       GP06
      000000CCH   SFRSYM    DATA     BYTE      MDU_DB0
      000000C5H   SFRSYM    DATA     BYTE      MDU_DA1
      00000088H.0 SFRSYM    DATA     BIT       IT00

      0100382BH   BLOCK     CODE     ---       LVL=0
      0100382BH   LINE      CODE     ---       #23
      0100382BH   LINE      CODE     ---       #24
      0100382BH   LINE      CODE     ---       #26
      01003832H   LINE      CODE     ---       #29
      01003839H   LINE      CODE     ---       #30
      0100383EH   LINE      CODE     ---       #40
      01003845H   LINE      CODE     ---       #47
      ---         BLOCKEND  ---      ---       LVL=0

      ---         MODULE    ---      ---       DRIVERINIT
      0100329AH   PUBLIC    CODE     ---       Driver_Init
      000000B0H.4 SFRSYM    DATA     BIT       GP34
      000000A0H.5 SFRSYM    DATA     BIT       GP25
      00000090H.6 SFRSYM    DATA     BIT       GP16
      00000080H.7 SFRSYM    DATA     BIT       GP07
      000000CDH   SFRSYM    DATA     BYTE      MDU_DB1
      000000C6H   SFRSYM    DATA     BYTE      MDU_DA2
      00000088H.1 SFRSYM    DATA     BIT       IT01
      00000088H.3 SFRSYM    DATA     BIT       IT10
      000000B0H.5 SFRSYM    DATA     BIT       GP35
      000000A0H.6 SFRSYM    DATA     BIT       GP26
      00000090H.7 SFRSYM    DATA     BIT       GP17
      00000080H   SFRSYM    DATA     BYTE      P0
      000000F6H   SFRSYM    DATA     WORD      PI_UKMIN
      000000C7H   SFRSYM    DATA     BYTE      MDU_DA3
      00000088H.4 SFRSYM    DATA     BIT       IT11
      000000C9H   SFRSYM    DATA     BYTE      RST_SR
      000000D9H   SFRSYM    DATA     BYTE      EVT_FILT
      000000B0H.6 SFRSYM    DATA     BIT       GP36
      000000A0H.7 SFRSYM    DATA     BIT       GP27
      00000090H   SFRSYM    DATA     BYTE      P1
      000000B0H.7 SFRSYM    DATA     BIT       GP37
      000000A0H   SFRSYM    DATA     BYTE      P2
      000000F4H   SFRSYM    DATA     WORD      PI_UKMAX
      000000B0H   SFRSYM    DATA     BYTE      P3
      000000E8H   SFRSYM    DATA     BYTE      P4
      000000D0H.6 SFRSYM    DATA     BIT       AC
      000000A8H.7 SFRSYM    DATA     BIT       EA
      000000D5H   SFRSYM    DATA     BYTE      CMP_CR0
      000000D6H   SFRSYM    DATA     BYTE      CMP_CR1
      000000DAH   SFRSYM    DATA     BYTE      CMP_CR2
      000000B8H.2 SFRSYM    DATA     BIT       PX00
      000000DCH   SFRSYM    DATA     BYTE      CMP_CR3
      000000F8H.0 SFRSYM    DATA     BIT       OISUH
      000000EAH   SFRSYM    DATA     WORD      PI_EK
      000000B8H.3 SFRSYM    DATA     BIT       PX01
      000000B8H.4 SFRSYM    DATA     BIT       PX10
      000000F8H.2 SFRSYM    DATA     BIT       OISVH
      000000B8H.5 SFRSYM    DATA     BIT       PX11
      000000F8H.1 SFRSYM    DATA     BIT       OISUL
      000000DDH   SFRSYM    DATA     BYTE      LPF_K
      000000F2H   SFRSYM    DATA     WORD      PI_KI
      000000A8H   SFRSYM    DATA     BYTE      IE
      000000F8H.3 SFRSYM    DATA     BIT       OISVL
      000000EEH   SFRSYM    DATA     WORD      PI_KP
      000000AAH   SFRSYM    DATA     WORD      TIM2__CNTR
      000000A2H   SFRSYM    DATA     WORD      TIM3__CNTR
      00000092H   SFRSYM    DATA     WORD      TIM4__CNTR
      000000ECH   SFRSYM    DATA     WORD      PI_UK
LX51 LINKER/LOCATER V4.66.100.0                                                       04/25/2024  14:24:29  PAGE 121


      000000DEH   SFRSYM    DATA     WORD      LPF_X
      00000098H.0 SFRSYM    DATA     BIT       RI
      00000098H.6 SFRSYM    DATA     BIT       UT_MOD0
      000000E6H   SFRSYM    DATA     WORD      LPF_Y
      00000098H.7 SFRSYM    DATA     BIT       UT_MOD1
      000000D0H.7 SFRSYM    DATA     BIT       CY
      00000098H.1 SFRSYM    DATA     BIT       TI
      000000C0H.2 SFRSYM    DATA     BIT       PTIM10
      00000084H   SFRSYM    DATA     BYTE      FLA_KEY
      000000C0H.0 SFRSYM    DATA     BIT       PTIM20
      000000C0H.3 SFRSYM    DATA     BIT       PTIM11
      00000098H   SFRSYM    DATA     BYTE      UT_CR
      000000C8H.2 SFRSYM    DATA     BIT       PTIM30
      000000C0H.1 SFRSYM    DATA     BIT       PTIM21
      00000099H   SFRSYM    DATA     BYTE      UT_DR
      000000C8H.3 SFRSYM    DATA     BIT       PTIM31
      000000D0H.2 SFRSYM    DATA     BIT       OV
      0000009AH   SFRSYM    DATA     WORD      UT_BAUD
      000000C4H   SFRSYM    DATA     WORD      MDU_DA01
      000000CCH   SFRSYM    DATA     WORD      MDU_DB01
      00000087H   SFRSYM    DATA     BYTE      PCON
      000000C6H   SFRSYM    DATA     WORD      MDU_DA23
      00000088H   SFRSYM    DATA     BYTE      TCON
      00000082H   SFRSYM    DATA     WORD      DPTR
      000000D8H.0 SFRSYM    DATA     BIT       PUART0
      000000D8H.1 SFRSYM    DATA     BIT       PUART1
      000000D8H.2 SFRSYM    DATA     BIT       PI2C0
      00000088H.2 SFRSYM    DATA     BIT       IF0
      000000D8H.3 SFRSYM    DATA     BIT       PI2C1
      000000AEH   SFRSYM    DATA     WORD      TIM2__ARR
      000000A1H   SFRSYM    DATA     BYTE      TIM2_CR0
      000000A6H   SFRSYM    DATA     WORD      TIM3__ARR
      0000009CH   SFRSYM    DATA     BYTE      TIM3_CR0
      000000A9H   SFRSYM    DATA     BYTE      TIM2_CR1
      00000096H   SFRSYM    DATA     WORD      TIM4__ARR
      0000009EH   SFRSYM    DATA     BYTE      TIM4_CR0
      0000009DH   SFRSYM    DATA     BYTE      TIM3_CR1
      000000F8H   SFRSYM    DATA     BYTE      DRV_OUT
      0000009FH   SFRSYM    DATA     BYTE      TIM4_CR1
      000000DBH   SFRSYM    DATA     BYTE      LVSR
      000000A8H.4 SFRSYM    DATA     BIT       ES0
      00000085H   SFRSYM    DATA     BYTE      FLA_CR
      000000C0H.4 SFRSYM    DATA     BIT       PADC0
      000000B8H   SFRSYM    DATA     BYTE      IP0
      000000C0H.5 SFRSYM    DATA     BIT       PADC1
      000000C0H   SFRSYM    DATA     BYTE      IP1
      000000C8H   SFRSYM    DATA     BYTE      IP2
      00000098H.2 SFRSYM    DATA     BIT       RB8
      000000D8H   SFRSYM    DATA     BYTE      IP3
      000000A8H.0 SFRSYM    DATA     BIT       EX0
      00000098H.3 SFRSYM    DATA     BIT       TB8
      000000A8H.2 SFRSYM    DATA     BIT       EX1
      000000D0H.0 SFRSYM    DATA     BIT       P
      000000F9H   SFRSYM    DATA     BYTE      PI_LPF_CR
      00000098H.5 SFRSYM    DATA     BIT       SM2
      000000D8H.6 SFRSYM    DATA     BIT       PDMA0
      000000D8H.7 SFRSYM    DATA     BIT       PDMA1
      000000C2H   SFRSYM    DATA     WORD      MDU_MA
      000000D0H.3 SFRSYM    DATA     BIT       RS0
      000000CAH   SFRSYM    DATA     WORD      MDU_MB
      000000D0H.4 SFRSYM    DATA     BIT       RS1
      000000C1H   SFRSYM    DATA     BYTE      MDU_CR
      000000F8H.7 SFRSYM    DATA     BIT       MOE
      000000C0H.6 SFRSYM    DATA     BIT       PCMP0
      000000C0H.7 SFRSYM    DATA     BIT       PCMP1
LX51 LINKER/LOCATER V4.66.100.0                                                       04/25/2024  14:24:29  PAGE 122


      000000F8H.4 SFRSYM    DATA     BIT       OISWXH
      00000098H.4 SFRSYM    DATA     BIT       REN
      000000D7H   SFRSYM    DATA     BYTE      CMP_SR
      000000F8H.5 SFRSYM    DATA     BIT       OISWXL
      000000C8H.6 SFRSYM    DATA     BIT       PTSD0
      000000D8H.4 SFRSYM    DATA     BIT       PSPI0
      000000C8H.7 SFRSYM    DATA     BIT       PTSD1
      000000B8H.6 SFRSYM    DATA     BIT       PDRV0
      000000D8H.5 SFRSYM    DATA     BIT       PSPI1
      000000B8H.7 SFRSYM    DATA     BIT       PDRV1
      000000D1H   SFRSYM    DATA     BYTE      P1_IE
      000000D3H   SFRSYM    DATA     BYTE      P2_IE
      000000D2H   SFRSYM    DATA     BYTE      P1_IF
      000000D4H   SFRSYM    DATA     BYTE      P2_IF
      000000ACH   SFRSYM    DATA     WORD      TIM2__DR
      000000C8H.4 SFRSYM    DATA     BIT       PTIM4S0
      000000FCH   SFRSYM    DATA     BYTE      P0_OE
      000000A4H   SFRSYM    DATA     WORD      TIM3__DR
      000000C8H.5 SFRSYM    DATA     BIT       PTIM4S1
      000000FDH   SFRSYM    DATA     BYTE      P1_OE
      00000094H   SFRSYM    DATA     WORD      TIM4__DR
      000000D0H.5 SFRSYM    DATA     BIT       F0
      000000FEH   SFRSYM    DATA     BYTE      P2_OE
      000000D0H.1 SFRSYM    DATA     BIT       F1
      000000FFH   SFRSYM    DATA     BYTE      P3_OE
      00000080H.0 SFRSYM    DATA     BIT       GP00
      000000E9H   SFRSYM    DATA     BYTE      P4_OE
      00000090H.0 SFRSYM    DATA     BIT       GP10
      00000080H.1 SFRSYM    DATA     BIT       GP01
      000000A0H.0 SFRSYM    DATA     BIT       GP20
      00000090H.1 SFRSYM    DATA     BIT       GP11
      00000080H.2 SFRSYM    DATA     BIT       GP02
      000000B0H.0 SFRSYM    DATA     BIT       GP30
      000000A0H.1 SFRSYM    DATA     BIT       GP21
      00000090H.2 SFRSYM    DATA     BIT       GP12
      00000080H.3 SFRSYM    DATA     BIT       GP03
      000000B8H.0 SFRSYM    DATA     BIT       PLVW0
      000000A8H.1 SFRSYM    DATA     BIT       TSDIE
      000000D0H   SFRSYM    DATA     BYTE      PSW
      000000E8H.0 SFRSYM    DATA     BIT       GP40
      000000B0H.1 SFRSYM    DATA     BIT       GP31
      000000A0H.2 SFRSYM    DATA     BIT       GP22
      00000090H.3 SFRSYM    DATA     BIT       GP13
      00000080H.4 SFRSYM    DATA     BIT       GP04
      000000B8H.1 SFRSYM    DATA     BIT       PLVW1
      000000A8H.3 SFRSYM    DATA     BIT       SPIIE
      00000088H.5 SFRSYM    DATA     BIT       TSDIF
      000000E8H.1 SFRSYM    DATA     BIT       GP41
      000000B0H.2 SFRSYM    DATA     BIT       GP32
      000000A0H.3 SFRSYM    DATA     BIT       GP23
      00000090H.4 SFRSYM    DATA     BIT       GP14
      00000080H.5 SFRSYM    DATA     BIT       GP05
      000000C4H   SFRSYM    DATA     BYTE      MDU_DA0
      000000E8H.2 SFRSYM    DATA     BIT       GP42
      000000B0H.3 SFRSYM    DATA     BIT       GP33
      000000A0H.4 SFRSYM    DATA     BIT       GP24
      00000090H.5 SFRSYM    DATA     BIT       GP15
      00000080H.6 SFRSYM    DATA     BIT       GP06
      000000CCH   SFRSYM    DATA     BYTE      MDU_DB0
      000000C5H   SFRSYM    DATA     BYTE      MDU_DA1
      00000088H.0 SFRSYM    DATA     BIT       IT00

      0100329AH   BLOCK     CODE     ---       LVL=0
      0100329AH   LINE      CODE     ---       #23
      0100329AH   LINE      CODE     ---       #24
LX51 LINKER/LOCATER V4.66.100.0                                                       04/25/2024  14:24:29  PAGE 123


      0100329AH   LINE      CODE     ---       #26
      010032A4H   LINE      CODE     ---       #27
      010032A8H   LINE      CODE     ---       #31
      010032AFH   LINE      CODE     ---       #35
      010032AFH   LINE      CODE     ---       #36
      010032C4H   LINE      CODE     ---       #37
      010032C7H   LINE      CODE     ---       #38
      010032C7H   LINE      CODE     ---       #57
      010032CEH   LINE      CODE     ---       #66
      010032D4H   LINE      CODE     ---       #69
      010032DDH   LINE      CODE     ---       #71
      010032DFH   LINE      CODE     ---       #72
      010032E1H   LINE      CODE     ---       #74
      010032E8H   LINE      CODE     ---       #77
      010032EDH   LINE      CODE     ---       #80
      010032F1H   LINE      CODE     ---       #83
      010032F5H   LINE      CODE     ---       #85
      ---         BLOCKEND  ---      ---       LVL=0

      ---         MODULE    ---      ---       EXTIINIT
      020001AAH   PUBLIC    XDATA    ---       User
      01003750H   PUBLIC    CODE     ---       ZeroCrossing_Init
      000000B0H.4 SFRSYM    DATA     BIT       GP34
      000000A0H.5 SFRSYM    DATA     BIT       GP25
      00000090H.6 SFRSYM    DATA     BIT       GP16
      00000080H.7 SFRSYM    DATA     BIT       GP07
      000000CDH   SFRSYM    DATA     BYTE      MDU_DB1
      000000C6H   SFRSYM    DATA     BYTE      MDU_DA2
      00000088H.1 SFRSYM    DATA     BIT       IT01
      00000088H.3 SFRSYM    DATA     BIT       IT10
      000000B0H.5 SFRSYM    DATA     BIT       GP35
      000000A0H.6 SFRSYM    DATA     BIT       GP26
      00000090H.7 SFRSYM    DATA     BIT       GP17
      00000080H   SFRSYM    DATA     BYTE      P0
      000000F6H   SFRSYM    DATA     WORD      PI_UKMIN
      000000C7H   SFRSYM    DATA     BYTE      MDU_DA3
      00000088H.4 SFRSYM    DATA     BIT       IT11
      000000C9H   SFRSYM    DATA     BYTE      RST_SR
      000000D9H   SFRSYM    DATA     BYTE      EVT_FILT
      000000B0H.6 SFRSYM    DATA     BIT       GP36
      000000A0H.7 SFRSYM    DATA     BIT       GP27
      00000090H   SFRSYM    DATA     BYTE      P1
      000000B0H.7 SFRSYM    DATA     BIT       GP37
      000000A0H   SFRSYM    DATA     BYTE      P2
      000000F4H   SFRSYM    DATA     WORD      PI_UKMAX
      000000B0H   SFRSYM    DATA     BYTE      P3
      000000E8H   SFRSYM    DATA     BYTE      P4
      000000D0H.6 SFRSYM    DATA     BIT       AC
      000000A8H.7 SFRSYM    DATA     BIT       EA
      000000D5H   SFRSYM    DATA     BYTE      CMP_CR0
      000000D6H   SFRSYM    DATA     BYTE      CMP_CR1
      000000DAH   SFRSYM    DATA     BYTE      CMP_CR2
      000000B8H.2 SFRSYM    DATA     BIT       PX00
      000000DCH   SFRSYM    DATA     BYTE      CMP_CR3
      000000F8H.0 SFRSYM    DATA     BIT       OISUH
      000000EAH   SFRSYM    DATA     WORD      PI_EK
      000000B8H.3 SFRSYM    DATA     BIT       PX01
      000000B8H.4 SFRSYM    DATA     BIT       PX10
      000000F8H.2 SFRSYM    DATA     BIT       OISVH
      000000B8H.5 SFRSYM    DATA     BIT       PX11
      000000F8H.1 SFRSYM    DATA     BIT       OISUL
      000000DDH   SFRSYM    DATA     BYTE      LPF_K
      000000F2H   SFRSYM    DATA     WORD      PI_KI
      000000A8H   SFRSYM    DATA     BYTE      IE
      000000F8H.3 SFRSYM    DATA     BIT       OISVL
LX51 LINKER/LOCATER V4.66.100.0                                                       04/25/2024  14:24:29  PAGE 124


      000000EEH   SFRSYM    DATA     WORD      PI_KP
      000000AAH   SFRSYM    DATA     WORD      TIM2__CNTR
      000000A2H   SFRSYM    DATA     WORD      TIM3__CNTR
      00000092H   SFRSYM    DATA     WORD      TIM4__CNTR
      000000ECH   SFRSYM    DATA     WORD      PI_UK
      000000DEH   SFRSYM    DATA     WORD      LPF_X
      00000098H.0 SFRSYM    DATA     BIT       RI
      00000098H.6 SFRSYM    DATA     BIT       UT_MOD0
      000000E6H   SFRSYM    DATA     WORD      LPF_Y
      00000098H.7 SFRSYM    DATA     BIT       UT_MOD1
      000000D0H.7 SFRSYM    DATA     BIT       CY
      00000098H.1 SFRSYM    DATA     BIT       TI
      000000C0H.2 SFRSYM    DATA     BIT       PTIM10
      00000084H   SFRSYM    DATA     BYTE      FLA_KEY
      000000C0H.0 SFRSYM    DATA     BIT       PTIM20
      000000C0H.3 SFRSYM    DATA     BIT       PTIM11
      00000098H   SFRSYM    DATA     BYTE      UT_CR
      000000C8H.2 SFRSYM    DATA     BIT       PTIM30
      000000C0H.1 SFRSYM    DATA     BIT       PTIM21
      00000099H   SFRSYM    DATA     BYTE      UT_DR
      000000C8H.3 SFRSYM    DATA     BIT       PTIM31
      000000D0H.2 SFRSYM    DATA     BIT       OV
      0000009AH   SFRSYM    DATA     WORD      UT_BAUD
      000000C4H   SFRSYM    DATA     WORD      MDU_DA01
      000000CCH   SFRSYM    DATA     WORD      MDU_DB01
      00000087H   SFRSYM    DATA     BYTE      PCON
      000000C6H   SFRSYM    DATA     WORD      MDU_DA23
      00000088H   SFRSYM    DATA     BYTE      TCON
      00000082H   SFRSYM    DATA     WORD      DPTR
      000000D8H.0 SFRSYM    DATA     BIT       PUART0
      000000D8H.1 SFRSYM    DATA     BIT       PUART1
      000000D8H.2 SFRSYM    DATA     BIT       PI2C0
      00000088H.2 SFRSYM    DATA     BIT       IF0
      000000D8H.3 SFRSYM    DATA     BIT       PI2C1
      000000AEH   SFRSYM    DATA     WORD      TIM2__ARR
      000000A1H   SFRSYM    DATA     BYTE      TIM2_CR0
      000000A6H   SFRSYM    DATA     WORD      TIM3__ARR
      0000009CH   SFRSYM    DATA     BYTE      TIM3_CR0
      000000A9H   SFRSYM    DATA     BYTE      TIM2_CR1
      00000096H   SFRSYM    DATA     WORD      TIM4__ARR
      0000009EH   SFRSYM    DATA     BYTE      TIM4_CR0
      0000009DH   SFRSYM    DATA     BYTE      TIM3_CR1
      000000F8H   SFRSYM    DATA     BYTE      DRV_OUT
      0000009FH   SFRSYM    DATA     BYTE      TIM4_CR1
      000000DBH   SFRSYM    DATA     BYTE      LVSR
      000000A8H.4 SFRSYM    DATA     BIT       ES0
      00000085H   SFRSYM    DATA     BYTE      FLA_CR
      000000C0H.4 SFRSYM    DATA     BIT       PADC0
      000000B8H   SFRSYM    DATA     BYTE      IP0
      000000C0H.5 SFRSYM    DATA     BIT       PADC1
      000000C0H   SFRSYM    DATA     BYTE      IP1
      000000C8H   SFRSYM    DATA     BYTE      IP2
      00000098H.2 SFRSYM    DATA     BIT       RB8
      000000D8H   SFRSYM    DATA     BYTE      IP3
      000000A8H.0 SFRSYM    DATA     BIT       EX0
      00000098H.3 SFRSYM    DATA     BIT       TB8
      000000A8H.2 SFRSYM    DATA     BIT       EX1
      000000D0H.0 SFRSYM    DATA     BIT       P
      000000F9H   SFRSYM    DATA     BYTE      PI_LPF_CR
      00000098H.5 SFRSYM    DATA     BIT       SM2
      000000D8H.6 SFRSYM    DATA     BIT       PDMA0
      000000D8H.7 SFRSYM    DATA     BIT       PDMA1
      000000C2H   SFRSYM    DATA     WORD      MDU_MA
      000000D0H.3 SFRSYM    DATA     BIT       RS0
      000000CAH   SFRSYM    DATA     WORD      MDU_MB
LX51 LINKER/LOCATER V4.66.100.0                                                       04/25/2024  14:24:29  PAGE 125


      000000D0H.4 SFRSYM    DATA     BIT       RS1
      000000C1H   SFRSYM    DATA     BYTE      MDU_CR
      000000F8H.7 SFRSYM    DATA     BIT       MOE
      000000C0H.6 SFRSYM    DATA     BIT       PCMP0
      000000C0H.7 SFRSYM    DATA     BIT       PCMP1
      000000F8H.4 SFRSYM    DATA     BIT       OISWXH
      00000098H.4 SFRSYM    DATA     BIT       REN
      000000D7H   SFRSYM    DATA     BYTE      CMP_SR
      000000F8H.5 SFRSYM    DATA     BIT       OISWXL
      000000C8H.6 SFRSYM    DATA     BIT       PTSD0
      000000D8H.4 SFRSYM    DATA     BIT       PSPI0
      000000C8H.7 SFRSYM    DATA     BIT       PTSD1
      000000B8H.6 SFRSYM    DATA     BIT       PDRV0
      000000D8H.5 SFRSYM    DATA     BIT       PSPI1
      000000B8H.7 SFRSYM    DATA     BIT       PDRV1
      000000D1H   SFRSYM    DATA     BYTE      P1_IE
      000000D3H   SFRSYM    DATA     BYTE      P2_IE
      000000D2H   SFRSYM    DATA     BYTE      P1_IF
      000000D4H   SFRSYM    DATA     BYTE      P2_IF
      000000ACH   SFRSYM    DATA     WORD      TIM2__DR
      000000C8H.4 SFRSYM    DATA     BIT       PTIM4S0
      000000FCH   SFRSYM    DATA     BYTE      P0_OE
      000000A4H   SFRSYM    DATA     WORD      TIM3__DR
      000000C8H.5 SFRSYM    DATA     BIT       PTIM4S1
      000000FDH   SFRSYM    DATA     BYTE      P1_OE
      00000094H   SFRSYM    DATA     WORD      TIM4__DR
      000000D0H.5 SFRSYM    DATA     BIT       F0
      000000FEH   SFRSYM    DATA     BYTE      P2_OE
      000000D0H.1 SFRSYM    DATA     BIT       F1
      000000FFH   SFRSYM    DATA     BYTE      P3_OE
      00000080H.0 SFRSYM    DATA     BIT       GP00
      000000E9H   SFRSYM    DATA     BYTE      P4_OE
      00000090H.0 SFRSYM    DATA     BIT       GP10
      00000080H.1 SFRSYM    DATA     BIT       GP01
      000000A0H.0 SFRSYM    DATA     BIT       GP20
      00000090H.1 SFRSYM    DATA     BIT       GP11
      00000080H.2 SFRSYM    DATA     BIT       GP02
      000000B0H.0 SFRSYM    DATA     BIT       GP30
      000000A0H.1 SFRSYM    DATA     BIT       GP21
      00000090H.2 SFRSYM    DATA     BIT       GP12
      00000080H.3 SFRSYM    DATA     BIT       GP03
      000000B8H.0 SFRSYM    DATA     BIT       PLVW0
      000000A8H.1 SFRSYM    DATA     BIT       TSDIE
      000000D0H   SFRSYM    DATA     BYTE      PSW
      000000E8H.0 SFRSYM    DATA     BIT       GP40
      000000B0H.1 SFRSYM    DATA     BIT       GP31
      000000A0H.2 SFRSYM    DATA     BIT       GP22
      00000090H.3 SFRSYM    DATA     BIT       GP13
      00000080H.4 SFRSYM    DATA     BIT       GP04
      000000B8H.1 SFRSYM    DATA     BIT       PLVW1
      000000A8H.3 SFRSYM    DATA     BIT       SPIIE
      00000088H.5 SFRSYM    DATA     BIT       TSDIF
      000000E8H.1 SFRSYM    DATA     BIT       GP41
      000000B0H.2 SFRSYM    DATA     BIT       GP32
      000000A0H.3 SFRSYM    DATA     BIT       GP23
      00000090H.4 SFRSYM    DATA     BIT       GP14
      00000080H.5 SFRSYM    DATA     BIT       GP05
      000000C4H   SFRSYM    DATA     BYTE      MDU_DA0
      000000E8H.2 SFRSYM    DATA     BIT       GP42
      000000B0H.3 SFRSYM    DATA     BIT       GP33
      000000A0H.4 SFRSYM    DATA     BIT       GP24
      00000090H.5 SFRSYM    DATA     BIT       GP15
      00000080H.6 SFRSYM    DATA     BIT       GP06
      000000CCH   SFRSYM    DATA     BYTE      MDU_DB0
      000000C5H   SFRSYM    DATA     BYTE      MDU_DA1
LX51 LINKER/LOCATER V4.66.100.0                                                       04/25/2024  14:24:29  PAGE 126


      00000088H.0 SFRSYM    DATA     BIT       IT00

      01003750H   BLOCK     CODE     ---       LVL=0
      01003750H   LINE      CODE     ---       #118
      01003750H   LINE      CODE     ---       #119
      01003750H   LINE      CODE     ---       #120
      01003753H   LINE      CODE     ---       #121
      0100375AH   LINE      CODE     ---       #122
      01003761H   LINE      CODE     ---       #124
      01003764H   LINE      CODE     ---       #125
      01003767H   LINE      CODE     ---       #128
      01003769H   LINE      CODE     ---       #129
      0100376BH   LINE      CODE     ---       #131
      0100376DH   LINE      CODE     ---       #132
      0100376FH   LINE      CODE     ---       #134
      01003771H   LINE      CODE     ---       #135
      01003773H   LINE      CODE     ---       #137
      ---         BLOCKEND  ---      ---       LVL=0
      020001A9H   SYMBOL    XDATA    BYTE      peratureCount
      00000007H   SYMBOL    DATA     BYTE      mm
      00000005H   SYMBOL    DATA     BYTE      nn
      00000006H   SYMBOL    DATA     BYTE      rr

      ---         MODULE    ---      ---       SPIINIT
      000000B0H.4 SFRSYM    DATA     BIT       GP34
      000000A0H.5 SFRSYM    DATA     BIT       GP25
      00000090H.6 SFRSYM    DATA     BIT       GP16
      00000080H.7 SFRSYM    DATA     BIT       GP07
      000000CDH   SFRSYM    DATA     BYTE      MDU_DB1
      000000C6H   SFRSYM    DATA     BYTE      MDU_DA2
      00000088H.1 SFRSYM    DATA     BIT       IT01
      00000088H.3 SFRSYM    DATA     BIT       IT10
      000000B0H.5 SFRSYM    DATA     BIT       GP35
      000000A0H.6 SFRSYM    DATA     BIT       GP26
      00000090H.7 SFRSYM    DATA     BIT       GP17
      00000080H   SFRSYM    DATA     BYTE      P0
      000000F6H   SFRSYM    DATA     WORD      PI_UKMIN
      000000C7H   SFRSYM    DATA     BYTE      MDU_DA3
      00000088H.4 SFRSYM    DATA     BIT       IT11
      000000C9H   SFRSYM    DATA     BYTE      RST_SR
      000000D9H   SFRSYM    DATA     BYTE      EVT_FILT
      000000B0H.6 SFRSYM    DATA     BIT       GP36
      000000A0H.7 SFRSYM    DATA     BIT       GP27
      00000090H   SFRSYM    DATA     BYTE      P1
      000000B0H.7 SFRSYM    DATA     BIT       GP37
      000000A0H   SFRSYM    DATA     BYTE      P2
      000000F4H   SFRSYM    DATA     WORD      PI_UKMAX
      000000B0H   SFRSYM    DATA     BYTE      P3
      000000E8H   SFRSYM    DATA     BYTE      P4
      000000D0H.6 SFRSYM    DATA     BIT       AC
      000000A8H.7 SFRSYM    DATA     BIT       EA
      000000D5H   SFRSYM    DATA     BYTE      CMP_CR0
      000000D6H   SFRSYM    DATA     BYTE      CMP_CR1
      000000DAH   SFRSYM    DATA     BYTE      CMP_CR2
      000000B8H.2 SFRSYM    DATA     BIT       PX00
      000000DCH   SFRSYM    DATA     BYTE      CMP_CR3
      000000F8H.0 SFRSYM    DATA     BIT       OISUH
      000000EAH   SFRSYM    DATA     WORD      PI_EK
      000000B8H.3 SFRSYM    DATA     BIT       PX01
      000000B8H.4 SFRSYM    DATA     BIT       PX10
      000000F8H.2 SFRSYM    DATA     BIT       OISVH
      000000B8H.5 SFRSYM    DATA     BIT       PX11
      000000F8H.1 SFRSYM    DATA     BIT       OISUL
      000000DDH   SFRSYM    DATA     BYTE      LPF_K
      000000F2H   SFRSYM    DATA     WORD      PI_KI
LX51 LINKER/LOCATER V4.66.100.0                                                       04/25/2024  14:24:29  PAGE 127


      000000A8H   SFRSYM    DATA     BYTE      IE
      000000F8H.3 SFRSYM    DATA     BIT       OISVL
      000000EEH   SFRSYM    DATA     WORD      PI_KP
      000000AAH   SFRSYM    DATA     WORD      TIM2__CNTR
      000000A2H   SFRSYM    DATA     WORD      TIM3__CNTR
      00000092H   SFRSYM    DATA     WORD      TIM4__CNTR
      000000ECH   SFRSYM    DATA     WORD      PI_UK
      000000DEH   SFRSYM    DATA     WORD      LPF_X
      00000098H.0 SFRSYM    DATA     BIT       RI
      00000098H.6 SFRSYM    DATA     BIT       UT_MOD0
      000000E6H   SFRSYM    DATA     WORD      LPF_Y
      00000098H.7 SFRSYM    DATA     BIT       UT_MOD1
      000000D0H.7 SFRSYM    DATA     BIT       CY
      00000098H.1 SFRSYM    DATA     BIT       TI
      000000C0H.2 SFRSYM    DATA     BIT       PTIM10
      00000084H   SFRSYM    DATA     BYTE      FLA_KEY
      000000C0H.0 SFRSYM    DATA     BIT       PTIM20
      000000C0H.3 SFRSYM    DATA     BIT       PTIM11
      00000098H   SFRSYM    DATA     BYTE      UT_CR
      000000C8H.2 SFRSYM    DATA     BIT       PTIM30
      000000C0H.1 SFRSYM    DATA     BIT       PTIM21
      00000099H   SFRSYM    DATA     BYTE      UT_DR
      000000C8H.3 SFRSYM    DATA     BIT       PTIM31
      000000D0H.2 SFRSYM    DATA     BIT       OV
      0000009AH   SFRSYM    DATA     WORD      UT_BAUD
      000000C4H   SFRSYM    DATA     WORD      MDU_DA01
      000000CCH   SFRSYM    DATA     WORD      MDU_DB01
      00000087H   SFRSYM    DATA     BYTE      PCON
      000000C6H   SFRSYM    DATA     WORD      MDU_DA23
      00000088H   SFRSYM    DATA     BYTE      TCON
      00000082H   SFRSYM    DATA     WORD      DPTR
      000000D8H.0 SFRSYM    DATA     BIT       PUART0
      000000D8H.1 SFRSYM    DATA     BIT       PUART1
      000000D8H.2 SFRSYM    DATA     BIT       PI2C0
      00000088H.2 SFRSYM    DATA     BIT       IF0
      000000D8H.3 SFRSYM    DATA     BIT       PI2C1
      000000AEH   SFRSYM    DATA     WORD      TIM2__ARR
      000000A1H   SFRSYM    DATA     BYTE      TIM2_CR0
      000000A6H   SFRSYM    DATA     WORD      TIM3__ARR
      0000009CH   SFRSYM    DATA     BYTE      TIM3_CR0
      000000A9H   SFRSYM    DATA     BYTE      TIM2_CR1
      00000096H   SFRSYM    DATA     WORD      TIM4__ARR
      0000009EH   SFRSYM    DATA     BYTE      TIM4_CR0
      0000009DH   SFRSYM    DATA     BYTE      TIM3_CR1
      000000F8H   SFRSYM    DATA     BYTE      DRV_OUT
      0000009FH   SFRSYM    DATA     BYTE      TIM4_CR1
      000000DBH   SFRSYM    DATA     BYTE      LVSR
      000000A8H.4 SFRSYM    DATA     BIT       ES0
      00000085H   SFRSYM    DATA     BYTE      FLA_CR
      000000C0H.4 SFRSYM    DATA     BIT       PADC0
      000000B8H   SFRSYM    DATA     BYTE      IP0
      000000C0H.5 SFRSYM    DATA     BIT       PADC1
      000000C0H   SFRSYM    DATA     BYTE      IP1
      000000C8H   SFRSYM    DATA     BYTE      IP2
      00000098H.2 SFRSYM    DATA     BIT       RB8
      000000D8H   SFRSYM    DATA     BYTE      IP3
      000000A8H.0 SFRSYM    DATA     BIT       EX0
      00000098H.3 SFRSYM    DATA     BIT       TB8
      000000A8H.2 SFRSYM    DATA     BIT       EX1
      000000D0H.0 SFRSYM    DATA     BIT       P
      000000F9H   SFRSYM    DATA     BYTE      PI_LPF_CR
      00000098H.5 SFRSYM    DATA     BIT       SM2
      000000D8H.6 SFRSYM    DATA     BIT       PDMA0
      000000D8H.7 SFRSYM    DATA     BIT       PDMA1
      000000C2H   SFRSYM    DATA     WORD      MDU_MA
LX51 LINKER/LOCATER V4.66.100.0                                                       04/25/2024  14:24:29  PAGE 128


      000000D0H.3 SFRSYM    DATA     BIT       RS0
      000000CAH   SFRSYM    DATA     WORD      MDU_MB
      000000D0H.4 SFRSYM    DATA     BIT       RS1
      000000C1H   SFRSYM    DATA     BYTE      MDU_CR
      000000F8H.7 SFRSYM    DATA     BIT       MOE
      000000C0H.6 SFRSYM    DATA     BIT       PCMP0
      000000C0H.7 SFRSYM    DATA     BIT       PCMP1
      000000F8H.4 SFRSYM    DATA     BIT       OISWXH
      00000098H.4 SFRSYM    DATA     BIT       REN
      000000D7H   SFRSYM    DATA     BYTE      CMP_SR
      000000F8H.5 SFRSYM    DATA     BIT       OISWXL
      000000C8H.6 SFRSYM    DATA     BIT       PTSD0
      000000D8H.4 SFRSYM    DATA     BIT       PSPI0
      000000C8H.7 SFRSYM    DATA     BIT       PTSD1
      000000B8H.6 SFRSYM    DATA     BIT       PDRV0
      000000D8H.5 SFRSYM    DATA     BIT       PSPI1
      000000B8H.7 SFRSYM    DATA     BIT       PDRV1
      000000D1H   SFRSYM    DATA     BYTE      P1_IE
      000000D3H   SFRSYM    DATA     BYTE      P2_IE
      000000D2H   SFRSYM    DATA     BYTE      P1_IF
      000000D4H   SFRSYM    DATA     BYTE      P2_IF
      000000ACH   SFRSYM    DATA     WORD      TIM2__DR
      000000C8H.4 SFRSYM    DATA     BIT       PTIM4S0
      000000FCH   SFRSYM    DATA     BYTE      P0_OE
      000000A4H   SFRSYM    DATA     WORD      TIM3__DR
      000000C8H.5 SFRSYM    DATA     BIT       PTIM4S1
      000000FDH   SFRSYM    DATA     BYTE      P1_OE
      00000094H   SFRSYM    DATA     WORD      TIM4__DR
      000000D0H.5 SFRSYM    DATA     BIT       F0
      000000FEH   SFRSYM    DATA     BYTE      P2_OE
      000000D0H.1 SFRSYM    DATA     BIT       F1
      000000FFH   SFRSYM    DATA     BYTE      P3_OE
      00000080H.0 SFRSYM    DATA     BIT       GP00
      000000E9H   SFRSYM    DATA     BYTE      P4_OE
      00000090H.0 SFRSYM    DATA     BIT       GP10
      00000080H.1 SFRSYM    DATA     BIT       GP01
      000000A0H.0 SFRSYM    DATA     BIT       GP20
      00000090H.1 SFRSYM    DATA     BIT       GP11
      00000080H.2 SFRSYM    DATA     BIT       GP02
      000000B0H.0 SFRSYM    DATA     BIT       GP30
      000000A0H.1 SFRSYM    DATA     BIT       GP21
      00000090H.2 SFRSYM    DATA     BIT       GP12
      00000080H.3 SFRSYM    DATA     BIT       GP03
      000000B8H.0 SFRSYM    DATA     BIT       PLVW0
      000000A8H.1 SFRSYM    DATA     BIT       TSDIE
      000000D0H   SFRSYM    DATA     BYTE      PSW
      000000E8H.0 SFRSYM    DATA     BIT       GP40
      000000B0H.1 SFRSYM    DATA     BIT       GP31
      000000A0H.2 SFRSYM    DATA     BIT       GP22
      00000090H.3 SFRSYM    DATA     BIT       GP13
      00000080H.4 SFRSYM    DATA     BIT       GP04
      000000B8H.1 SFRSYM    DATA     BIT       PLVW1
      000000A8H.3 SFRSYM    DATA     BIT       SPIIE
      00000088H.5 SFRSYM    DATA     BIT       TSDIF
      000000E8H.1 SFRSYM    DATA     BIT       GP41
      000000B0H.2 SFRSYM    DATA     BIT       GP32
      000000A0H.3 SFRSYM    DATA     BIT       GP23
      00000090H.4 SFRSYM    DATA     BIT       GP14
      00000080H.5 SFRSYM    DATA     BIT       GP05
      000000C4H   SFRSYM    DATA     BYTE      MDU_DA0
      000000E8H.2 SFRSYM    DATA     BIT       GP42
      000000B0H.3 SFRSYM    DATA     BIT       GP33
      000000A0H.4 SFRSYM    DATA     BIT       GP24
      00000090H.5 SFRSYM    DATA     BIT       GP15
      00000080H.6 SFRSYM    DATA     BIT       GP06
LX51 LINKER/LOCATER V4.66.100.0                                                       04/25/2024  14:24:29  PAGE 129


      000000CCH   SFRSYM    DATA     BYTE      MDU_DB0
      000000C5H   SFRSYM    DATA     BYTE      MDU_DA1
      00000088H.0 SFRSYM    DATA     BIT       IT00
      00000002H   SYMBOL    DATA     WORD      Data
      00000005H   SYMBOL    DATA     BYTE      Channel

      ---         MODULE    ---      ---       TIMERINIT
      01003870H   PUBLIC    CODE     ---       TIM1ms_Init
      000000B0H.4 SFRSYM    DATA     BIT       GP34
      000000A0H.5 SFRSYM    DATA     BIT       GP25
      00000090H.6 SFRSYM    DATA     BIT       GP16
      00000080H.7 SFRSYM    DATA     BIT       GP07
      000000CDH   SFRSYM    DATA     BYTE      MDU_DB1
      000000C6H   SFRSYM    DATA     BYTE      MDU_DA2
      00000088H.1 SFRSYM    DATA     BIT       IT01
      00000088H.3 SFRSYM    DATA     BIT       IT10
      000000B0H.5 SFRSYM    DATA     BIT       GP35
      000000A0H.6 SFRSYM    DATA     BIT       GP26
      00000090H.7 SFRSYM    DATA     BIT       GP17
      00000080H   SFRSYM    DATA     BYTE      P0
      000000F6H   SFRSYM    DATA     WORD      PI_UKMIN
      000000C7H   SFRSYM    DATA     BYTE      MDU_DA3
      00000088H.4 SFRSYM    DATA     BIT       IT11
      000000C9H   SFRSYM    DATA     BYTE      RST_SR
      000000D9H   SFRSYM    DATA     BYTE      EVT_FILT
      000000B0H.6 SFRSYM    DATA     BIT       GP36
      000000A0H.7 SFRSYM    DATA     BIT       GP27
      00000090H   SFRSYM    DATA     BYTE      P1
      000000B0H.7 SFRSYM    DATA     BIT       GP37
      000000A0H   SFRSYM    DATA     BYTE      P2
      000000F4H   SFRSYM    DATA     WORD      PI_UKMAX
      000000B0H   SFRSYM    DATA     BYTE      P3
      000000E8H   SFRSYM    DATA     BYTE      P4
      000000D0H.6 SFRSYM    DATA     BIT       AC
      000000A8H.7 SFRSYM    DATA     BIT       EA
      000000D5H   SFRSYM    DATA     BYTE      CMP_CR0
      000000D6H   SFRSYM    DATA     BYTE      CMP_CR1
      000000DAH   SFRSYM    DATA     BYTE      CMP_CR2
      000000B8H.2 SFRSYM    DATA     BIT       PX00
      000000DCH   SFRSYM    DATA     BYTE      CMP_CR3
      000000F8H.0 SFRSYM    DATA     BIT       OISUH
      000000EAH   SFRSYM    DATA     WORD      PI_EK
      000000B8H.3 SFRSYM    DATA     BIT       PX01
      000000B8H.4 SFRSYM    DATA     BIT       PX10
      000000F8H.2 SFRSYM    DATA     BIT       OISVH
      000000B8H.5 SFRSYM    DATA     BIT       PX11
      000000F8H.1 SFRSYM    DATA     BIT       OISUL
      000000DDH   SFRSYM    DATA     BYTE      LPF_K
      000000F2H   SFRSYM    DATA     WORD      PI_KI
      000000A8H   SFRSYM    DATA     BYTE      IE
      000000F8H.3 SFRSYM    DATA     BIT       OISVL
      000000EEH   SFRSYM    DATA     WORD      PI_KP
      000000AAH   SFRSYM    DATA     WORD      TIM2__CNTR
      000000A2H   SFRSYM    DATA     WORD      TIM3__CNTR
      00000092H   SFRSYM    DATA     WORD      TIM4__CNTR
      000000ECH   SFRSYM    DATA     WORD      PI_UK
      000000DEH   SFRSYM    DATA     WORD      LPF_X
      00000098H.0 SFRSYM    DATA     BIT       RI
      00000098H.6 SFRSYM    DATA     BIT       UT_MOD0
      000000E6H   SFRSYM    DATA     WORD      LPF_Y
      00000098H.7 SFRSYM    DATA     BIT       UT_MOD1
      000000D0H.7 SFRSYM    DATA     BIT       CY
      00000098H.1 SFRSYM    DATA     BIT       TI
      000000C0H.2 SFRSYM    DATA     BIT       PTIM10
      00000084H   SFRSYM    DATA     BYTE      FLA_KEY
LX51 LINKER/LOCATER V4.66.100.0                                                       04/25/2024  14:24:29  PAGE 130


      000000C0H.0 SFRSYM    DATA     BIT       PTIM20
      000000C0H.3 SFRSYM    DATA     BIT       PTIM11
      00000098H   SFRSYM    DATA     BYTE      UT_CR
      000000C8H.2 SFRSYM    DATA     BIT       PTIM30
      000000C0H.1 SFRSYM    DATA     BIT       PTIM21
      00000099H   SFRSYM    DATA     BYTE      UT_DR
      000000C8H.3 SFRSYM    DATA     BIT       PTIM31
      000000D0H.2 SFRSYM    DATA     BIT       OV
      0000009AH   SFRSYM    DATA     WORD      UT_BAUD
      000000C4H   SFRSYM    DATA     WORD      MDU_DA01
      000000CCH   SFRSYM    DATA     WORD      MDU_DB01
      00000087H   SFRSYM    DATA     BYTE      PCON
      000000C6H   SFRSYM    DATA     WORD      MDU_DA23
      00000088H   SFRSYM    DATA     BYTE      TCON
      00000082H   SFRSYM    DATA     WORD      DPTR
      000000D8H.0 SFRSYM    DATA     BIT       PUART0
      000000D8H.1 SFRSYM    DATA     BIT       PUART1
      000000D8H.2 SFRSYM    DATA     BIT       PI2C0
      00000088H.2 SFRSYM    DATA     BIT       IF0
      000000D8H.3 SFRSYM    DATA     BIT       PI2C1
      000000AEH   SFRSYM    DATA     WORD      TIM2__ARR
      000000A1H   SFRSYM    DATA     BYTE      TIM2_CR0
      000000A6H   SFRSYM    DATA     WORD      TIM3__ARR
      0000009CH   SFRSYM    DATA     BYTE      TIM3_CR0
      000000A9H   SFRSYM    DATA     BYTE      TIM2_CR1
      00000096H   SFRSYM    DATA     WORD      TIM4__ARR
      0000009EH   SFRSYM    DATA     BYTE      TIM4_CR0
      0000009DH   SFRSYM    DATA     BYTE      TIM3_CR1
      000000F8H   SFRSYM    DATA     BYTE      DRV_OUT
      0000009FH   SFRSYM    DATA     BYTE      TIM4_CR1
      000000DBH   SFRSYM    DATA     BYTE      LVSR
      000000A8H.4 SFRSYM    DATA     BIT       ES0
      00000085H   SFRSYM    DATA     BYTE      FLA_CR
      000000C0H.4 SFRSYM    DATA     BIT       PADC0
      000000B8H   SFRSYM    DATA     BYTE      IP0
      000000C0H.5 SFRSYM    DATA     BIT       PADC1
      000000C0H   SFRSYM    DATA     BYTE      IP1
      000000C8H   SFRSYM    DATA     BYTE      IP2
      00000098H.2 SFRSYM    DATA     BIT       RB8
      000000D8H   SFRSYM    DATA     BYTE      IP3
      000000A8H.0 SFRSYM    DATA     BIT       EX0
      00000098H.3 SFRSYM    DATA     BIT       TB8
      000000A8H.2 SFRSYM    DATA     BIT       EX1
      000000D0H.0 SFRSYM    DATA     BIT       P
      000000F9H   SFRSYM    DATA     BYTE      PI_LPF_CR
      00000098H.5 SFRSYM    DATA     BIT       SM2
      000000D8H.6 SFRSYM    DATA     BIT       PDMA0
      000000D8H.7 SFRSYM    DATA     BIT       PDMA1
      000000C2H   SFRSYM    DATA     WORD      MDU_MA
      000000D0H.3 SFRSYM    DATA     BIT       RS0
      000000CAH   SFRSYM    DATA     WORD      MDU_MB
      000000D0H.4 SFRSYM    DATA     BIT       RS1
      000000C1H   SFRSYM    DATA     BYTE      MDU_CR
      000000F8H.7 SFRSYM    DATA     BIT       MOE
      000000C0H.6 SFRSYM    DATA     BIT       PCMP0
      000000C0H.7 SFRSYM    DATA     BIT       PCMP1
      000000F8H.4 SFRSYM    DATA     BIT       OISWXH
      00000098H.4 SFRSYM    DATA     BIT       REN
      000000D7H   SFRSYM    DATA     BYTE      CMP_SR
      000000F8H.5 SFRSYM    DATA     BIT       OISWXL
      000000C8H.6 SFRSYM    DATA     BIT       PTSD0
      000000D8H.4 SFRSYM    DATA     BIT       PSPI0
      000000C8H.7 SFRSYM    DATA     BIT       PTSD1
      000000B8H.6 SFRSYM    DATA     BIT       PDRV0
      000000D8H.5 SFRSYM    DATA     BIT       PSPI1
LX51 LINKER/LOCATER V4.66.100.0                                                       04/25/2024  14:24:29  PAGE 131


      000000B8H.7 SFRSYM    DATA     BIT       PDRV1
      000000D1H   SFRSYM    DATA     BYTE      P1_IE
      000000D3H   SFRSYM    DATA     BYTE      P2_IE
      000000D2H   SFRSYM    DATA     BYTE      P1_IF
      000000D4H   SFRSYM    DATA     BYTE      P2_IF
      000000ACH   SFRSYM    DATA     WORD      TIM2__DR
      000000C8H.4 SFRSYM    DATA     BIT       PTIM4S0
      000000FCH   SFRSYM    DATA     BYTE      P0_OE
      000000A4H   SFRSYM    DATA     WORD      TIM3__DR
      000000C8H.5 SFRSYM    DATA     BIT       PTIM4S1
      000000FDH   SFRSYM    DATA     BYTE      P1_OE
      00000094H   SFRSYM    DATA     WORD      TIM4__DR
      000000D0H.5 SFRSYM    DATA     BIT       F0
      000000FEH   SFRSYM    DATA     BYTE      P2_OE
      000000D0H.1 SFRSYM    DATA     BIT       F1
      000000FFH   SFRSYM    DATA     BYTE      P3_OE
      00000080H.0 SFRSYM    DATA     BIT       GP00
      000000E9H   SFRSYM    DATA     BYTE      P4_OE
      00000090H.0 SFRSYM    DATA     BIT       GP10
      00000080H.1 SFRSYM    DATA     BIT       GP01
      000000A0H.0 SFRSYM    DATA     BIT       GP20
      00000090H.1 SFRSYM    DATA     BIT       GP11
      00000080H.2 SFRSYM    DATA     BIT       GP02
      000000B0H.0 SFRSYM    DATA     BIT       GP30
      000000A0H.1 SFRSYM    DATA     BIT       GP21
      00000090H.2 SFRSYM    DATA     BIT       GP12
      00000080H.3 SFRSYM    DATA     BIT       GP03
      000000B8H.0 SFRSYM    DATA     BIT       PLVW0
      000000A8H.1 SFRSYM    DATA     BIT       TSDIE
      000000D0H   SFRSYM    DATA     BYTE      PSW
      000000E8H.0 SFRSYM    DATA     BIT       GP40
      000000B0H.1 SFRSYM    DATA     BIT       GP31
      000000A0H.2 SFRSYM    DATA     BIT       GP22
      00000090H.3 SFRSYM    DATA     BIT       GP13
      00000080H.4 SFRSYM    DATA     BIT       GP04
      000000B8H.1 SFRSYM    DATA     BIT       PLVW1
      000000A8H.3 SFRSYM    DATA     BIT       SPIIE
      00000088H.5 SFRSYM    DATA     BIT       TSDIF
      000000E8H.1 SFRSYM    DATA     BIT       GP41
      000000B0H.2 SFRSYM    DATA     BIT       GP32
      000000A0H.3 SFRSYM    DATA     BIT       GP23
      00000090H.4 SFRSYM    DATA     BIT       GP14
      00000080H.5 SFRSYM    DATA     BIT       GP05
      000000C4H   SFRSYM    DATA     BYTE      MDU_DA0
      000000E8H.2 SFRSYM    DATA     BIT       GP42
      000000B0H.3 SFRSYM    DATA     BIT       GP33
      000000A0H.4 SFRSYM    DATA     BIT       GP24
      00000090H.5 SFRSYM    DATA     BIT       GP15
      00000080H.6 SFRSYM    DATA     BIT       GP06
      000000CCH   SFRSYM    DATA     BYTE      MDU_DB0
      000000C5H   SFRSYM    DATA     BYTE      MDU_DA1
      00000088H.0 SFRSYM    DATA     BIT       IT00

      01003870H   BLOCK     CODE     ---       LVL=0
      01003870H   LINE      CODE     ---       #231
      01003870H   LINE      CODE     ---       #232
      01003870H   LINE      CODE     ---       #234
      01003872H   LINE      CODE     ---       #235
      01003874H   LINE      CODE     ---       #236
      01003876H   LINE      CODE     ---       #237
      0100387DH   LINE      CODE     ---       #239
      ---         BLOCKEND  ---      ---       LVL=0

      ---         MODULE    ---      ---       ADCINIT
      01003031H   PUBLIC    CODE     ---       ADC_Init
LX51 LINKER/LOCATER V4.66.100.0                                                       04/25/2024  14:24:29  PAGE 132


      000000B0H.4 SFRSYM    DATA     BIT       GP34
      000000A0H.5 SFRSYM    DATA     BIT       GP25
      00000090H.6 SFRSYM    DATA     BIT       GP16
      00000080H.7 SFRSYM    DATA     BIT       GP07
      000000CDH   SFRSYM    DATA     BYTE      MDU_DB1
      000000C6H   SFRSYM    DATA     BYTE      MDU_DA2
      00000088H.1 SFRSYM    DATA     BIT       IT01
      00000088H.3 SFRSYM    DATA     BIT       IT10
      000000B0H.5 SFRSYM    DATA     BIT       GP35
      000000A0H.6 SFRSYM    DATA     BIT       GP26
      00000090H.7 SFRSYM    DATA     BIT       GP17
      00000080H   SFRSYM    DATA     BYTE      P0
      000000F6H   SFRSYM    DATA     WORD      PI_UKMIN
      000000C7H   SFRSYM    DATA     BYTE      MDU_DA3
      00000088H.4 SFRSYM    DATA     BIT       IT11
      000000C9H   SFRSYM    DATA     BYTE      RST_SR
      000000D9H   SFRSYM    DATA     BYTE      EVT_FILT
      000000B0H.6 SFRSYM    DATA     BIT       GP36
      000000A0H.7 SFRSYM    DATA     BIT       GP27
      00000090H   SFRSYM    DATA     BYTE      P1
      000000B0H.7 SFRSYM    DATA     BIT       GP37
      000000A0H   SFRSYM    DATA     BYTE      P2
      000000F4H   SFRSYM    DATA     WORD      PI_UKMAX
      000000B0H   SFRSYM    DATA     BYTE      P3
      000000E8H   SFRSYM    DATA     BYTE      P4
      000000D0H.6 SFRSYM    DATA     BIT       AC
      000000A8H.7 SFRSYM    DATA     BIT       EA
      000000D5H   SFRSYM    DATA     BYTE      CMP_CR0
      000000D6H   SFRSYM    DATA     BYTE      CMP_CR1
      000000DAH   SFRSYM    DATA     BYTE      CMP_CR2
      000000B8H.2 SFRSYM    DATA     BIT       PX00
      000000DCH   SFRSYM    DATA     BYTE      CMP_CR3
      000000F8H.0 SFRSYM    DATA     BIT       OISUH
      000000EAH   SFRSYM    DATA     WORD      PI_EK
      000000B8H.3 SFRSYM    DATA     BIT       PX01
      000000B8H.4 SFRSYM    DATA     BIT       PX10
      000000F8H.2 SFRSYM    DATA     BIT       OISVH
      000000B8H.5 SFRSYM    DATA     BIT       PX11
      000000F8H.1 SFRSYM    DATA     BIT       OISUL
      000000DDH   SFRSYM    DATA     BYTE      LPF_K
      000000F2H   SFRSYM    DATA     WORD      PI_KI
      000000A8H   SFRSYM    DATA     BYTE      IE
      000000F8H.3 SFRSYM    DATA     BIT       OISVL
      000000EEH   SFRSYM    DATA     WORD      PI_KP
      000000AAH   SFRSYM    DATA     WORD      TIM2__CNTR
      000000A2H   SFRSYM    DATA     WORD      TIM3__CNTR
      00000092H   SFRSYM    DATA     WORD      TIM4__CNTR
      000000ECH   SFRSYM    DATA     WORD      PI_UK
      000000DEH   SFRSYM    DATA     WORD      LPF_X
      00000098H.0 SFRSYM    DATA     BIT       RI
      00000098H.6 SFRSYM    DATA     BIT       UT_MOD0
      000000E6H   SFRSYM    DATA     WORD      LPF_Y
      00000098H.7 SFRSYM    DATA     BIT       UT_MOD1
      000000D0H.7 SFRSYM    DATA     BIT       CY
      00000098H.1 SFRSYM    DATA     BIT       TI
      000000C0H.2 SFRSYM    DATA     BIT       PTIM10
      00000084H   SFRSYM    DATA     BYTE      FLA_KEY
      000000C0H.0 SFRSYM    DATA     BIT       PTIM20
      000000C0H.3 SFRSYM    DATA     BIT       PTIM11
      00000098H   SFRSYM    DATA     BYTE      UT_CR
      000000C8H.2 SFRSYM    DATA     BIT       PTIM30
      000000C0H.1 SFRSYM    DATA     BIT       PTIM21
      00000099H   SFRSYM    DATA     BYTE      UT_DR
      000000C8H.3 SFRSYM    DATA     BIT       PTIM31
      000000D0H.2 SFRSYM    DATA     BIT       OV
LX51 LINKER/LOCATER V4.66.100.0                                                       04/25/2024  14:24:29  PAGE 133


      0000009AH   SFRSYM    DATA     WORD      UT_BAUD
      000000C4H   SFRSYM    DATA     WORD      MDU_DA01
      000000CCH   SFRSYM    DATA     WORD      MDU_DB01
      00000087H   SFRSYM    DATA     BYTE      PCON
      000000C6H   SFRSYM    DATA     WORD      MDU_DA23
      00000088H   SFRSYM    DATA     BYTE      TCON
      00000082H   SFRSYM    DATA     WORD      DPTR
      000000D8H.0 SFRSYM    DATA     BIT       PUART0
      000000D8H.1 SFRSYM    DATA     BIT       PUART1
      000000D8H.2 SFRSYM    DATA     BIT       PI2C0
      00000088H.2 SFRSYM    DATA     BIT       IF0
      000000D8H.3 SFRSYM    DATA     BIT       PI2C1
      000000AEH   SFRSYM    DATA     WORD      TIM2__ARR
      000000A1H   SFRSYM    DATA     BYTE      TIM2_CR0
      000000A6H   SFRSYM    DATA     WORD      TIM3__ARR
      0000009CH   SFRSYM    DATA     BYTE      TIM3_CR0
      000000A9H   SFRSYM    DATA     BYTE      TIM2_CR1
      00000096H   SFRSYM    DATA     WORD      TIM4__ARR
      0000009EH   SFRSYM    DATA     BYTE      TIM4_CR0
      0000009DH   SFRSYM    DATA     BYTE      TIM3_CR1
      000000F8H   SFRSYM    DATA     BYTE      DRV_OUT
      0000009FH   SFRSYM    DATA     BYTE      TIM4_CR1
      000000DBH   SFRSYM    DATA     BYTE      LVSR
      000000A8H.4 SFRSYM    DATA     BIT       ES0
      00000085H   SFRSYM    DATA     BYTE      FLA_CR
      000000C0H.4 SFRSYM    DATA     BIT       PADC0
      000000B8H   SFRSYM    DATA     BYTE      IP0
      000000C0H.5 SFRSYM    DATA     BIT       PADC1
      000000C0H   SFRSYM    DATA     BYTE      IP1
      000000C8H   SFRSYM    DATA     BYTE      IP2
      00000098H.2 SFRSYM    DATA     BIT       RB8
      000000D8H   SFRSYM    DATA     BYTE      IP3
      000000A8H.0 SFRSYM    DATA     BIT       EX0
      00000098H.3 SFRSYM    DATA     BIT       TB8
      000000A8H.2 SFRSYM    DATA     BIT       EX1
      000000D0H.0 SFRSYM    DATA     BIT       P
      000000F9H   SFRSYM    DATA     BYTE      PI_LPF_CR
      00000098H.5 SFRSYM    DATA     BIT       SM2
      000000D8H.6 SFRSYM    DATA     BIT       PDMA0
      000000D8H.7 SFRSYM    DATA     BIT       PDMA1
      000000C2H   SFRSYM    DATA     WORD      MDU_MA
      000000D0H.3 SFRSYM    DATA     BIT       RS0
      000000CAH   SFRSYM    DATA     WORD      MDU_MB
      000000D0H.4 SFRSYM    DATA     BIT       RS1
      000000C1H   SFRSYM    DATA     BYTE      MDU_CR
      000000F8H.7 SFRSYM    DATA     BIT       MOE
      000000C0H.6 SFRSYM    DATA     BIT       PCMP0
      000000C0H.7 SFRSYM    DATA     BIT       PCMP1
      000000F8H.4 SFRSYM    DATA     BIT       OISWXH
      00000098H.4 SFRSYM    DATA     BIT       REN
      000000D7H   SFRSYM    DATA     BYTE      CMP_SR
      000000F8H.5 SFRSYM    DATA     BIT       OISWXL
      000000C8H.6 SFRSYM    DATA     BIT       PTSD0
      000000D8H.4 SFRSYM    DATA     BIT       PSPI0
      000000C8H.7 SFRSYM    DATA     BIT       PTSD1
      000000B8H.6 SFRSYM    DATA     BIT       PDRV0
      000000D8H.5 SFRSYM    DATA     BIT       PSPI1
      000000B8H.7 SFRSYM    DATA     BIT       PDRV1
      000000D1H   SFRSYM    DATA     BYTE      P1_IE
      000000D3H   SFRSYM    DATA     BYTE      P2_IE
      000000D2H   SFRSYM    DATA     BYTE      P1_IF
      000000D4H   SFRSYM    DATA     BYTE      P2_IF
      000000ACH   SFRSYM    DATA     WORD      TIM2__DR
      000000C8H.4 SFRSYM    DATA     BIT       PTIM4S0
      000000FCH   SFRSYM    DATA     BYTE      P0_OE
LX51 LINKER/LOCATER V4.66.100.0                                                       04/25/2024  14:24:29  PAGE 134


      000000A4H   SFRSYM    DATA     WORD      TIM3__DR
      000000C8H.5 SFRSYM    DATA     BIT       PTIM4S1
      000000FDH   SFRSYM    DATA     BYTE      P1_OE
      00000094H   SFRSYM    DATA     WORD      TIM4__DR
      000000D0H.5 SFRSYM    DATA     BIT       F0
      000000FEH   SFRSYM    DATA     BYTE      P2_OE
      000000D0H.1 SFRSYM    DATA     BIT       F1
      000000FFH   SFRSYM    DATA     BYTE      P3_OE
      00000080H.0 SFRSYM    DATA     BIT       GP00
      000000E9H   SFRSYM    DATA     BYTE      P4_OE
      00000090H.0 SFRSYM    DATA     BIT       GP10
      00000080H.1 SFRSYM    DATA     BIT       GP01
      000000A0H.0 SFRSYM    DATA     BIT       GP20
      00000090H.1 SFRSYM    DATA     BIT       GP11
      00000080H.2 SFRSYM    DATA     BIT       GP02
      000000B0H.0 SFRSYM    DATA     BIT       GP30
      000000A0H.1 SFRSYM    DATA     BIT       GP21
      00000090H.2 SFRSYM    DATA     BIT       GP12
      00000080H.3 SFRSYM    DATA     BIT       GP03
      000000B8H.0 SFRSYM    DATA     BIT       PLVW0
      000000A8H.1 SFRSYM    DATA     BIT       TSDIE
      000000D0H   SFRSYM    DATA     BYTE      PSW
      000000E8H.0 SFRSYM    DATA     BIT       GP40
      000000B0H.1 SFRSYM    DATA     BIT       GP31
      000000A0H.2 SFRSYM    DATA     BIT       GP22
      00000090H.3 SFRSYM    DATA     BIT       GP13
      00000080H.4 SFRSYM    DATA     BIT       GP04
      000000B8H.1 SFRSYM    DATA     BIT       PLVW1
      000000A8H.3 SFRSYM    DATA     BIT       SPIIE
      00000088H.5 SFRSYM    DATA     BIT       TSDIF
      000000E8H.1 SFRSYM    DATA     BIT       GP41
      000000B0H.2 SFRSYM    DATA     BIT       GP32
      000000A0H.3 SFRSYM    DATA     BIT       GP23
      00000090H.4 SFRSYM    DATA     BIT       GP14
      00000080H.5 SFRSYM    DATA     BIT       GP05
      000000C4H   SFRSYM    DATA     BYTE      MDU_DA0
      000000E8H.2 SFRSYM    DATA     BIT       GP42
      000000B0H.3 SFRSYM    DATA     BIT       GP33
      000000A0H.4 SFRSYM    DATA     BIT       GP24
      00000090H.5 SFRSYM    DATA     BIT       GP15
      00000080H.6 SFRSYM    DATA     BIT       GP06
      000000CCH   SFRSYM    DATA     BYTE      MDU_DB0
      000000C5H   SFRSYM    DATA     BYTE      MDU_DA1
      00000088H.0 SFRSYM    DATA     BIT       IT00

      01003031H   BLOCK     CODE     ---       LVL=0
      01003031H   BLOCK     CODE     NEAR LAB  LVL=1
      00000006H   SYMBOL    DATA     WORD      ADCVREF_DelayCnt
      ---         BLOCKEND  ---      ---       LVL=1
      01003031H   LINE      CODE     ---       #23
      01003031H   LINE      CODE     ---       #24
      01003031H   LINE      CODE     ---       #27
      01003038H   LINE      CODE     ---       #28
      0100303FH   LINE      CODE     ---       #33
      01003046H   LINE      CODE     ---       #41
      0100304DH   LINE      CODE     ---       #43
      01003060H   LINE      CODE     ---       #57
      01003067H   LINE      CODE     ---       #59
      0100306EH   LINE      CODE     ---       #60
      01003084H   LINE      CODE     ---       #63
      0100309AH   LINE      CODE     ---       #64
      010030A0H   LINE      CODE     ---       #66
      010030A5H   LINE      CODE     ---       #67
      ---         BLOCKEND  ---      ---       LVL=0

LX51 LINKER/LOCATER V4.66.100.0                                                       04/25/2024  14:24:29  PAGE 135


      ---         MODULE    ---      ---       CMPINIT
      0100385EH   PUBLIC    CODE     ---       CMP3_Inter_Init
      010034C4H   PUBLIC    CODE     ---       CMP3_Init
      000000B0H.4 SFRSYM    DATA     BIT       GP34
      000000A0H.5 SFRSYM    DATA     BIT       GP25
      00000090H.6 SFRSYM    DATA     BIT       GP16
      00000080H.7 SFRSYM    DATA     BIT       GP07
      000000CDH   SFRSYM    DATA     BYTE      MDU_DB1
      000000C6H   SFRSYM    DATA     BYTE      MDU_DA2
      00000088H.1 SFRSYM    DATA     BIT       IT01
      00000088H.3 SFRSYM    DATA     BIT       IT10
      000000B0H.5 SFRSYM    DATA     BIT       GP35
      000000A0H.6 SFRSYM    DATA     BIT       GP26
      00000090H.7 SFRSYM    DATA     BIT       GP17
      00000080H   SFRSYM    DATA     BYTE      P0
      000000F6H   SFRSYM    DATA     WORD      PI_UKMIN
      000000C7H   SFRSYM    DATA     BYTE      MDU_DA3
      00000088H.4 SFRSYM    DATA     BIT       IT11
      000000C9H   SFRSYM    DATA     BYTE      RST_SR
      000000D9H   SFRSYM    DATA     BYTE      EVT_FILT
      000000B0H.6 SFRSYM    DATA     BIT       GP36
      000000A0H.7 SFRSYM    DATA     BIT       GP27
      00000090H   SFRSYM    DATA     BYTE      P1
      000000B0H.7 SFRSYM    DATA     BIT       GP37
      000000A0H   SFRSYM    DATA     BYTE      P2
      000000F4H   SFRSYM    DATA     WORD      PI_UKMAX
      000000B0H   SFRSYM    DATA     BYTE      P3
      000000E8H   SFRSYM    DATA     BYTE      P4
      000000D0H.6 SFRSYM    DATA     BIT       AC
      000000A8H.7 SFRSYM    DATA     BIT       EA
      000000D5H   SFRSYM    DATA     BYTE      CMP_CR0
      000000D6H   SFRSYM    DATA     BYTE      CMP_CR1
      000000DAH   SFRSYM    DATA     BYTE      CMP_CR2
      000000B8H.2 SFRSYM    DATA     BIT       PX00
      000000DCH   SFRSYM    DATA     BYTE      CMP_CR3
      000000F8H.0 SFRSYM    DATA     BIT       OISUH
      000000EAH   SFRSYM    DATA     WORD      PI_EK
      000000B8H.3 SFRSYM    DATA     BIT       PX01
      000000B8H.4 SFRSYM    DATA     BIT       PX10
      000000F8H.2 SFRSYM    DATA     BIT       OISVH
      000000B8H.5 SFRSYM    DATA     BIT       PX11
      000000F8H.1 SFRSYM    DATA     BIT       OISUL
      000000DDH   SFRSYM    DATA     BYTE      LPF_K
      000000F2H   SFRSYM    DATA     WORD      PI_KI
      000000A8H   SFRSYM    DATA     BYTE      IE
      000000F8H.3 SFRSYM    DATA     BIT       OISVL
      000000EEH   SFRSYM    DATA     WORD      PI_KP
      000000AAH   SFRSYM    DATA     WORD      TIM2__CNTR
      000000A2H   SFRSYM    DATA     WORD      TIM3__CNTR
      00000092H   SFRSYM    DATA     WORD      TIM4__CNTR
      000000ECH   SFRSYM    DATA     WORD      PI_UK
      000000DEH   SFRSYM    DATA     WORD      LPF_X
      00000098H.0 SFRSYM    DATA     BIT       RI
      00000098H.6 SFRSYM    DATA     BIT       UT_MOD0
      000000E6H   SFRSYM    DATA     WORD      LPF_Y
      00000098H.7 SFRSYM    DATA     BIT       UT_MOD1
      000000D0H.7 SFRSYM    DATA     BIT       CY
      00000098H.1 SFRSYM    DATA     BIT       TI
      000000C0H.2 SFRSYM    DATA     BIT       PTIM10
      00000084H   SFRSYM    DATA     BYTE      FLA_KEY
      000000C0H.0 SFRSYM    DATA     BIT       PTIM20
      000000C0H.3 SFRSYM    DATA     BIT       PTIM11
      00000098H   SFRSYM    DATA     BYTE      UT_CR
      000000C8H.2 SFRSYM    DATA     BIT       PTIM30
      000000C0H.1 SFRSYM    DATA     BIT       PTIM21
LX51 LINKER/LOCATER V4.66.100.0                                                       04/25/2024  14:24:29  PAGE 136


      00000099H   SFRSYM    DATA     BYTE      UT_DR
      000000C8H.3 SFRSYM    DATA     BIT       PTIM31
      000000D0H.2 SFRSYM    DATA     BIT       OV
      0000009AH   SFRSYM    DATA     WORD      UT_BAUD
      000000C4H   SFRSYM    DATA     WORD      MDU_DA01
      000000CCH   SFRSYM    DATA     WORD      MDU_DB01
      00000087H   SFRSYM    DATA     BYTE      PCON
      000000C6H   SFRSYM    DATA     WORD      MDU_DA23
      00000088H   SFRSYM    DATA     BYTE      TCON
      00000082H   SFRSYM    DATA     WORD      DPTR
      000000D8H.0 SFRSYM    DATA     BIT       PUART0
      000000D8H.1 SFRSYM    DATA     BIT       PUART1
      000000D8H.2 SFRSYM    DATA     BIT       PI2C0
      00000088H.2 SFRSYM    DATA     BIT       IF0
      000000D8H.3 SFRSYM    DATA     BIT       PI2C1
      000000AEH   SFRSYM    DATA     WORD      TIM2__ARR
      000000A1H   SFRSYM    DATA     BYTE      TIM2_CR0
      000000A6H   SFRSYM    DATA     WORD      TIM3__ARR
      0000009CH   SFRSYM    DATA     BYTE      TIM3_CR0
      000000A9H   SFRSYM    DATA     BYTE      TIM2_CR1
      00000096H   SFRSYM    DATA     WORD      TIM4__ARR
      0000009EH   SFRSYM    DATA     BYTE      TIM4_CR0
      0000009DH   SFRSYM    DATA     BYTE      TIM3_CR1
      000000F8H   SFRSYM    DATA     BYTE      DRV_OUT
      0000009FH   SFRSYM    DATA     BYTE      TIM4_CR1
      000000DBH   SFRSYM    DATA     BYTE      LVSR
      000000A8H.4 SFRSYM    DATA     BIT       ES0
      00000085H   SFRSYM    DATA     BYTE      FLA_CR
      000000C0H.4 SFRSYM    DATA     BIT       PADC0
      000000B8H   SFRSYM    DATA     BYTE      IP0
      000000C0H.5 SFRSYM    DATA     BIT       PADC1
      000000C0H   SFRSYM    DATA     BYTE      IP1
      000000C8H   SFRSYM    DATA     BYTE      IP2
      00000098H.2 SFRSYM    DATA     BIT       RB8
      000000D8H   SFRSYM    DATA     BYTE      IP3
      000000A8H.0 SFRSYM    DATA     BIT       EX0
      00000098H.3 SFRSYM    DATA     BIT       TB8
      000000A8H.2 SFRSYM    DATA     BIT       EX1
      000000D0H.0 SFRSYM    DATA     BIT       P
      000000F9H   SFRSYM    DATA     BYTE      PI_LPF_CR
      00000098H.5 SFRSYM    DATA     BIT       SM2
      000000D8H.6 SFRSYM    DATA     BIT       PDMA0
      000000D8H.7 SFRSYM    DATA     BIT       PDMA1
      000000C2H   SFRSYM    DATA     WORD      MDU_MA
      000000D0H.3 SFRSYM    DATA     BIT       RS0
      000000CAH   SFRSYM    DATA     WORD      MDU_MB
      000000D0H.4 SFRSYM    DATA     BIT       RS1
      000000C1H   SFRSYM    DATA     BYTE      MDU_CR
      000000F8H.7 SFRSYM    DATA     BIT       MOE
      000000C0H.6 SFRSYM    DATA     BIT       PCMP0
      000000C0H.7 SFRSYM    DATA     BIT       PCMP1
      000000F8H.4 SFRSYM    DATA     BIT       OISWXH
      00000098H.4 SFRSYM    DATA     BIT       REN
      000000D7H   SFRSYM    DATA     BYTE      CMP_SR
      000000F8H.5 SFRSYM    DATA     BIT       OISWXL
      000000C8H.6 SFRSYM    DATA     BIT       PTSD0
      000000D8H.4 SFRSYM    DATA     BIT       PSPI0
      000000C8H.7 SFRSYM    DATA     BIT       PTSD1
      000000B8H.6 SFRSYM    DATA     BIT       PDRV0
      000000D8H.5 SFRSYM    DATA     BIT       PSPI1
      000000B8H.7 SFRSYM    DATA     BIT       PDRV1
      000000D1H   SFRSYM    DATA     BYTE      P1_IE
      000000D3H   SFRSYM    DATA     BYTE      P2_IE
      000000D2H   SFRSYM    DATA     BYTE      P1_IF
      000000D4H   SFRSYM    DATA     BYTE      P2_IF
LX51 LINKER/LOCATER V4.66.100.0                                                       04/25/2024  14:24:29  PAGE 137


      000000ACH   SFRSYM    DATA     WORD      TIM2__DR
      000000C8H.4 SFRSYM    DATA     BIT       PTIM4S0
      000000FCH   SFRSYM    DATA     BYTE      P0_OE
      000000A4H   SFRSYM    DATA     WORD      TIM3__DR
      000000C8H.5 SFRSYM    DATA     BIT       PTIM4S1
      000000FDH   SFRSYM    DATA     BYTE      P1_OE
      00000094H   SFRSYM    DATA     WORD      TIM4__DR
      000000D0H.5 SFRSYM    DATA     BIT       F0
      000000FEH   SFRSYM    DATA     BYTE      P2_OE
      000000D0H.1 SFRSYM    DATA     BIT       F1
      000000FFH   SFRSYM    DATA     BYTE      P3_OE
      00000080H.0 SFRSYM    DATA     BIT       GP00
      000000E9H   SFRSYM    DATA     BYTE      P4_OE
      00000090H.0 SFRSYM    DATA     BIT       GP10
      00000080H.1 SFRSYM    DATA     BIT       GP01
      000000A0H.0 SFRSYM    DATA     BIT       GP20
      00000090H.1 SFRSYM    DATA     BIT       GP11
      00000080H.2 SFRSYM    DATA     BIT       GP02
      000000B0H.0 SFRSYM    DATA     BIT       GP30
      000000A0H.1 SFRSYM    DATA     BIT       GP21
      00000090H.2 SFRSYM    DATA     BIT       GP12
      00000080H.3 SFRSYM    DATA     BIT       GP03
      000000B8H.0 SFRSYM    DATA     BIT       PLVW0
      000000A8H.1 SFRSYM    DATA     BIT       TSDIE
      000000D0H   SFRSYM    DATA     BYTE      PSW
      000000E8H.0 SFRSYM    DATA     BIT       GP40
      000000B0H.1 SFRSYM    DATA     BIT       GP31
      000000A0H.2 SFRSYM    DATA     BIT       GP22
      00000090H.3 SFRSYM    DATA     BIT       GP13
      00000080H.4 SFRSYM    DATA     BIT       GP04
      000000B8H.1 SFRSYM    DATA     BIT       PLVW1
      000000A8H.3 SFRSYM    DATA     BIT       SPIIE
      00000088H.5 SFRSYM    DATA     BIT       TSDIF
      000000E8H.1 SFRSYM    DATA     BIT       GP41
      000000B0H.2 SFRSYM    DATA     BIT       GP32
      000000A0H.3 SFRSYM    DATA     BIT       GP23
      00000090H.4 SFRSYM    DATA     BIT       GP14
      00000080H.5 SFRSYM    DATA     BIT       GP05
      000000C4H   SFRSYM    DATA     BYTE      MDU_DA0
      000000E8H.2 SFRSYM    DATA     BIT       GP42
      000000B0H.3 SFRSYM    DATA     BIT       GP33
      000000A0H.4 SFRSYM    DATA     BIT       GP24
      00000090H.5 SFRSYM    DATA     BIT       GP15
      00000080H.6 SFRSYM    DATA     BIT       GP06
      000000CCH   SFRSYM    DATA     BYTE      MDU_DB0
      000000C5H   SFRSYM    DATA     BYTE      MDU_DA1
      00000088H.0 SFRSYM    DATA     BIT       IT00

      010034C4H   BLOCK     CODE     ---       LVL=0
      010034C4H   LINE      CODE     ---       #22
      010034C4H   LINE      CODE     ---       #23
      010034C4H   LINE      CODE     ---       #25
      010034C4H   LINE      CODE     ---       #26
      010034CBH   LINE      CODE     ---       #28
      010034CEH   LINE      CODE     ---       #29
      010034CEH   LINE      CODE     ---       #50
      010034CEH   LINE      CODE     ---       #51
      010034D2H   LINE      CODE     ---       #52
      010034D5H   LINE      CODE     ---       #58
      010034DCH   LINE      CODE     ---       #60
      010034E2H   LINE      CODE     ---       #63
      010034E9H   LINE      CODE     ---       #64
      010034E9H   LINE      CODE     ---       #67
      010034ECH   LINE      CODE     ---       #73
      010034EFH   LINE      CODE     ---       #79
LX51 LINKER/LOCATER V4.66.100.0                                                       04/25/2024  14:24:29  PAGE 138


      010034F7H   LINE      CODE     ---       #85
      010034FFH   LINE      CODE     ---       #88
      01003502H   LINE      CODE     ---       #90
      ---         BLOCKEND  ---      ---       LVL=0

      0100385EH   BLOCK     CODE     ---       LVL=0
      0100385EH   LINE      CODE     ---       #92
      0100385EH   LINE      CODE     ---       #93
      0100385EH   LINE      CODE     ---       #98
      01003861H   LINE      CODE     ---       #99
      01003869H   LINE      CODE     ---       #101
      0100386BH   LINE      CODE     ---       #102
      0100386DH   LINE      CODE     ---       #104
      0100386FH   LINE      CODE     ---       #105
      ---         BLOCKEND  ---      ---       LVL=0

      ---         MODULE    ---      ---       GPIOINIT
      0100334EH   PUBLIC    CODE     ---       GPIO_Init
      000000B0H.4 SFRSYM    DATA     BIT       GP34
      000000A0H.5 SFRSYM    DATA     BIT       GP25
      00000090H.6 SFRSYM    DATA     BIT       GP16
      00000080H.7 SFRSYM    DATA     BIT       GP07
      000000CDH   SFRSYM    DATA     BYTE      MDU_DB1
      000000C6H   SFRSYM    DATA     BYTE      MDU_DA2
      00000088H.1 SFRSYM    DATA     BIT       IT01
      00000088H.3 SFRSYM    DATA     BIT       IT10
      000000B0H.5 SFRSYM    DATA     BIT       GP35
      000000A0H.6 SFRSYM    DATA     BIT       GP26
      00000090H.7 SFRSYM    DATA     BIT       GP17
      00000080H   SFRSYM    DATA     BYTE      P0
      000000F6H   SFRSYM    DATA     WORD      PI_UKMIN
      000000C7H   SFRSYM    DATA     BYTE      MDU_DA3
      00000088H.4 SFRSYM    DATA     BIT       IT11
      000000C9H   SFRSYM    DATA     BYTE      RST_SR
      000000D9H   SFRSYM    DATA     BYTE      EVT_FILT
      000000B0H.6 SFRSYM    DATA     BIT       GP36
      000000A0H.7 SFRSYM    DATA     BIT       GP27
      00000090H   SFRSYM    DATA     BYTE      P1
      000000B0H.7 SFRSYM    DATA     BIT       GP37
      000000A0H   SFRSYM    DATA     BYTE      P2
      000000F4H   SFRSYM    DATA     WORD      PI_UKMAX
      000000B0H   SFRSYM    DATA     BYTE      P3
      000000E8H   SFRSYM    DATA     BYTE      P4
      000000D0H.6 SFRSYM    DATA     BIT       AC
      000000A8H.7 SFRSYM    DATA     BIT       EA
      000000D5H   SFRSYM    DATA     BYTE      CMP_CR0
      000000D6H   SFRSYM    DATA     BYTE      CMP_CR1
      000000DAH   SFRSYM    DATA     BYTE      CMP_CR2
      000000B8H.2 SFRSYM    DATA     BIT       PX00
      000000DCH   SFRSYM    DATA     BYTE      CMP_CR3
      000000F8H.0 SFRSYM    DATA     BIT       OISUH
      000000EAH   SFRSYM    DATA     WORD      PI_EK
      000000B8H.3 SFRSYM    DATA     BIT       PX01
      000000B8H.4 SFRSYM    DATA     BIT       PX10
      000000F8H.2 SFRSYM    DATA     BIT       OISVH
      000000B8H.5 SFRSYM    DATA     BIT       PX11
      000000F8H.1 SFRSYM    DATA     BIT       OISUL
      000000DDH   SFRSYM    DATA     BYTE      LPF_K
      000000F2H   SFRSYM    DATA     WORD      PI_KI
      000000A8H   SFRSYM    DATA     BYTE      IE
      000000F8H.3 SFRSYM    DATA     BIT       OISVL
      000000EEH   SFRSYM    DATA     WORD      PI_KP
      000000AAH   SFRSYM    DATA     WORD      TIM2__CNTR
      000000A2H   SFRSYM    DATA     WORD      TIM3__CNTR
      00000092H   SFRSYM    DATA     WORD      TIM4__CNTR
LX51 LINKER/LOCATER V4.66.100.0                                                       04/25/2024  14:24:29  PAGE 139


      000000ECH   SFRSYM    DATA     WORD      PI_UK
      000000DEH   SFRSYM    DATA     WORD      LPF_X
      00000098H.0 SFRSYM    DATA     BIT       RI
      00000098H.6 SFRSYM    DATA     BIT       UT_MOD0
      000000E6H   SFRSYM    DATA     WORD      LPF_Y
      00000098H.7 SFRSYM    DATA     BIT       UT_MOD1
      000000D0H.7 SFRSYM    DATA     BIT       CY
      00000098H.1 SFRSYM    DATA     BIT       TI
      000000C0H.2 SFRSYM    DATA     BIT       PTIM10
      00000084H   SFRSYM    DATA     BYTE      FLA_KEY
      000000C0H.0 SFRSYM    DATA     BIT       PTIM20
      000000C0H.3 SFRSYM    DATA     BIT       PTIM11
      00000098H   SFRSYM    DATA     BYTE      UT_CR
      000000C8H.2 SFRSYM    DATA     BIT       PTIM30
      000000C0H.1 SFRSYM    DATA     BIT       PTIM21
      00000099H   SFRSYM    DATA     BYTE      UT_DR
      000000C8H.3 SFRSYM    DATA     BIT       PTIM31
      000000D0H.2 SFRSYM    DATA     BIT       OV
      0000009AH   SFRSYM    DATA     WORD      UT_BAUD
      000000C4H   SFRSYM    DATA     WORD      MDU_DA01
      000000CCH   SFRSYM    DATA     WORD      MDU_DB01
      00000087H   SFRSYM    DATA     BYTE      PCON
      000000C6H   SFRSYM    DATA     WORD      MDU_DA23
      00000088H   SFRSYM    DATA     BYTE      TCON
      00000082H   SFRSYM    DATA     WORD      DPTR
      000000D8H.0 SFRSYM    DATA     BIT       PUART0
      000000D8H.1 SFRSYM    DATA     BIT       PUART1
      000000D8H.2 SFRSYM    DATA     BIT       PI2C0
      00000088H.2 SFRSYM    DATA     BIT       IF0
      000000D8H.3 SFRSYM    DATA     BIT       PI2C1
      000000AEH   SFRSYM    DATA     WORD      TIM2__ARR
      000000A1H   SFRSYM    DATA     BYTE      TIM2_CR0
      000000A6H   SFRSYM    DATA     WORD      TIM3__ARR
      0000009CH   SFRSYM    DATA     BYTE      TIM3_CR0
      000000A9H   SFRSYM    DATA     BYTE      TIM2_CR1
      00000096H   SFRSYM    DATA     WORD      TIM4__ARR
      0000009EH   SFRSYM    DATA     BYTE      TIM4_CR0
      0000009DH   SFRSYM    DATA     BYTE      TIM3_CR1
      000000F8H   SFRSYM    DATA     BYTE      DRV_OUT
      0000009FH   SFRSYM    DATA     BYTE      TIM4_CR1
      000000DBH   SFRSYM    DATA     BYTE      LVSR
      000000A8H.4 SFRSYM    DATA     BIT       ES0
      00000085H   SFRSYM    DATA     BYTE      FLA_CR
      000000C0H.4 SFRSYM    DATA     BIT       PADC0
      000000B8H   SFRSYM    DATA     BYTE      IP0
      000000C0H.5 SFRSYM    DATA     BIT       PADC1
      000000C0H   SFRSYM    DATA     BYTE      IP1
      000000C8H   SFRSYM    DATA     BYTE      IP2
      00000098H.2 SFRSYM    DATA     BIT       RB8
      000000D8H   SFRSYM    DATA     BYTE      IP3
      000000A8H.0 SFRSYM    DATA     BIT       EX0
      00000098H.3 SFRSYM    DATA     BIT       TB8
      000000A8H.2 SFRSYM    DATA     BIT       EX1
      000000D0H.0 SFRSYM    DATA     BIT       P
      000000F9H   SFRSYM    DATA     BYTE      PI_LPF_CR
      00000098H.5 SFRSYM    DATA     BIT       SM2
      000000D8H.6 SFRSYM    DATA     BIT       PDMA0
      000000D8H.7 SFRSYM    DATA     BIT       PDMA1
      000000C2H   SFRSYM    DATA     WORD      MDU_MA
      000000D0H.3 SFRSYM    DATA     BIT       RS0
      000000CAH   SFRSYM    DATA     WORD      MDU_MB
      000000D0H.4 SFRSYM    DATA     BIT       RS1
      000000C1H   SFRSYM    DATA     BYTE      MDU_CR
      000000F8H.7 SFRSYM    DATA     BIT       MOE
      000000C0H.6 SFRSYM    DATA     BIT       PCMP0
LX51 LINKER/LOCATER V4.66.100.0                                                       04/25/2024  14:24:29  PAGE 140


      000000C0H.7 SFRSYM    DATA     BIT       PCMP1
      000000F8H.4 SFRSYM    DATA     BIT       OISWXH
      00000098H.4 SFRSYM    DATA     BIT       REN
      000000D7H   SFRSYM    DATA     BYTE      CMP_SR
      000000F8H.5 SFRSYM    DATA     BIT       OISWXL
      000000C8H.6 SFRSYM    DATA     BIT       PTSD0
      000000D8H.4 SFRSYM    DATA     BIT       PSPI0
      000000C8H.7 SFRSYM    DATA     BIT       PTSD1
      000000B8H.6 SFRSYM    DATA     BIT       PDRV0
      000000D8H.5 SFRSYM    DATA     BIT       PSPI1
      000000B8H.7 SFRSYM    DATA     BIT       PDRV1
      000000D1H   SFRSYM    DATA     BYTE      P1_IE
      000000D3H   SFRSYM    DATA     BYTE      P2_IE
      000000D2H   SFRSYM    DATA     BYTE      P1_IF
      000000D4H   SFRSYM    DATA     BYTE      P2_IF
      000000ACH   SFRSYM    DATA     WORD      TIM2__DR
      000000C8H.4 SFRSYM    DATA     BIT       PTIM4S0
      000000FCH   SFRSYM    DATA     BYTE      P0_OE
      000000A4H   SFRSYM    DATA     WORD      TIM3__DR
      000000C8H.5 SFRSYM    DATA     BIT       PTIM4S1
      000000FDH   SFRSYM    DATA     BYTE      P1_OE
      00000094H   SFRSYM    DATA     WORD      TIM4__DR
      000000D0H.5 SFRSYM    DATA     BIT       F0
      000000FEH   SFRSYM    DATA     BYTE      P2_OE
      000000D0H.1 SFRSYM    DATA     BIT       F1
      000000FFH   SFRSYM    DATA     BYTE      P3_OE
      00000080H.0 SFRSYM    DATA     BIT       GP00
      000000E9H   SFRSYM    DATA     BYTE      P4_OE
      00000090H.0 SFRSYM    DATA     BIT       GP10
      00000080H.1 SFRSYM    DATA     BIT       GP01
      000000A0H.0 SFRSYM    DATA     BIT       GP20
      00000090H.1 SFRSYM    DATA     BIT       GP11
      00000080H.2 SFRSYM    DATA     BIT       GP02
      000000B0H.0 SFRSYM    DATA     BIT       GP30
      000000A0H.1 SFRSYM    DATA     BIT       GP21
      00000090H.2 SFRSYM    DATA     BIT       GP12
      00000080H.3 SFRSYM    DATA     BIT       GP03
      000000B8H.0 SFRSYM    DATA     BIT       PLVW0
      000000A8H.1 SFRSYM    DATA     BIT       TSDIE
      000000D0H   SFRSYM    DATA     BYTE      PSW
      000000E8H.0 SFRSYM    DATA     BIT       GP40
      000000B0H.1 SFRSYM    DATA     BIT       GP31
      000000A0H.2 SFRSYM    DATA     BIT       GP22
      00000090H.3 SFRSYM    DATA     BIT       GP13
      00000080H.4 SFRSYM    DATA     BIT       GP04
      000000B8H.1 SFRSYM    DATA     BIT       PLVW1
      000000A8H.3 SFRSYM    DATA     BIT       SPIIE
      00000088H.5 SFRSYM    DATA     BIT       TSDIF
      000000E8H.1 SFRSYM    DATA     BIT       GP41
      000000B0H.2 SFRSYM    DATA     BIT       GP32
      000000A0H.3 SFRSYM    DATA     BIT       GP23
      00000090H.4 SFRSYM    DATA     BIT       GP14
      00000080H.5 SFRSYM    DATA     BIT       GP05
      000000C4H   SFRSYM    DATA     BYTE      MDU_DA0
      000000E8H.2 SFRSYM    DATA     BIT       GP42
      000000B0H.3 SFRSYM    DATA     BIT       GP33
      000000A0H.4 SFRSYM    DATA     BIT       GP24
      00000090H.5 SFRSYM    DATA     BIT       GP15
      00000080H.6 SFRSYM    DATA     BIT       GP06
      000000CCH   SFRSYM    DATA     BYTE      MDU_DB0
      000000C5H   SFRSYM    DATA     BYTE      MDU_DA1
      00000088H.0 SFRSYM    DATA     BIT       IT00

      0100334EH   BLOCK     CODE     ---       LVL=0
      0100334EH   LINE      CODE     ---       #46
LX51 LINKER/LOCATER V4.66.100.0                                                       04/25/2024  14:24:29  PAGE 141


      0100334EH   LINE      CODE     ---       #47
      0100334EH   LINE      CODE     ---       #48
      01003355H   LINE      CODE     ---       #49
      01003359H   LINE      CODE     ---       #51
      0100335CH   LINE      CODE     ---       #52
      0100335EH   LINE      CODE     ---       #53
      01003361H   LINE      CODE     ---       #54
      01003363H   LINE      CODE     ---       #55
      01003366H   LINE      CODE     ---       #56
      01003368H   LINE      CODE     ---       #57
      0100336BH   LINE      CODE     ---       #58
      0100336DH   LINE      CODE     ---       #59
      01003370H   LINE      CODE     ---       #60
      01003372H   LINE      CODE     ---       #61
      01003375H   LINE      CODE     ---       #62
      01003377H   LINE      CODE     ---       #64
      0100337AH   LINE      CODE     ---       #65
      0100337FH   LINE      CODE     ---       #66
      01003381H   LINE      CODE     ---       #67
      01003384H   LINE      CODE     ---       #68
      01003388H   LINE      CODE     ---       #69
      0100338AH   LINE      CODE     ---       #71
      0100338DH   LINE      CODE     ---       #72
      01003391H   LINE      CODE     ---       #73
      01003394H   LINE      CODE     ---       #74
      01003398H   LINE      CODE     ---       #75
      0100339BH   LINE      CODE     ---       #76
      0100339FH   LINE      CODE     ---       #121
      ---         BLOCKEND  ---      ---       LVL=0

      ---         MODULE    ---      ---       MDUINIT
      0100323CH   PUBLIC    CODE     ---       _MDU_DIV_IDATA_U32
      010030A6H   PUBLIC    CODE     ---       _MDU_DIV_XDATA_U32
      000000B0H.4 SFRSYM    DATA     BIT       GP34
      000000A0H.5 SFRSYM    DATA     BIT       GP25
      00000090H.6 SFRSYM    DATA     BIT       GP16
      00000080H.7 SFRSYM    DATA     BIT       GP07
      000000CDH   SFRSYM    DATA     BYTE      MDU_DB1
      000000C6H   SFRSYM    DATA     BYTE      MDU_DA2
      00000088H.1 SFRSYM    DATA     BIT       IT01
      00000088H.3 SFRSYM    DATA     BIT       IT10
      000000B0H.5 SFRSYM    DATA     BIT       GP35
      000000A0H.6 SFRSYM    DATA     BIT       GP26
      00000090H.7 SFRSYM    DATA     BIT       GP17
      00000080H   SFRSYM    DATA     BYTE      P0
      000000F6H   SFRSYM    DATA     WORD      PI_UKMIN
      000000C7H   SFRSYM    DATA     BYTE      MDU_DA3
      00000088H.4 SFRSYM    DATA     BIT       IT11
      000000C9H   SFRSYM    DATA     BYTE      RST_SR
      000000D9H   SFRSYM    DATA     BYTE      EVT_FILT
      000000B0H.6 SFRSYM    DATA     BIT       GP36
      000000A0H.7 SFRSYM    DATA     BIT       GP27
      00000090H   SFRSYM    DATA     BYTE      P1
      000000B0H.7 SFRSYM    DATA     BIT       GP37
      000000A0H   SFRSYM    DATA     BYTE      P2
      000000F4H   SFRSYM    DATA     WORD      PI_UKMAX
      000000B0H   SFRSYM    DATA     BYTE      P3
      000000E8H   SFRSYM    DATA     BYTE      P4
      000000D0H.6 SFRSYM    DATA     BIT       AC
      000000A8H.7 SFRSYM    DATA     BIT       EA
      000000D5H   SFRSYM    DATA     BYTE      CMP_CR0
      000000D6H   SFRSYM    DATA     BYTE      CMP_CR1
      000000DAH   SFRSYM    DATA     BYTE      CMP_CR2
      000000B8H.2 SFRSYM    DATA     BIT       PX00
      000000DCH   SFRSYM    DATA     BYTE      CMP_CR3
LX51 LINKER/LOCATER V4.66.100.0                                                       04/25/2024  14:24:29  PAGE 142


      000000F8H.0 SFRSYM    DATA     BIT       OISUH
      000000EAH   SFRSYM    DATA     WORD      PI_EK
      000000B8H.3 SFRSYM    DATA     BIT       PX01
      000000B8H.4 SFRSYM    DATA     BIT       PX10
      000000F8H.2 SFRSYM    DATA     BIT       OISVH
      000000B8H.5 SFRSYM    DATA     BIT       PX11
      000000F8H.1 SFRSYM    DATA     BIT       OISUL
      000000DDH   SFRSYM    DATA     BYTE      LPF_K
      000000F2H   SFRSYM    DATA     WORD      PI_KI
      000000A8H   SFRSYM    DATA     BYTE      IE
      000000F8H.3 SFRSYM    DATA     BIT       OISVL
      000000EEH   SFRSYM    DATA     WORD      PI_KP
      000000AAH   SFRSYM    DATA     WORD      TIM2__CNTR
      000000A2H   SFRSYM    DATA     WORD      TIM3__CNTR
      00000092H   SFRSYM    DATA     WORD      TIM4__CNTR
      000000ECH   SFRSYM    DATA     WORD      PI_UK
      000000DEH   SFRSYM    DATA     WORD      LPF_X
      00000098H.0 SFRSYM    DATA     BIT       RI
      00000098H.6 SFRSYM    DATA     BIT       UT_MOD0
      000000E6H   SFRSYM    DATA     WORD      LPF_Y
      00000098H.7 SFRSYM    DATA     BIT       UT_MOD1
      000000D0H.7 SFRSYM    DATA     BIT       CY
      00000098H.1 SFRSYM    DATA     BIT       TI
      000000C0H.2 SFRSYM    DATA     BIT       PTIM10
      00000084H   SFRSYM    DATA     BYTE      FLA_KEY
      000000C0H.0 SFRSYM    DATA     BIT       PTIM20
      000000C0H.3 SFRSYM    DATA     BIT       PTIM11
      00000098H   SFRSYM    DATA     BYTE      UT_CR
      000000C8H.2 SFRSYM    DATA     BIT       PTIM30
      000000C0H.1 SFRSYM    DATA     BIT       PTIM21
      00000099H   SFRSYM    DATA     BYTE      UT_DR
      000000C8H.3 SFRSYM    DATA     BIT       PTIM31
      000000D0H.2 SFRSYM    DATA     BIT       OV
      0000009AH   SFRSYM    DATA     WORD      UT_BAUD
      000000C4H   SFRSYM    DATA     WORD      MDU_DA01
      000000CCH   SFRSYM    DATA     WORD      MDU_DB01
      00000087H   SFRSYM    DATA     BYTE      PCON
      000000C6H   SFRSYM    DATA     WORD      MDU_DA23
      00000088H   SFRSYM    DATA     BYTE      TCON
      00000082H   SFRSYM    DATA     WORD      DPTR
      000000D8H.0 SFRSYM    DATA     BIT       PUART0
      000000D8H.1 SFRSYM    DATA     BIT       PUART1
      000000D8H.2 SFRSYM    DATA     BIT       PI2C0
      00000088H.2 SFRSYM    DATA     BIT       IF0
      000000D8H.3 SFRSYM    DATA     BIT       PI2C1
      000000AEH   SFRSYM    DATA     WORD      TIM2__ARR
      000000A1H   SFRSYM    DATA     BYTE      TIM2_CR0
      000000A6H   SFRSYM    DATA     WORD      TIM3__ARR
      0000009CH   SFRSYM    DATA     BYTE      TIM3_CR0
      000000A9H   SFRSYM    DATA     BYTE      TIM2_CR1
      00000096H   SFRSYM    DATA     WORD      TIM4__ARR
      0000009EH   SFRSYM    DATA     BYTE      TIM4_CR0
      0000009DH   SFRSYM    DATA     BYTE      TIM3_CR1
      000000F8H   SFRSYM    DATA     BYTE      DRV_OUT
      0000009FH   SFRSYM    DATA     BYTE      TIM4_CR1
      000000DBH   SFRSYM    DATA     BYTE      LVSR
      000000A8H.4 SFRSYM    DATA     BIT       ES0
      00000085H   SFRSYM    DATA     BYTE      FLA_CR
      000000C0H.4 SFRSYM    DATA     BIT       PADC0
      000000B8H   SFRSYM    DATA     BYTE      IP0
      000000C0H.5 SFRSYM    DATA     BIT       PADC1
      000000C0H   SFRSYM    DATA     BYTE      IP1
      000000C8H   SFRSYM    DATA     BYTE      IP2
      00000098H.2 SFRSYM    DATA     BIT       RB8
      000000D8H   SFRSYM    DATA     BYTE      IP3
LX51 LINKER/LOCATER V4.66.100.0                                                       04/25/2024  14:24:29  PAGE 143


      000000A8H.0 SFRSYM    DATA     BIT       EX0
      00000098H.3 SFRSYM    DATA     BIT       TB8
      000000A8H.2 SFRSYM    DATA     BIT       EX1
      000000D0H.0 SFRSYM    DATA     BIT       P
      000000F9H   SFRSYM    DATA     BYTE      PI_LPF_CR
      00000098H.5 SFRSYM    DATA     BIT       SM2
      000000D8H.6 SFRSYM    DATA     BIT       PDMA0
      000000D8H.7 SFRSYM    DATA     BIT       PDMA1
      000000C2H   SFRSYM    DATA     WORD      MDU_MA
      000000D0H.3 SFRSYM    DATA     BIT       RS0
      000000CAH   SFRSYM    DATA     WORD      MDU_MB
      000000D0H.4 SFRSYM    DATA     BIT       RS1
      000000C1H   SFRSYM    DATA     BYTE      MDU_CR
      000000F8H.7 SFRSYM    DATA     BIT       MOE
      000000C0H.6 SFRSYM    DATA     BIT       PCMP0
      000000C0H.7 SFRSYM    DATA     BIT       PCMP1
      000000F8H.4 SFRSYM    DATA     BIT       OISWXH
      00000098H.4 SFRSYM    DATA     BIT       REN
      000000D7H   SFRSYM    DATA     BYTE      CMP_SR
      000000F8H.5 SFRSYM    DATA     BIT       OISWXL
      000000C8H.6 SFRSYM    DATA     BIT       PTSD0
      000000D8H.4 SFRSYM    DATA     BIT       PSPI0
      000000C8H.7 SFRSYM    DATA     BIT       PTSD1
      000000B8H.6 SFRSYM    DATA     BIT       PDRV0
      000000D8H.5 SFRSYM    DATA     BIT       PSPI1
      000000B8H.7 SFRSYM    DATA     BIT       PDRV1
      000000D1H   SFRSYM    DATA     BYTE      P1_IE
      000000D3H   SFRSYM    DATA     BYTE      P2_IE
      000000D2H   SFRSYM    DATA     BYTE      P1_IF
      000000D4H   SFRSYM    DATA     BYTE      P2_IF
      000000ACH   SFRSYM    DATA     WORD      TIM2__DR
      000000C8H.4 SFRSYM    DATA     BIT       PTIM4S0
      000000FCH   SFRSYM    DATA     BYTE      P0_OE
      000000A4H   SFRSYM    DATA     WORD      TIM3__DR
      000000C8H.5 SFRSYM    DATA     BIT       PTIM4S1
      000000FDH   SFRSYM    DATA     BYTE      P1_OE
      00000094H   SFRSYM    DATA     WORD      TIM4__DR
      000000D0H.5 SFRSYM    DATA     BIT       F0
      000000FEH   SFRSYM    DATA     BYTE      P2_OE
      000000D0H.1 SFRSYM    DATA     BIT       F1
      000000FFH   SFRSYM    DATA     BYTE      P3_OE
      00000080H.0 SFRSYM    DATA     BIT       GP00
      000000E9H   SFRSYM    DATA     BYTE      P4_OE
      00000090H.0 SFRSYM    DATA     BIT       GP10
      00000080H.1 SFRSYM    DATA     BIT       GP01
      000000A0H.0 SFRSYM    DATA     BIT       GP20
      00000090H.1 SFRSYM    DATA     BIT       GP11
      00000080H.2 SFRSYM    DATA     BIT       GP02
      000000B0H.0 SFRSYM    DATA     BIT       GP30
      000000A0H.1 SFRSYM    DATA     BIT       GP21
      00000090H.2 SFRSYM    DATA     BIT       GP12
      00000080H.3 SFRSYM    DATA     BIT       GP03
      000000B8H.0 SFRSYM    DATA     BIT       PLVW0
      000000A8H.1 SFRSYM    DATA     BIT       TSDIE
      000000D0H   SFRSYM    DATA     BYTE      PSW
      000000E8H.0 SFRSYM    DATA     BIT       GP40
      000000B0H.1 SFRSYM    DATA     BIT       GP31
      000000A0H.2 SFRSYM    DATA     BIT       GP22
      00000090H.3 SFRSYM    DATA     BIT       GP13
      00000080H.4 SFRSYM    DATA     BIT       GP04
      000000B8H.1 SFRSYM    DATA     BIT       PLVW1
      000000A8H.3 SFRSYM    DATA     BIT       SPIIE
      00000088H.5 SFRSYM    DATA     BIT       TSDIF
      000000E8H.1 SFRSYM    DATA     BIT       GP41
      000000B0H.2 SFRSYM    DATA     BIT       GP32
LX51 LINKER/LOCATER V4.66.100.0                                                       04/25/2024  14:24:29  PAGE 144


      000000A0H.3 SFRSYM    DATA     BIT       GP23
      00000090H.4 SFRSYM    DATA     BIT       GP14
      00000080H.5 SFRSYM    DATA     BIT       GP05
      000000C4H   SFRSYM    DATA     BYTE      MDU_DA0
      000000E8H.2 SFRSYM    DATA     BIT       GP42
      000000B0H.3 SFRSYM    DATA     BIT       GP33
      000000A0H.4 SFRSYM    DATA     BIT       GP24
      00000090H.5 SFRSYM    DATA     BIT       GP15
      00000080H.6 SFRSYM    DATA     BIT       GP06
      000000CCH   SFRSYM    DATA     BYTE      MDU_DB0
      000000C5H   SFRSYM    DATA     BYTE      MDU_DA1
      00000088H.0 SFRSYM    DATA     BIT       IT00

      010030A6H   BLOCK     CODE     ---       LVL=0
      00000006H   SYMBOL    DATA     ---       TData0
      00000004H   SYMBOL    DATA     ---       TData1
      010030A6H   BLOCK     CODE     NEAR LAB  LVL=1
      02000291H   SYMBOL    XDATA    DWORD     RData32
      00000001H   SYMBOL    DATA     ---       PData16
      ---         BLOCKEND  ---      ---       LVL=1
      010030A6H   LINE      CODE     ---       #23
      010030A6H   LINE      CODE     ---       #24
      010030A6H   LINE      CODE     ---       #29
      010030ADH   LINE      CODE     ---       #30
      010030B5H   LINE      CODE     ---       #31
      010030BEH   LINE      CODE     ---       #32
      010030C8H   LINE      CODE     ---       #34
      010030CFH   LINE      CODE     ---       #35
      010030DBH   LINE      CODE     ---       #37
      010030DEH   LINE      CODE     ---       #38
      010030E9H   LINE      CODE     ---       #40
      010030EFH   LINE      CODE     ---       #41
      010030F7H   LINE      CODE     ---       #42
      010030FEH   LINE      CODE     ---       #43
      01003106H   LINE      CODE     ---       #45
      01003114H   LINE      CODE     ---       #47
      ---         BLOCKEND  ---      ---       LVL=0
      00000006H   SYMBOL    DATA     ---       TData0
      00000004H   SYMBOL    DATA     ---       TData1
      00000001H   SYMBOL    DATA     ---       PData16

      0100323CH   BLOCK     CODE     ---       LVL=0
      00000007H   SYMBOL    DATA     ---       TData0
      00000005H   SYMBOL    DATA     ---       TData1
      0100323CH   BLOCK     CODE     NEAR LAB  LVL=1
      02000291H   SYMBOL    XDATA    DWORD     RData32
      00000001H   SYMBOL    DATA     ---       PData16
      ---         BLOCKEND  ---      ---       LVL=1
      0100323CH   LINE      CODE     ---       #84
      0100323CH   LINE      CODE     ---       #85
      0100323CH   LINE      CODE     ---       #89
      01003241H   LINE      CODE     ---       #90
      01003247H   LINE      CODE     ---       #91
      0100324EH   LINE      CODE     ---       #92
      01003255H   LINE      CODE     ---       #94
      0100325AH   LINE      CODE     ---       #95
      01003260H   LINE      CODE     ---       #97
      01003263H   LINE      CODE     ---       #98
      0100326EH   LINE      CODE     ---       #101
      01003274H   LINE      CODE     ---       #102
      0100327CH   LINE      CODE     ---       #103
      01003283H   LINE      CODE     ---       #104
      0100328BH   LINE      CODE     ---       #106
      01003299H   LINE      CODE     ---       #108
      ---         BLOCKEND  ---      ---       LVL=0
LX51 LINKER/LOCATER V4.66.100.0                                                       04/25/2024  14:24:29  PAGE 145


      00000007H   SYMBOL    DATA     ---       TData0
      00000005H   SYMBOL    DATA     ---       TData1
      00000001H   SYMBOL    DATA     ---       PData16
      00000007H   SYMBOL    DATA     BYTE      ALIGN
      00000005H   SYMBOL    DATA     BYTE      SIGN
      00000006H   SYMBOL    DATA     WORD      TData0
      00000004H   SYMBOL    DATA     WORD      TData1
      00000002H   SYMBOL    DATA     ---       Result32_t
      00000004H   SYMBOL    DATA     WORD      TData1
      00000003H   SYMBOL    DATA     BYTE      ALIGN
      00000006H   SYMBOL    DATA     WORD      TData0
      00000004H   SYMBOL    DATA     WORD      TData1
      00000002H   SYMBOL    DATA     ---       Result16_t
      00000006H   SYMBOL    DATA     WORD      TData0
      00000004H   SYMBOL    DATA     WORD      TData1
      00000003H   SYMBOL    DATA     ---       Result32_t

      ---         MODULE    ---      ---       PIINIT
      010036D4H   PUBLIC    CODE     ---       PI_Init
      000000B0H.4 SFRSYM    DATA     BIT       GP34
      000000A0H.5 SFRSYM    DATA     BIT       GP25
      00000090H.6 SFRSYM    DATA     BIT       GP16
      00000080H.7 SFRSYM    DATA     BIT       GP07
      000000CDH   SFRSYM    DATA     BYTE      MDU_DB1
      000000C6H   SFRSYM    DATA     BYTE      MDU_DA2
      00000088H.1 SFRSYM    DATA     BIT       IT01
      00000088H.3 SFRSYM    DATA     BIT       IT10
      000000B0H.5 SFRSYM    DATA     BIT       GP35
      000000A0H.6 SFRSYM    DATA     BIT       GP26
      00000090H.7 SFRSYM    DATA     BIT       GP17
      00000080H   SFRSYM    DATA     BYTE      P0
      000000F6H   SFRSYM    DATA     WORD      PI_UKMIN
      000000C7H   SFRSYM    DATA     BYTE      MDU_DA3
      00000088H.4 SFRSYM    DATA     BIT       IT11
      000000C9H   SFRSYM    DATA     BYTE      RST_SR
      000000D9H   SFRSYM    DATA     BYTE      EVT_FILT
      000000B0H.6 SFRSYM    DATA     BIT       GP36
      000000A0H.7 SFRSYM    DATA     BIT       GP27
      00000090H   SFRSYM    DATA     BYTE      P1
      000000B0H.7 SFRSYM    DATA     BIT       GP37
      000000A0H   SFRSYM    DATA     BYTE      P2
      000000F4H   SFRSYM    DATA     WORD      PI_UKMAX
      000000B0H   SFRSYM    DATA     BYTE      P3
      000000E8H   SFRSYM    DATA     BYTE      P4
      000000D0H.6 SFRSYM    DATA     BIT       AC
      000000A8H.7 SFRSYM    DATA     BIT       EA
      000000D5H   SFRSYM    DATA     BYTE      CMP_CR0
      000000D6H   SFRSYM    DATA     BYTE      CMP_CR1
      000000DAH   SFRSYM    DATA     BYTE      CMP_CR2
      000000B8H.2 SFRSYM    DATA     BIT       PX00
      000000DCH   SFRSYM    DATA     BYTE      CMP_CR3
      000000F8H.0 SFRSYM    DATA     BIT       OISUH
      000000EAH   SFRSYM    DATA     WORD      PI_EK
      000000B8H.3 SFRSYM    DATA     BIT       PX01
      000000B8H.4 SFRSYM    DATA     BIT       PX10
      000000F8H.2 SFRSYM    DATA     BIT       OISVH
      000000B8H.5 SFRSYM    DATA     BIT       PX11
      000000F8H.1 SFRSYM    DATA     BIT       OISUL
      000000DDH   SFRSYM    DATA     BYTE      LPF_K
      000000F2H   SFRSYM    DATA     WORD      PI_KI
      000000A8H   SFRSYM    DATA     BYTE      IE
      000000F8H.3 SFRSYM    DATA     BIT       OISVL
      000000EEH   SFRSYM    DATA     WORD      PI_KP
      000000AAH   SFRSYM    DATA     WORD      TIM2__CNTR
      000000A2H   SFRSYM    DATA     WORD      TIM3__CNTR
LX51 LINKER/LOCATER V4.66.100.0                                                       04/25/2024  14:24:29  PAGE 146


      00000092H   SFRSYM    DATA     WORD      TIM4__CNTR
      000000ECH   SFRSYM    DATA     WORD      PI_UK
      000000DEH   SFRSYM    DATA     WORD      LPF_X
      00000098H.0 SFRSYM    DATA     BIT       RI
      00000098H.6 SFRSYM    DATA     BIT       UT_MOD0
      000000E6H   SFRSYM    DATA     WORD      LPF_Y
      00000098H.7 SFRSYM    DATA     BIT       UT_MOD1
      000000D0H.7 SFRSYM    DATA     BIT       CY
      00000098H.1 SFRSYM    DATA     BIT       TI
      000000C0H.2 SFRSYM    DATA     BIT       PTIM10
      00000084H   SFRSYM    DATA     BYTE      FLA_KEY
      000000C0H.0 SFRSYM    DATA     BIT       PTIM20
      000000C0H.3 SFRSYM    DATA     BIT       PTIM11
      00000098H   SFRSYM    DATA     BYTE      UT_CR
      000000C8H.2 SFRSYM    DATA     BIT       PTIM30
      000000C0H.1 SFRSYM    DATA     BIT       PTIM21
      00000099H   SFRSYM    DATA     BYTE      UT_DR
      000000C8H.3 SFRSYM    DATA     BIT       PTIM31
      000000D0H.2 SFRSYM    DATA     BIT       OV
      0000009AH   SFRSYM    DATA     WORD      UT_BAUD
      000000C4H   SFRSYM    DATA     WORD      MDU_DA01
      000000CCH   SFRSYM    DATA     WORD      MDU_DB01
      00000087H   SFRSYM    DATA     BYTE      PCON
      000000C6H   SFRSYM    DATA     WORD      MDU_DA23
      00000088H   SFRSYM    DATA     BYTE      TCON
      00000082H   SFRSYM    DATA     WORD      DPTR
      000000D8H.0 SFRSYM    DATA     BIT       PUART0
      000000D8H.1 SFRSYM    DATA     BIT       PUART1
      000000D8H.2 SFRSYM    DATA     BIT       PI2C0
      00000088H.2 SFRSYM    DATA     BIT       IF0
      000000D8H.3 SFRSYM    DATA     BIT       PI2C1
      000000AEH   SFRSYM    DATA     WORD      TIM2__ARR
      000000A1H   SFRSYM    DATA     BYTE      TIM2_CR0
      000000A6H   SFRSYM    DATA     WORD      TIM3__ARR
      0000009CH   SFRSYM    DATA     BYTE      TIM3_CR0
      000000A9H   SFRSYM    DATA     BYTE      TIM2_CR1
      00000096H   SFRSYM    DATA     WORD      TIM4__ARR
      0000009EH   SFRSYM    DATA     BYTE      TIM4_CR0
      0000009DH   SFRSYM    DATA     BYTE      TIM3_CR1
      000000F8H   SFRSYM    DATA     BYTE      DRV_OUT
      0000009FH   SFRSYM    DATA     BYTE      TIM4_CR1
      000000DBH   SFRSYM    DATA     BYTE      LVSR
      000000A8H.4 SFRSYM    DATA     BIT       ES0
      00000085H   SFRSYM    DATA     BYTE      FLA_CR
      000000C0H.4 SFRSYM    DATA     BIT       PADC0
      000000B8H   SFRSYM    DATA     BYTE      IP0
      000000C0H.5 SFRSYM    DATA     BIT       PADC1
      000000C0H   SFRSYM    DATA     BYTE      IP1
      000000C8H   SFRSYM    DATA     BYTE      IP2
      00000098H.2 SFRSYM    DATA     BIT       RB8
      000000D8H   SFRSYM    DATA     BYTE      IP3
      000000A8H.0 SFRSYM    DATA     BIT       EX0
      00000098H.3 SFRSYM    DATA     BIT       TB8
      000000A8H.2 SFRSYM    DATA     BIT       EX1
      000000D0H.0 SFRSYM    DATA     BIT       P
      000000F9H   SFRSYM    DATA     BYTE      PI_LPF_CR
      00000098H.5 SFRSYM    DATA     BIT       SM2
      000000D8H.6 SFRSYM    DATA     BIT       PDMA0
      000000D8H.7 SFRSYM    DATA     BIT       PDMA1
      000000C2H   SFRSYM    DATA     WORD      MDU_MA
      000000D0H.3 SFRSYM    DATA     BIT       RS0
      000000CAH   SFRSYM    DATA     WORD      MDU_MB
      000000D0H.4 SFRSYM    DATA     BIT       RS1
      000000C1H   SFRSYM    DATA     BYTE      MDU_CR
      000000F8H.7 SFRSYM    DATA     BIT       MOE
LX51 LINKER/LOCATER V4.66.100.0                                                       04/25/2024  14:24:29  PAGE 147


      000000C0H.6 SFRSYM    DATA     BIT       PCMP0
      000000C0H.7 SFRSYM    DATA     BIT       PCMP1
      000000F8H.4 SFRSYM    DATA     BIT       OISWXH
      00000098H.4 SFRSYM    DATA     BIT       REN
      000000D7H   SFRSYM    DATA     BYTE      CMP_SR
      000000F8H.5 SFRSYM    DATA     BIT       OISWXL
      000000C8H.6 SFRSYM    DATA     BIT       PTSD0
      000000D8H.4 SFRSYM    DATA     BIT       PSPI0
      000000C8H.7 SFRSYM    DATA     BIT       PTSD1
      000000B8H.6 SFRSYM    DATA     BIT       PDRV0
      000000D8H.5 SFRSYM    DATA     BIT       PSPI1
      000000B8H.7 SFRSYM    DATA     BIT       PDRV1
      000000D1H   SFRSYM    DATA     BYTE      P1_IE
      000000D3H   SFRSYM    DATA     BYTE      P2_IE
      000000D2H   SFRSYM    DATA     BYTE      P1_IF
      000000D4H   SFRSYM    DATA     BYTE      P2_IF
      000000ACH   SFRSYM    DATA     WORD      TIM2__DR
      000000C8H.4 SFRSYM    DATA     BIT       PTIM4S0
      000000FCH   SFRSYM    DATA     BYTE      P0_OE
      000000A4H   SFRSYM    DATA     WORD      TIM3__DR
      000000C8H.5 SFRSYM    DATA     BIT       PTIM4S1
      000000FDH   SFRSYM    DATA     BYTE      P1_OE
      00000094H   SFRSYM    DATA     WORD      TIM4__DR
      000000D0H.5 SFRSYM    DATA     BIT       F0
      000000FEH   SFRSYM    DATA     BYTE      P2_OE
      000000D0H.1 SFRSYM    DATA     BIT       F1
      000000FFH   SFRSYM    DATA     BYTE      P3_OE
      00000080H.0 SFRSYM    DATA     BIT       GP00
      000000E9H   SFRSYM    DATA     BYTE      P4_OE
      00000090H.0 SFRSYM    DATA     BIT       GP10
      00000080H.1 SFRSYM    DATA     BIT       GP01
      000000A0H.0 SFRSYM    DATA     BIT       GP20
      00000090H.1 SFRSYM    DATA     BIT       GP11
      00000080H.2 SFRSYM    DATA     BIT       GP02
      000000B0H.0 SFRSYM    DATA     BIT       GP30
      000000A0H.1 SFRSYM    DATA     BIT       GP21
      00000090H.2 SFRSYM    DATA     BIT       GP12
      00000080H.3 SFRSYM    DATA     BIT       GP03
      000000B8H.0 SFRSYM    DATA     BIT       PLVW0
      000000A8H.1 SFRSYM    DATA     BIT       TSDIE
      000000D0H   SFRSYM    DATA     BYTE      PSW
      000000E8H.0 SFRSYM    DATA     BIT       GP40
      000000B0H.1 SFRSYM    DATA     BIT       GP31
      000000A0H.2 SFRSYM    DATA     BIT       GP22
      00000090H.3 SFRSYM    DATA     BIT       GP13
      00000080H.4 SFRSYM    DATA     BIT       GP04
      000000B8H.1 SFRSYM    DATA     BIT       PLVW1
      000000A8H.3 SFRSYM    DATA     BIT       SPIIE
      00000088H.5 SFRSYM    DATA     BIT       TSDIF
      000000E8H.1 SFRSYM    DATA     BIT       GP41
      000000B0H.2 SFRSYM    DATA     BIT       GP32
      000000A0H.3 SFRSYM    DATA     BIT       GP23
      00000090H.4 SFRSYM    DATA     BIT       GP14
      00000080H.5 SFRSYM    DATA     BIT       GP05
      000000C4H   SFRSYM    DATA     BYTE      MDU_DA0
      000000E8H.2 SFRSYM    DATA     BIT       GP42
      000000B0H.3 SFRSYM    DATA     BIT       GP33
      000000A0H.4 SFRSYM    DATA     BIT       GP24
      00000090H.5 SFRSYM    DATA     BIT       GP15
      00000080H.6 SFRSYM    DATA     BIT       GP06
      000000CCH   SFRSYM    DATA     BYTE      MDU_DB0
      000000C5H   SFRSYM    DATA     BYTE      MDU_DA1
      00000088H.0 SFRSYM    DATA     BIT       IT00

      010036D4H   BLOCK     CODE     ---       LVL=0
LX51 LINKER/LOCATER V4.66.100.0                                                       04/25/2024  14:24:29  PAGE 148


      010036D4H   LINE      CODE     ---       #17
      010036D4H   LINE      CODE     ---       #18
      010036D4H   LINE      CODE     ---       #19
      010036DAH   LINE      CODE     ---       #20
      010036E0H   LINE      CODE     ---       #21
      010036E5H   LINE      CODE     ---       #22
      010036E8H   LINE      CODE     ---       #23
      010036EBH   LINE      CODE     ---       #24
      010036F1H   LINE      CODE     ---       #25
      010036F5H   LINE      CODE     ---       #26
      010036F9H   LINE      CODE     ---       #27
      010036FDH   LINE      CODE     ---       #28
      01003700H   LINE      CODE     ---       #29
      ---         BLOCKEND  ---      ---       LVL=0

      ---         MODULE    ---      ---       UARTINIT
      02000144H   PUBLIC    XDATA    ---       Uart
      000000B0H.4 SFRSYM    DATA     BIT       GP34
      000000A0H.5 SFRSYM    DATA     BIT       GP25
      00000090H.6 SFRSYM    DATA     BIT       GP16
      00000080H.7 SFRSYM    DATA     BIT       GP07
      000000CDH   SFRSYM    DATA     BYTE      MDU_DB1
      000000C6H   SFRSYM    DATA     BYTE      MDU_DA2
      00000088H.1 SFRSYM    DATA     BIT       IT01
      00000088H.3 SFRSYM    DATA     BIT       IT10
      000000B0H.5 SFRSYM    DATA     BIT       GP35
      000000A0H.6 SFRSYM    DATA     BIT       GP26
      00000090H.7 SFRSYM    DATA     BIT       GP17
      00000080H   SFRSYM    DATA     BYTE      P0
      000000F6H   SFRSYM    DATA     WORD      PI_UKMIN
      000000C7H   SFRSYM    DATA     BYTE      MDU_DA3
      00000088H.4 SFRSYM    DATA     BIT       IT11
      000000C9H   SFRSYM    DATA     BYTE      RST_SR
      000000D9H   SFRSYM    DATA     BYTE      EVT_FILT
      000000B0H.6 SFRSYM    DATA     BIT       GP36
      000000A0H.7 SFRSYM    DATA     BIT       GP27
      00000090H   SFRSYM    DATA     BYTE      P1
      000000B0H.7 SFRSYM    DATA     BIT       GP37
      000000A0H   SFRSYM    DATA     BYTE      P2
      000000F4H   SFRSYM    DATA     WORD      PI_UKMAX
      000000B0H   SFRSYM    DATA     BYTE      P3
      000000E8H   SFRSYM    DATA     BYTE      P4
      000000D0H.6 SFRSYM    DATA     BIT       AC
      000000A8H.7 SFRSYM    DATA     BIT       EA
      000000D5H   SFRSYM    DATA     BYTE      CMP_CR0
      000000D6H   SFRSYM    DATA     BYTE      CMP_CR1
      000000DAH   SFRSYM    DATA     BYTE      CMP_CR2
      000000B8H.2 SFRSYM    DATA     BIT       PX00
      000000DCH   SFRSYM    DATA     BYTE      CMP_CR3
      000000F8H.0 SFRSYM    DATA     BIT       OISUH
      000000EAH   SFRSYM    DATA     WORD      PI_EK
      000000B8H.3 SFRSYM    DATA     BIT       PX01
      000000B8H.4 SFRSYM    DATA     BIT       PX10
      000000F8H.2 SFRSYM    DATA     BIT       OISVH
      000000B8H.5 SFRSYM    DATA     BIT       PX11
      000000F8H.1 SFRSYM    DATA     BIT       OISUL
      000000DDH   SFRSYM    DATA     BYTE      LPF_K
      000000F2H   SFRSYM    DATA     WORD      PI_KI
      000000A8H   SFRSYM    DATA     BYTE      IE
      000000F8H.3 SFRSYM    DATA     BIT       OISVL
      000000EEH   SFRSYM    DATA     WORD      PI_KP
      000000AAH   SFRSYM    DATA     WORD      TIM2__CNTR
      000000A2H   SFRSYM    DATA     WORD      TIM3__CNTR
      00000092H   SFRSYM    DATA     WORD      TIM4__CNTR
      000000ECH   SFRSYM    DATA     WORD      PI_UK
LX51 LINKER/LOCATER V4.66.100.0                                                       04/25/2024  14:24:29  PAGE 149


      000000DEH   SFRSYM    DATA     WORD      LPF_X
      00000098H.0 SFRSYM    DATA     BIT       RI
      00000098H.6 SFRSYM    DATA     BIT       UT_MOD0
      000000E6H   SFRSYM    DATA     WORD      LPF_Y
      00000098H.7 SFRSYM    DATA     BIT       UT_MOD1
      000000D0H.7 SFRSYM    DATA     BIT       CY
      00000098H.1 SFRSYM    DATA     BIT       TI
      000000C0H.2 SFRSYM    DATA     BIT       PTIM10
      00000084H   SFRSYM    DATA     BYTE      FLA_KEY
      000000C0H.0 SFRSYM    DATA     BIT       PTIM20
      000000C0H.3 SFRSYM    DATA     BIT       PTIM11
      00000098H   SFRSYM    DATA     BYTE      UT_CR
      000000C8H.2 SFRSYM    DATA     BIT       PTIM30
      000000C0H.1 SFRSYM    DATA     BIT       PTIM21
      00000099H   SFRSYM    DATA     BYTE      UT_DR
      000000C8H.3 SFRSYM    DATA     BIT       PTIM31
      000000D0H.2 SFRSYM    DATA     BIT       OV
      0000009AH   SFRSYM    DATA     WORD      UT_BAUD
      000000C4H   SFRSYM    DATA     WORD      MDU_DA01
      000000CCH   SFRSYM    DATA     WORD      MDU_DB01
      00000087H   SFRSYM    DATA     BYTE      PCON
      000000C6H   SFRSYM    DATA     WORD      MDU_DA23
      00000088H   SFRSYM    DATA     BYTE      TCON
      00000082H   SFRSYM    DATA     WORD      DPTR
      000000D8H.0 SFRSYM    DATA     BIT       PUART0
      000000D8H.1 SFRSYM    DATA     BIT       PUART1
      000000D8H.2 SFRSYM    DATA     BIT       PI2C0
      00000088H.2 SFRSYM    DATA     BIT       IF0
      000000D8H.3 SFRSYM    DATA     BIT       PI2C1
      000000AEH   SFRSYM    DATA     WORD      TIM2__ARR
      000000A1H   SFRSYM    DATA     BYTE      TIM2_CR0
      000000A6H   SFRSYM    DATA     WORD      TIM3__ARR
      0000009CH   SFRSYM    DATA     BYTE      TIM3_CR0
      000000A9H   SFRSYM    DATA     BYTE      TIM2_CR1
      00000096H   SFRSYM    DATA     WORD      TIM4__ARR
      0000009EH   SFRSYM    DATA     BYTE      TIM4_CR0
      0000009DH   SFRSYM    DATA     BYTE      TIM3_CR1
      000000F8H   SFRSYM    DATA     BYTE      DRV_OUT
      0000009FH   SFRSYM    DATA     BYTE      TIM4_CR1
      000000DBH   SFRSYM    DATA     BYTE      LVSR
      000000A8H.4 SFRSYM    DATA     BIT       ES0
      00000085H   SFRSYM    DATA     BYTE      FLA_CR
      000000C0H.4 SFRSYM    DATA     BIT       PADC0
      000000B8H   SFRSYM    DATA     BYTE      IP0
      000000C0H.5 SFRSYM    DATA     BIT       PADC1
      000000C0H   SFRSYM    DATA     BYTE      IP1
      000000C8H   SFRSYM    DATA     BYTE      IP2
      00000098H.2 SFRSYM    DATA     BIT       RB8
      000000D8H   SFRSYM    DATA     BYTE      IP3
      000000A8H.0 SFRSYM    DATA     BIT       EX0
      00000098H.3 SFRSYM    DATA     BIT       TB8
      000000A8H.2 SFRSYM    DATA     BIT       EX1
      000000D0H.0 SFRSYM    DATA     BIT       P
      000000F9H   SFRSYM    DATA     BYTE      PI_LPF_CR
      00000098H.5 SFRSYM    DATA     BIT       SM2
      000000D8H.6 SFRSYM    DATA     BIT       PDMA0
      000000D8H.7 SFRSYM    DATA     BIT       PDMA1
      000000C2H   SFRSYM    DATA     WORD      MDU_MA
      000000D0H.3 SFRSYM    DATA     BIT       RS0
      000000CAH   SFRSYM    DATA     WORD      MDU_MB
      000000D0H.4 SFRSYM    DATA     BIT       RS1
      000000C1H   SFRSYM    DATA     BYTE      MDU_CR
      000000F8H.7 SFRSYM    DATA     BIT       MOE
      000000C0H.6 SFRSYM    DATA     BIT       PCMP0
      000000C0H.7 SFRSYM    DATA     BIT       PCMP1
LX51 LINKER/LOCATER V4.66.100.0                                                       04/25/2024  14:24:29  PAGE 150


      000000F8H.4 SFRSYM    DATA     BIT       OISWXH
      00000098H.4 SFRSYM    DATA     BIT       REN
      000000D7H   SFRSYM    DATA     BYTE      CMP_SR
      000000F8H.5 SFRSYM    DATA     BIT       OISWXL
      000000C8H.6 SFRSYM    DATA     BIT       PTSD0
      000000D8H.4 SFRSYM    DATA     BIT       PSPI0
      000000C8H.7 SFRSYM    DATA     BIT       PTSD1
      000000B8H.6 SFRSYM    DATA     BIT       PDRV0
      000000D8H.5 SFRSYM    DATA     BIT       PSPI1
      000000B8H.7 SFRSYM    DATA     BIT       PDRV1
      000000D1H   SFRSYM    DATA     BYTE      P1_IE
      000000D3H   SFRSYM    DATA     BYTE      P2_IE
      000000D2H   SFRSYM    DATA     BYTE      P1_IF
      000000D4H   SFRSYM    DATA     BYTE      P2_IF
      000000ACH   SFRSYM    DATA     WORD      TIM2__DR
      000000C8H.4 SFRSYM    DATA     BIT       PTIM4S0
      000000FCH   SFRSYM    DATA     BYTE      P0_OE
      000000A4H   SFRSYM    DATA     WORD      TIM3__DR
      000000C8H.5 SFRSYM    DATA     BIT       PTIM4S1
      000000FDH   SFRSYM    DATA     BYTE      P1_OE
      00000094H   SFRSYM    DATA     WORD      TIM4__DR
      000000D0H.5 SFRSYM    DATA     BIT       F0
      000000FEH   SFRSYM    DATA     BYTE      P2_OE
      000000D0H.1 SFRSYM    DATA     BIT       F1
      000000FFH   SFRSYM    DATA     BYTE      P3_OE
      00000080H.0 SFRSYM    DATA     BIT       GP00
      000000E9H   SFRSYM    DATA     BYTE      P4_OE
      00000090H.0 SFRSYM    DATA     BIT       GP10
      00000080H.1 SFRSYM    DATA     BIT       GP01
      000000A0H.0 SFRSYM    DATA     BIT       GP20
      00000090H.1 SFRSYM    DATA     BIT       GP11
      00000080H.2 SFRSYM    DATA     BIT       GP02
      000000B0H.0 SFRSYM    DATA     BIT       GP30
      000000A0H.1 SFRSYM    DATA     BIT       GP21
      00000090H.2 SFRSYM    DATA     BIT       GP12
      00000080H.3 SFRSYM    DATA     BIT       GP03
      000000B8H.0 SFRSYM    DATA     BIT       PLVW0
      000000A8H.1 SFRSYM    DATA     BIT       TSDIE
      000000D0H   SFRSYM    DATA     BYTE      PSW
      000000E8H.0 SFRSYM    DATA     BIT       GP40
      000000B0H.1 SFRSYM    DATA     BIT       GP31
      000000A0H.2 SFRSYM    DATA     BIT       GP22
      00000090H.3 SFRSYM    DATA     BIT       GP13
      00000080H.4 SFRSYM    DATA     BIT       GP04
      000000B8H.1 SFRSYM    DATA     BIT       PLVW1
      000000A8H.3 SFRSYM    DATA     BIT       SPIIE
      00000088H.5 SFRSYM    DATA     BIT       TSDIF
      000000E8H.1 SFRSYM    DATA     BIT       GP41
      000000B0H.2 SFRSYM    DATA     BIT       GP32
      000000A0H.3 SFRSYM    DATA     BIT       GP23
      00000090H.4 SFRSYM    DATA     BIT       GP14
      00000080H.5 SFRSYM    DATA     BIT       GP05
      000000C4H   SFRSYM    DATA     BYTE      MDU_DA0
      000000E8H.2 SFRSYM    DATA     BIT       GP42
      000000B0H.3 SFRSYM    DATA     BIT       GP33
      000000A0H.4 SFRSYM    DATA     BIT       GP24
      00000090H.5 SFRSYM    DATA     BIT       GP15
      00000080H.6 SFRSYM    DATA     BIT       GP06
      000000CCH   SFRSYM    DATA     BYTE      MDU_DB0
      000000C5H   SFRSYM    DATA     BYTE      MDU_DA1
      00000088H.0 SFRSYM    DATA     BIT       IT00
      00000007H   SYMBOL    DATA     BYTE      T_Data

      ---         MODULE    ---      ---       FU68XX_2_SYSTEM
      01003647H   PUBLIC    CODE     ---       _Flash_Sector_Write
LX51 LINKER/LOCATER V4.66.100.0                                                       04/25/2024  14:24:29  PAGE 151


      01003615H   PUBLIC    CODE     ---       _Flash_Sector_Erase
      00000021H.7 PUBLIC    BIT      BIT       ?_VREFConfig?BIT
      01003437H   PUBLIC    CODE     ---       _VREFConfig
      000000B0H.4 SFRSYM    DATA     BIT       GP34
      000000A0H.5 SFRSYM    DATA     BIT       GP25
      00000090H.6 SFRSYM    DATA     BIT       GP16
      00000080H.7 SFRSYM    DATA     BIT       GP07
      000000CDH   SFRSYM    DATA     BYTE      MDU_DB1
      000000C6H   SFRSYM    DATA     BYTE      MDU_DA2
      00000088H.1 SFRSYM    DATA     BIT       IT01
      00000088H.3 SFRSYM    DATA     BIT       IT10
      000000B0H.5 SFRSYM    DATA     BIT       GP35
      000000A0H.6 SFRSYM    DATA     BIT       GP26
      00000090H.7 SFRSYM    DATA     BIT       GP17
      00000080H   SFRSYM    DATA     BYTE      P0
      000000F6H   SFRSYM    DATA     WORD      PI_UKMIN
      000000C7H   SFRSYM    DATA     BYTE      MDU_DA3
      00000088H.4 SFRSYM    DATA     BIT       IT11
      000000C9H   SFRSYM    DATA     BYTE      RST_SR
      000000D9H   SFRSYM    DATA     BYTE      EVT_FILT
      000000B0H.6 SFRSYM    DATA     BIT       GP36
      000000A0H.7 SFRSYM    DATA     BIT       GP27
      00000090H   SFRSYM    DATA     BYTE      P1
      000000B0H.7 SFRSYM    DATA     BIT       GP37
      000000A0H   SFRSYM    DATA     BYTE      P2
      000000F4H   SFRSYM    DATA     WORD      PI_UKMAX
      000000B0H   SFRSYM    DATA     BYTE      P3
      000000E8H   SFRSYM    DATA     BYTE      P4
      000000D0H.6 SFRSYM    DATA     BIT       AC
      000000A8H.7 SFRSYM    DATA     BIT       EA
      000000D5H   SFRSYM    DATA     BYTE      CMP_CR0
      000000D6H   SFRSYM    DATA     BYTE      CMP_CR1
      000000DAH   SFRSYM    DATA     BYTE      CMP_CR2
      000000B8H.2 SFRSYM    DATA     BIT       PX00
      000000DCH   SFRSYM    DATA     BYTE      CMP_CR3
      000000F8H.0 SFRSYM    DATA     BIT       OISUH
      000000EAH   SFRSYM    DATA     WORD      PI_EK
      000000B8H.3 SFRSYM    DATA     BIT       PX01
      000000B8H.4 SFRSYM    DATA     BIT       PX10
      000000F8H.2 SFRSYM    DATA     BIT       OISVH
      000000B8H.5 SFRSYM    DATA     BIT       PX11
      000000F8H.1 SFRSYM    DATA     BIT       OISUL
      000000DDH   SFRSYM    DATA     BYTE      LPF_K
      000000F2H   SFRSYM    DATA     WORD      PI_KI
      000000A8H   SFRSYM    DATA     BYTE      IE
      000000F8H.3 SFRSYM    DATA     BIT       OISVL
      000000EEH   SFRSYM    DATA     WORD      PI_KP
      000000AAH   SFRSYM    DATA     WORD      TIM2__CNTR
      000000A2H   SFRSYM    DATA     WORD      TIM3__CNTR
      00000092H   SFRSYM    DATA     WORD      TIM4__CNTR
      000000ECH   SFRSYM    DATA     WORD      PI_UK
      000000DEH   SFRSYM    DATA     WORD      LPF_X
      00000098H.0 SFRSYM    DATA     BIT       RI
      00000098H.6 SFRSYM    DATA     BIT       UT_MOD0
      000000E6H   SFRSYM    DATA     WORD      LPF_Y
      00000098H.7 SFRSYM    DATA     BIT       UT_MOD1
      000000D0H.7 SFRSYM    DATA     BIT       CY
      00000098H.1 SFRSYM    DATA     BIT       TI
      000000C0H.2 SFRSYM    DATA     BIT       PTIM10
      00000084H   SFRSYM    DATA     BYTE      FLA_KEY
      000000C0H.0 SFRSYM    DATA     BIT       PTIM20
      000000C0H.3 SFRSYM    DATA     BIT       PTIM11
      00000098H   SFRSYM    DATA     BYTE      UT_CR
      000000C8H.2 SFRSYM    DATA     BIT       PTIM30
      000000C0H.1 SFRSYM    DATA     BIT       PTIM21
LX51 LINKER/LOCATER V4.66.100.0                                                       04/25/2024  14:24:29  PAGE 152


      00000099H   SFRSYM    DATA     BYTE      UT_DR
      000000C8H.3 SFRSYM    DATA     BIT       PTIM31
      000000D0H.2 SFRSYM    DATA     BIT       OV
      0000009AH   SFRSYM    DATA     WORD      UT_BAUD
      000000C4H   SFRSYM    DATA     WORD      MDU_DA01
      000000CCH   SFRSYM    DATA     WORD      MDU_DB01
      00000087H   SFRSYM    DATA     BYTE      PCON
      000000C6H   SFRSYM    DATA     WORD      MDU_DA23
      00000088H   SFRSYM    DATA     BYTE      TCON
      00000082H   SFRSYM    DATA     WORD      DPTR
      000000D8H.0 SFRSYM    DATA     BIT       PUART0
      000000D8H.1 SFRSYM    DATA     BIT       PUART1
      000000D8H.2 SFRSYM    DATA     BIT       PI2C0
      00000088H.2 SFRSYM    DATA     BIT       IF0
      000000D8H.3 SFRSYM    DATA     BIT       PI2C1
      000000AEH   SFRSYM    DATA     WORD      TIM2__ARR
      000000A1H   SFRSYM    DATA     BYTE      TIM2_CR0
      000000A6H   SFRSYM    DATA     WORD      TIM3__ARR
      0000009CH   SFRSYM    DATA     BYTE      TIM3_CR0
      000000A9H   SFRSYM    DATA     BYTE      TIM2_CR1
      00000096H   SFRSYM    DATA     WORD      TIM4__ARR
      0000009EH   SFRSYM    DATA     BYTE      TIM4_CR0
      0000009DH   SFRSYM    DATA     BYTE      TIM3_CR1
      000000F8H   SFRSYM    DATA     BYTE      DRV_OUT
      0000009FH   SFRSYM    DATA     BYTE      TIM4_CR1
      000000DBH   SFRSYM    DATA     BYTE      LVSR
      000000A8H.4 SFRSYM    DATA     BIT       ES0
      00000085H   SFRSYM    DATA     BYTE      FLA_CR
      000000C0H.4 SFRSYM    DATA     BIT       PADC0
      000000B8H   SFRSYM    DATA     BYTE      IP0
      000000C0H.5 SFRSYM    DATA     BIT       PADC1
      000000C0H   SFRSYM    DATA     BYTE      IP1
      000000C8H   SFRSYM    DATA     BYTE      IP2
      00000098H.2 SFRSYM    DATA     BIT       RB8
      000000D8H   SFRSYM    DATA     BYTE      IP3
      000000A8H.0 SFRSYM    DATA     BIT       EX0
      00000098H.3 SFRSYM    DATA     BIT       TB8
      000000A8H.2 SFRSYM    DATA     BIT       EX1
      000000D0H.0 SFRSYM    DATA     BIT       P
      000000F9H   SFRSYM    DATA     BYTE      PI_LPF_CR
      00000098H.5 SFRSYM    DATA     BIT       SM2
      000000D8H.6 SFRSYM    DATA     BIT       PDMA0
      000000D8H.7 SFRSYM    DATA     BIT       PDMA1
      000000C2H   SFRSYM    DATA     WORD      MDU_MA
      000000D0H.3 SFRSYM    DATA     BIT       RS0
      000000CAH   SFRSYM    DATA     WORD      MDU_MB
      000000D0H.4 SFRSYM    DATA     BIT       RS1
      000000C1H   SFRSYM    DATA     BYTE      MDU_CR
      000000F8H.7 SFRSYM    DATA     BIT       MOE
      000000C0H.6 SFRSYM    DATA     BIT       PCMP0
      000000C0H.7 SFRSYM    DATA     BIT       PCMP1
      000000F8H.4 SFRSYM    DATA     BIT       OISWXH
      00000098H.4 SFRSYM    DATA     BIT       REN
      000000D7H   SFRSYM    DATA     BYTE      CMP_SR
      000000F8H.5 SFRSYM    DATA     BIT       OISWXL
      000000C8H.6 SFRSYM    DATA     BIT       PTSD0
      000000D8H.4 SFRSYM    DATA     BIT       PSPI0
      000000C8H.7 SFRSYM    DATA     BIT       PTSD1
      000000B8H.6 SFRSYM    DATA     BIT       PDRV0
      000000D8H.5 SFRSYM    DATA     BIT       PSPI1
      000000B8H.7 SFRSYM    DATA     BIT       PDRV1
      000000D1H   SFRSYM    DATA     BYTE      P1_IE
      000000D3H   SFRSYM    DATA     BYTE      P2_IE
      000000D2H   SFRSYM    DATA     BYTE      P1_IF
      000000D4H   SFRSYM    DATA     BYTE      P2_IF
LX51 LINKER/LOCATER V4.66.100.0                                                       04/25/2024  14:24:29  PAGE 153


      000000ACH   SFRSYM    DATA     WORD      TIM2__DR
      000000C8H.4 SFRSYM    DATA     BIT       PTIM4S0
      000000FCH   SFRSYM    DATA     BYTE      P0_OE
      000000A4H   SFRSYM    DATA     WORD      TIM3__DR
      000000C8H.5 SFRSYM    DATA     BIT       PTIM4S1
      000000FDH   SFRSYM    DATA     BYTE      P1_OE
      00000094H   SFRSYM    DATA     WORD      TIM4__DR
      000000D0H.5 SFRSYM    DATA     BIT       F0
      000000FEH   SFRSYM    DATA     BYTE      P2_OE
      000000D0H.1 SFRSYM    DATA     BIT       F1
      000000FFH   SFRSYM    DATA     BYTE      P3_OE
      00000080H.0 SFRSYM    DATA     BIT       GP00
      000000E9H   SFRSYM    DATA     BYTE      P4_OE
      00000090H.0 SFRSYM    DATA     BIT       GP10
      00000080H.1 SFRSYM    DATA     BIT       GP01
      000000A0H.0 SFRSYM    DATA     BIT       GP20
      00000090H.1 SFRSYM    DATA     BIT       GP11
      00000080H.2 SFRSYM    DATA     BIT       GP02
      000000B0H.0 SFRSYM    DATA     BIT       GP30
      000000A0H.1 SFRSYM    DATA     BIT       GP21
      00000090H.2 SFRSYM    DATA     BIT       GP12
      00000080H.3 SFRSYM    DATA     BIT       GP03
      000000B8H.0 SFRSYM    DATA     BIT       PLVW0
      000000A8H.1 SFRSYM    DATA     BIT       TSDIE
      000000D0H   SFRSYM    DATA     BYTE      PSW
      000000E8H.0 SFRSYM    DATA     BIT       GP40
      000000B0H.1 SFRSYM    DATA     BIT       GP31
      000000A0H.2 SFRSYM    DATA     BIT       GP22
      00000090H.3 SFRSYM    DATA     BIT       GP13
      00000080H.4 SFRSYM    DATA     BIT       GP04
      000000B8H.1 SFRSYM    DATA     BIT       PLVW1
      000000A8H.3 SFRSYM    DATA     BIT       SPIIE
      00000088H.5 SFRSYM    DATA     BIT       TSDIF
      000000E8H.1 SFRSYM    DATA     BIT       GP41
      000000B0H.2 SFRSYM    DATA     BIT       GP32
      000000A0H.3 SFRSYM    DATA     BIT       GP23
      00000090H.4 SFRSYM    DATA     BIT       GP14
      00000080H.5 SFRSYM    DATA     BIT       GP05
      000000C4H   SFRSYM    DATA     BYTE      MDU_DA0
      000000E8H.2 SFRSYM    DATA     BIT       GP42
      000000B0H.3 SFRSYM    DATA     BIT       GP33
      000000A0H.4 SFRSYM    DATA     BIT       GP24
      00000090H.5 SFRSYM    DATA     BIT       GP15
      00000080H.6 SFRSYM    DATA     BIT       GP06
      000000CCH   SFRSYM    DATA     BYTE      MDU_DB0
      000000C5H   SFRSYM    DATA     BYTE      MDU_DA1
      00000088H.0 SFRSYM    DATA     BIT       IT00

      01003437H   BLOCK     CODE     ---       LVL=0
      00000007H   SYMBOL    DATA     BYTE      Value
      00000021H.7 SYMBOL    BIT      BIT       Status
      01003437H   LINE      CODE     ---       #26
      01003437H   LINE      CODE     ---       #27
      01003437H   LINE      CODE     ---       #28
      01003445H   LINE      CODE     ---       #29
      01003445H   LINE      CODE     ---       #30
      0100344EH   LINE      CODE     ---       #31
      01003459H   LINE      CODE     ---       #32
      01003464H   LINE      CODE     ---       #33
      0100346BH   LINE      CODE     ---       #34
      0100346BH   LINE      CODE     ---       #36
      01003481H   LINE      CODE     ---       #37
      ---         BLOCKEND  ---      ---       LVL=0
      00000006H   SYMBOL    DATA     WORD      Value

LX51 LINKER/LOCATER V4.66.100.0                                                       04/25/2024  14:24:29  PAGE 154


      01003615H   BLOCK     CODE     ---       LVL=0
      00000006H   SYMBOL    DATA     ---       FlashAddress
      01003615H   BLOCK     CODE     NEAR LAB  LVL=1
      00000021H.7 SYMBOL    BIT      BIT       TempEA
      ---         BLOCKEND  ---      ---       LVL=1
      01003615H   LINE      CODE     ---       #92
      01003615H   LINE      CODE     ---       #93
      01003615H   LINE      CODE     ---       #96
      01003619H   LINE      CODE     ---       #97
      0100361BH   LINE      CODE     ---       #99
      01003624H   LINE      CODE     ---       #100
      01003624H   LINE      CODE     ---       #101
      01003627H   LINE      CODE     ---       #102
      0100362AH   LINE      CODE     ---       #103
      0100362DH   LINE      CODE     ---       #104
      0100362EH   LINE      CODE     ---       #105
      01003635H   LINE      CODE     ---       #106
      01003638H   LINE      CODE     ---       #107
      01003638H   LINE      CODE     ---       #109
      0100363CH   LINE      CODE     ---       #111
      01003641H   LINE      CODE     ---       #112
      01003641H   LINE      CODE     ---       #113
      01003644H   LINE      CODE     ---       #114
      01003644H   LINE      CODE     ---       #116
      01003644H   LINE      CODE     ---       #117
      01003646H   LINE      CODE     ---       #118
      01003646H   LINE      CODE     ---       #119
      ---         BLOCKEND  ---      ---       LVL=0

      01003647H   BLOCK     CODE     ---       LVL=0
      00000006H   SYMBOL    DATA     ---       FlashAddress
      00000005H   SYMBOL    DATA     BYTE      FlashData
      01003647H   BLOCK     CODE     NEAR LAB  LVL=1
      00000021H.7 SYMBOL    BIT      BIT       TempEA
      ---         BLOCKEND  ---      ---       LVL=1
      01003647H   LINE      CODE     ---       #129
      01003647H   LINE      CODE     ---       #130
      01003647H   LINE      CODE     ---       #133
      0100364BH   LINE      CODE     ---       #134
      0100364DH   LINE      CODE     ---       #136
      01003656H   LINE      CODE     ---       #137
      01003656H   LINE      CODE     ---       #138
      01003659H   LINE      CODE     ---       #139
      0100365CH   LINE      CODE     ---       #140
      0100365FH   LINE      CODE     ---       #141
      01003660H   LINE      CODE     ---       #142
      01003666H   LINE      CODE     ---       #143
      01003669H   LINE      CODE     ---       #144
      01003669H   LINE      CODE     ---       #146
      0100366DH   LINE      CODE     ---       #148
      01003672H   LINE      CODE     ---       #149
      01003672H   LINE      CODE     ---       #150
      01003675H   LINE      CODE     ---       #151
      01003675H   LINE      CODE     ---       #153
      01003675H   LINE      CODE     ---       #154
      01003677H   LINE      CODE     ---       #155
      01003677H   LINE      CODE     ---       #156
      ---         BLOCKEND  ---      ---       LVL=0

      ---         MODULE    ---      ---       FU68XX_2_DMA
      000000B0H.4 SFRSYM    DATA     BIT       GP34
      000000A0H.5 SFRSYM    DATA     BIT       GP25
      00000090H.6 SFRSYM    DATA     BIT       GP16
      00000080H.7 SFRSYM    DATA     BIT       GP07
      000000CDH   SFRSYM    DATA     BYTE      MDU_DB1
LX51 LINKER/LOCATER V4.66.100.0                                                       04/25/2024  14:24:29  PAGE 155


      000000C6H   SFRSYM    DATA     BYTE      MDU_DA2
      00000088H.1 SFRSYM    DATA     BIT       IT01
      00000088H.3 SFRSYM    DATA     BIT       IT10
      000000B0H.5 SFRSYM    DATA     BIT       GP35
      000000A0H.6 SFRSYM    DATA     BIT       GP26
      00000090H.7 SFRSYM    DATA     BIT       GP17
      00000080H   SFRSYM    DATA     BYTE      P0
      000000F6H   SFRSYM    DATA     WORD      PI_UKMIN
      000000C7H   SFRSYM    DATA     BYTE      MDU_DA3
      00000088H.4 SFRSYM    DATA     BIT       IT11
      000000C9H   SFRSYM    DATA     BYTE      RST_SR
      000000D9H   SFRSYM    DATA     BYTE      EVT_FILT
      000000B0H.6 SFRSYM    DATA     BIT       GP36
      000000A0H.7 SFRSYM    DATA     BIT       GP27
      00000090H   SFRSYM    DATA     BYTE      P1
      000000B0H.7 SFRSYM    DATA     BIT       GP37
      000000A0H   SFRSYM    DATA     BYTE      P2
      000000F4H   SFRSYM    DATA     WORD      PI_UKMAX
      000000B0H   SFRSYM    DATA     BYTE      P3
      000000E8H   SFRSYM    DATA     BYTE      P4
      000000D0H.6 SFRSYM    DATA     BIT       AC
      000000A8H.7 SFRSYM    DATA     BIT       EA
      000000D5H   SFRSYM    DATA     BYTE      CMP_CR0
      000000D6H   SFRSYM    DATA     BYTE      CMP_CR1
      000000DAH   SFRSYM    DATA     BYTE      CMP_CR2
      000000B8H.2 SFRSYM    DATA     BIT       PX00
      000000DCH   SFRSYM    DATA     BYTE      CMP_CR3
      000000F8H.0 SFRSYM    DATA     BIT       OISUH
      000000EAH   SFRSYM    DATA     WORD      PI_EK
      000000B8H.3 SFRSYM    DATA     BIT       PX01
      000000B8H.4 SFRSYM    DATA     BIT       PX10
      000000F8H.2 SFRSYM    DATA     BIT       OISVH
      000000B8H.5 SFRSYM    DATA     BIT       PX11
      000000F8H.1 SFRSYM    DATA     BIT       OISUL
      000000DDH   SFRSYM    DATA     BYTE      LPF_K
      000000F2H   SFRSYM    DATA     WORD      PI_KI
      000000A8H   SFRSYM    DATA     BYTE      IE
      000000F8H.3 SFRSYM    DATA     BIT       OISVL
      000000EEH   SFRSYM    DATA     WORD      PI_KP
      000000AAH   SFRSYM    DATA     WORD      TIM2__CNTR
      000000A2H   SFRSYM    DATA     WORD      TIM3__CNTR
      00000092H   SFRSYM    DATA     WORD      TIM4__CNTR
      000000ECH   SFRSYM    DATA     WORD      PI_UK
      000000DEH   SFRSYM    DATA     WORD      LPF_X
      00000098H.0 SFRSYM    DATA     BIT       RI
      00000098H.6 SFRSYM    DATA     BIT       UT_MOD0
      000000E6H   SFRSYM    DATA     WORD      LPF_Y
      00000098H.7 SFRSYM    DATA     BIT       UT_MOD1
      000000D0H.7 SFRSYM    DATA     BIT       CY
      00000098H.1 SFRSYM    DATA     BIT       TI
      000000C0H.2 SFRSYM    DATA     BIT       PTIM10
      00000084H   SFRSYM    DATA     BYTE      FLA_KEY
      000000C0H.0 SFRSYM    DATA     BIT       PTIM20
      000000C0H.3 SFRSYM    DATA     BIT       PTIM11
      00000098H   SFRSYM    DATA     BYTE      UT_CR
      000000C8H.2 SFRSYM    DATA     BIT       PTIM30
      000000C0H.1 SFRSYM    DATA     BIT       PTIM21
      00000099H   SFRSYM    DATA     BYTE      UT_DR
      000000C8H.3 SFRSYM    DATA     BIT       PTIM31
      000000D0H.2 SFRSYM    DATA     BIT       OV
      0000009AH   SFRSYM    DATA     WORD      UT_BAUD
      000000C4H   SFRSYM    DATA     WORD      MDU_DA01
      000000CCH   SFRSYM    DATA     WORD      MDU_DB01
      00000087H   SFRSYM    DATA     BYTE      PCON
      000000C6H   SFRSYM    DATA     WORD      MDU_DA23
LX51 LINKER/LOCATER V4.66.100.0                                                       04/25/2024  14:24:29  PAGE 156


      00000088H   SFRSYM    DATA     BYTE      TCON
      00000082H   SFRSYM    DATA     WORD      DPTR
      000000D8H.0 SFRSYM    DATA     BIT       PUART0
      000000D8H.1 SFRSYM    DATA     BIT       PUART1
      000000D8H.2 SFRSYM    DATA     BIT       PI2C0
      00000088H.2 SFRSYM    DATA     BIT       IF0
      000000D8H.3 SFRSYM    DATA     BIT       PI2C1
      000000AEH   SFRSYM    DATA     WORD      TIM2__ARR
      000000A1H   SFRSYM    DATA     BYTE      TIM2_CR0
      000000A6H   SFRSYM    DATA     WORD      TIM3__ARR
      0000009CH   SFRSYM    DATA     BYTE      TIM3_CR0
      000000A9H   SFRSYM    DATA     BYTE      TIM2_CR1
      00000096H   SFRSYM    DATA     WORD      TIM4__ARR
      0000009EH   SFRSYM    DATA     BYTE      TIM4_CR0
      0000009DH   SFRSYM    DATA     BYTE      TIM3_CR1
      000000F8H   SFRSYM    DATA     BYTE      DRV_OUT
      0000009FH   SFRSYM    DATA     BYTE      TIM4_CR1
      000000DBH   SFRSYM    DATA     BYTE      LVSR
      000000A8H.4 SFRSYM    DATA     BIT       ES0
      00000085H   SFRSYM    DATA     BYTE      FLA_CR
      000000C0H.4 SFRSYM    DATA     BIT       PADC0
      000000B8H   SFRSYM    DATA     BYTE      IP0
      000000C0H.5 SFRSYM    DATA     BIT       PADC1
      000000C0H   SFRSYM    DATA     BYTE      IP1
      000000C8H   SFRSYM    DATA     BYTE      IP2
      00000098H.2 SFRSYM    DATA     BIT       RB8
      000000D8H   SFRSYM    DATA     BYTE      IP3
      000000A8H.0 SFRSYM    DATA     BIT       EX0
      00000098H.3 SFRSYM    DATA     BIT       TB8
      000000A8H.2 SFRSYM    DATA     BIT       EX1
      000000D0H.0 SFRSYM    DATA     BIT       P
      000000F9H   SFRSYM    DATA     BYTE      PI_LPF_CR
      00000098H.5 SFRSYM    DATA     BIT       SM2
      000000D8H.6 SFRSYM    DATA     BIT       PDMA0
      000000D8H.7 SFRSYM    DATA     BIT       PDMA1
      000000C2H   SFRSYM    DATA     WORD      MDU_MA
      000000D0H.3 SFRSYM    DATA     BIT       RS0
      000000CAH   SFRSYM    DATA     WORD      MDU_MB
      000000D0H.4 SFRSYM    DATA     BIT       RS1
      000000C1H   SFRSYM    DATA     BYTE      MDU_CR
      000000F8H.7 SFRSYM    DATA     BIT       MOE
      000000C0H.6 SFRSYM    DATA     BIT       PCMP0
      000000C0H.7 SFRSYM    DATA     BIT       PCMP1
      000000F8H.4 SFRSYM    DATA     BIT       OISWXH
      00000098H.4 SFRSYM    DATA     BIT       REN
      000000D7H   SFRSYM    DATA     BYTE      CMP_SR
      000000F8H.5 SFRSYM    DATA     BIT       OISWXL
      000000C8H.6 SFRSYM    DATA     BIT       PTSD0
      000000D8H.4 SFRSYM    DATA     BIT       PSPI0
      000000C8H.7 SFRSYM    DATA     BIT       PTSD1
      000000B8H.6 SFRSYM    DATA     BIT       PDRV0
      000000D8H.5 SFRSYM    DATA     BIT       PSPI1
      000000B8H.7 SFRSYM    DATA     BIT       PDRV1
      000000D1H   SFRSYM    DATA     BYTE      P1_IE
      000000D3H   SFRSYM    DATA     BYTE      P2_IE
      000000D2H   SFRSYM    DATA     BYTE      P1_IF
      000000D4H   SFRSYM    DATA     BYTE      P2_IF
      000000ACH   SFRSYM    DATA     WORD      TIM2__DR
      000000C8H.4 SFRSYM    DATA     BIT       PTIM4S0
      000000FCH   SFRSYM    DATA     BYTE      P0_OE
      000000A4H   SFRSYM    DATA     WORD      TIM3__DR
      000000C8H.5 SFRSYM    DATA     BIT       PTIM4S1
      000000FDH   SFRSYM    DATA     BYTE      P1_OE
      00000094H   SFRSYM    DATA     WORD      TIM4__DR
      000000D0H.5 SFRSYM    DATA     BIT       F0
LX51 LINKER/LOCATER V4.66.100.0                                                       04/25/2024  14:24:29  PAGE 157


      000000FEH   SFRSYM    DATA     BYTE      P2_OE
      000000D0H.1 SFRSYM    DATA     BIT       F1
      000000FFH   SFRSYM    DATA     BYTE      P3_OE
      00000080H.0 SFRSYM    DATA     BIT       GP00
      000000E9H   SFRSYM    DATA     BYTE      P4_OE
      00000090H.0 SFRSYM    DATA     BIT       GP10
      00000080H.1 SFRSYM    DATA     BIT       GP01
      000000A0H.0 SFRSYM    DATA     BIT       GP20
      00000090H.1 SFRSYM    DATA     BIT       GP11
      00000080H.2 SFRSYM    DATA     BIT       GP02
      000000B0H.0 SFRSYM    DATA     BIT       GP30
      000000A0H.1 SFRSYM    DATA     BIT       GP21
      00000090H.2 SFRSYM    DATA     BIT       GP12
      00000080H.3 SFRSYM    DATA     BIT       GP03
      000000B8H.0 SFRSYM    DATA     BIT       PLVW0
      000000A8H.1 SFRSYM    DATA     BIT       TSDIE
      000000D0H   SFRSYM    DATA     BYTE      PSW
      000000E8H.0 SFRSYM    DATA     BIT       GP40
      000000B0H.1 SFRSYM    DATA     BIT       GP31
      000000A0H.2 SFRSYM    DATA     BIT       GP22
      00000090H.3 SFRSYM    DATA     BIT       GP13
      00000080H.4 SFRSYM    DATA     BIT       GP04
      000000B8H.1 SFRSYM    DATA     BIT       PLVW1
      000000A8H.3 SFRSYM    DATA     BIT       SPIIE
      00000088H.5 SFRSYM    DATA     BIT       TSDIF
      000000E8H.1 SFRSYM    DATA     BIT       GP41
      000000B0H.2 SFRSYM    DATA     BIT       GP32
      000000A0H.3 SFRSYM    DATA     BIT       GP23
      00000090H.4 SFRSYM    DATA     BIT       GP14
      00000080H.5 SFRSYM    DATA     BIT       GP05
      000000C4H   SFRSYM    DATA     BYTE      MDU_DA0
      000000E8H.2 SFRSYM    DATA     BIT       GP42
      000000B0H.3 SFRSYM    DATA     BIT       GP33
      000000A0H.4 SFRSYM    DATA     BIT       GP24
      00000090H.5 SFRSYM    DATA     BIT       GP15
      00000080H.6 SFRSYM    DATA     BIT       GP06
      000000CCH   SFRSYM    DATA     BYTE      MDU_DB0
      000000C5H   SFRSYM    DATA     BYTE      MDU_DA1
      00000088H.0 SFRSYM    DATA     BIT       IT00
      00000007H   SYMBOL    DATA     BYTE      IEMod
      00000005H   SYMBOL    DATA     BYTE      FirstMod
      00000005H   SYMBOL    DATA     BYTE      Pipe
      00000001H   SYMBOL    DATA     ---       Addr
      00000001H   SYMBOL    DATA     ---       Addr

      ---         MODULE    ---      ---       FU68XX_2_OTHER
      000000B0H.4 SFRSYM    DATA     BIT       GP34
      000000A0H.5 SFRSYM    DATA     BIT       GP25
      00000090H.6 SFRSYM    DATA     BIT       GP16
      00000080H.7 SFRSYM    DATA     BIT       GP07
      000000CDH   SFRSYM    DATA     BYTE      MDU_DB1
      000000C6H   SFRSYM    DATA     BYTE      MDU_DA2
      00000088H.1 SFRSYM    DATA     BIT       IT01
      00000088H.3 SFRSYM    DATA     BIT       IT10
      000000B0H.5 SFRSYM    DATA     BIT       GP35
      000000A0H.6 SFRSYM    DATA     BIT       GP26
      00000090H.7 SFRSYM    DATA     BIT       GP17
      00000080H   SFRSYM    DATA     BYTE      P0
      000000F6H   SFRSYM    DATA     WORD      PI_UKMIN
      000000C7H   SFRSYM    DATA     BYTE      MDU_DA3
      00000088H.4 SFRSYM    DATA     BIT       IT11
      000000C9H   SFRSYM    DATA     BYTE      RST_SR
      000000D9H   SFRSYM    DATA     BYTE      EVT_FILT
      000000B0H.6 SFRSYM    DATA     BIT       GP36
      000000A0H.7 SFRSYM    DATA     BIT       GP27
LX51 LINKER/LOCATER V4.66.100.0                                                       04/25/2024  14:24:29  PAGE 158


      00000090H   SFRSYM    DATA     BYTE      P1
      000000B0H.7 SFRSYM    DATA     BIT       GP37
      000000A0H   SFRSYM    DATA     BYTE      P2
      000000F4H   SFRSYM    DATA     WORD      PI_UKMAX
      000000B0H   SFRSYM    DATA     BYTE      P3
      000000E8H   SFRSYM    DATA     BYTE      P4
      000000D0H.6 SFRSYM    DATA     BIT       AC
      000000A8H.7 SFRSYM    DATA     BIT       EA
      000000D5H   SFRSYM    DATA     BYTE      CMP_CR0
      000000D6H   SFRSYM    DATA     BYTE      CMP_CR1
      000000DAH   SFRSYM    DATA     BYTE      CMP_CR2
      000000B8H.2 SFRSYM    DATA     BIT       PX00
      000000DCH   SFRSYM    DATA     BYTE      CMP_CR3
      000000F8H.0 SFRSYM    DATA     BIT       OISUH
      000000EAH   SFRSYM    DATA     WORD      PI_EK
      000000B8H.3 SFRSYM    DATA     BIT       PX01
      000000B8H.4 SFRSYM    DATA     BIT       PX10
      000000F8H.2 SFRSYM    DATA     BIT       OISVH
      000000B8H.5 SFRSYM    DATA     BIT       PX11
      000000F8H.1 SFRSYM    DATA     BIT       OISUL
      000000DDH   SFRSYM    DATA     BYTE      LPF_K
      000000F2H   SFRSYM    DATA     WORD      PI_KI
      000000A8H   SFRSYM    DATA     BYTE      IE
      000000F8H.3 SFRSYM    DATA     BIT       OISVL
      000000EEH   SFRSYM    DATA     WORD      PI_KP
      000000AAH   SFRSYM    DATA     WORD      TIM2__CNTR
      000000A2H   SFRSYM    DATA     WORD      TIM3__CNTR
      00000092H   SFRSYM    DATA     WORD      TIM4__CNTR
      000000ECH   SFRSYM    DATA     WORD      PI_UK
      000000DEH   SFRSYM    DATA     WORD      LPF_X
      00000098H.0 SFRSYM    DATA     BIT       RI
      00000098H.6 SFRSYM    DATA     BIT       UT_MOD0
      000000E6H   SFRSYM    DATA     WORD      LPF_Y
      00000098H.7 SFRSYM    DATA     BIT       UT_MOD1
      000000D0H.7 SFRSYM    DATA     BIT       CY
      00000098H.1 SFRSYM    DATA     BIT       TI
      000000C0H.2 SFRSYM    DATA     BIT       PTIM10
      00000084H   SFRSYM    DATA     BYTE      FLA_KEY
      000000C0H.0 SFRSYM    DATA     BIT       PTIM20
      000000C0H.3 SFRSYM    DATA     BIT       PTIM11
      00000098H   SFRSYM    DATA     BYTE      UT_CR
      000000C8H.2 SFRSYM    DATA     BIT       PTIM30
      000000C0H.1 SFRSYM    DATA     BIT       PTIM21
      00000099H   SFRSYM    DATA     BYTE      UT_DR
      000000C8H.3 SFRSYM    DATA     BIT       PTIM31
      000000D0H.2 SFRSYM    DATA     BIT       OV
      0000009AH   SFRSYM    DATA     WORD      UT_BAUD
      000000C4H   SFRSYM    DATA     WORD      MDU_DA01
      000000CCH   SFRSYM    DATA     WORD      MDU_DB01
      00000087H   SFRSYM    DATA     BYTE      PCON
      000000C6H   SFRSYM    DATA     WORD      MDU_DA23
      00000088H   SFRSYM    DATA     BYTE      TCON
      00000082H   SFRSYM    DATA     WORD      DPTR
      000000D8H.0 SFRSYM    DATA     BIT       PUART0
      000000D8H.1 SFRSYM    DATA     BIT       PUART1
      000000D8H.2 SFRSYM    DATA     BIT       PI2C0
      00000088H.2 SFRSYM    DATA     BIT       IF0
      000000D8H.3 SFRSYM    DATA     BIT       PI2C1
      000000AEH   SFRSYM    DATA     WORD      TIM2__ARR
      000000A1H   SFRSYM    DATA     BYTE      TIM2_CR0
      000000A6H   SFRSYM    DATA     WORD      TIM3__ARR
      0000009CH   SFRSYM    DATA     BYTE      TIM3_CR0
      000000A9H   SFRSYM    DATA     BYTE      TIM2_CR1
      00000096H   SFRSYM    DATA     WORD      TIM4__ARR
      0000009EH   SFRSYM    DATA     BYTE      TIM4_CR0
LX51 LINKER/LOCATER V4.66.100.0                                                       04/25/2024  14:24:29  PAGE 159


      0000009DH   SFRSYM    DATA     BYTE      TIM3_CR1
      000000F8H   SFRSYM    DATA     BYTE      DRV_OUT
      0000009FH   SFRSYM    DATA     BYTE      TIM4_CR1
      000000DBH   SFRSYM    DATA     BYTE      LVSR
      000000A8H.4 SFRSYM    DATA     BIT       ES0
      00000085H   SFRSYM    DATA     BYTE      FLA_CR
      000000C0H.4 SFRSYM    DATA     BIT       PADC0
      000000B8H   SFRSYM    DATA     BYTE      IP0
      000000C0H.5 SFRSYM    DATA     BIT       PADC1
      000000C0H   SFRSYM    DATA     BYTE      IP1
      000000C8H   SFRSYM    DATA     BYTE      IP2
      00000098H.2 SFRSYM    DATA     BIT       RB8
      000000D8H   SFRSYM    DATA     BYTE      IP3
      000000A8H.0 SFRSYM    DATA     BIT       EX0
      00000098H.3 SFRSYM    DATA     BIT       TB8
      000000A8H.2 SFRSYM    DATA     BIT       EX1
      000000D0H.0 SFRSYM    DATA     BIT       P
      000000F9H   SFRSYM    DATA     BYTE      PI_LPF_CR
      00000098H.5 SFRSYM    DATA     BIT       SM2
      000000D8H.6 SFRSYM    DATA     BIT       PDMA0
      000000D8H.7 SFRSYM    DATA     BIT       PDMA1
      000000C2H   SFRSYM    DATA     WORD      MDU_MA
      000000D0H.3 SFRSYM    DATA     BIT       RS0
      000000CAH   SFRSYM    DATA     WORD      MDU_MB
      000000D0H.4 SFRSYM    DATA     BIT       RS1
      000000C1H   SFRSYM    DATA     BYTE      MDU_CR
      000000F8H.7 SFRSYM    DATA     BIT       MOE
      000000C0H.6 SFRSYM    DATA     BIT       PCMP0
      000000C0H.7 SFRSYM    DATA     BIT       PCMP1
      000000F8H.4 SFRSYM    DATA     BIT       OISWXH
      00000098H.4 SFRSYM    DATA     BIT       REN
      000000D7H   SFRSYM    DATA     BYTE      CMP_SR
      000000F8H.5 SFRSYM    DATA     BIT       OISWXL
      000000C8H.6 SFRSYM    DATA     BIT       PTSD0
      000000D8H.4 SFRSYM    DATA     BIT       PSPI0
      000000C8H.7 SFRSYM    DATA     BIT       PTSD1
      000000B8H.6 SFRSYM    DATA     BIT       PDRV0
      000000D8H.5 SFRSYM    DATA     BIT       PSPI1
      000000B8H.7 SFRSYM    DATA     BIT       PDRV1
      000000D1H   SFRSYM    DATA     BYTE      P1_IE
      000000D3H   SFRSYM    DATA     BYTE      P2_IE
      000000D2H   SFRSYM    DATA     BYTE      P1_IF
      000000D4H   SFRSYM    DATA     BYTE      P2_IF
      000000ACH   SFRSYM    DATA     WORD      TIM2__DR
      000000C8H.4 SFRSYM    DATA     BIT       PTIM4S0
      000000FCH   SFRSYM    DATA     BYTE      P0_OE
      000000A4H   SFRSYM    DATA     WORD      TIM3__DR
      000000C8H.5 SFRSYM    DATA     BIT       PTIM4S1
      000000FDH   SFRSYM    DATA     BYTE      P1_OE
      00000094H   SFRSYM    DATA     WORD      TIM4__DR
      000000D0H.5 SFRSYM    DATA     BIT       F0
      000000FEH   SFRSYM    DATA     BYTE      P2_OE
      000000D0H.1 SFRSYM    DATA     BIT       F1
      000000FFH   SFRSYM    DATA     BYTE      P3_OE
      00000080H.0 SFRSYM    DATA     BIT       GP00
      000000E9H   SFRSYM    DATA     BYTE      P4_OE
      00000090H.0 SFRSYM    DATA     BIT       GP10
      00000080H.1 SFRSYM    DATA     BIT       GP01
      000000A0H.0 SFRSYM    DATA     BIT       GP20
      00000090H.1 SFRSYM    DATA     BIT       GP11
      00000080H.2 SFRSYM    DATA     BIT       GP02
      000000B0H.0 SFRSYM    DATA     BIT       GP30
      000000A0H.1 SFRSYM    DATA     BIT       GP21
      00000090H.2 SFRSYM    DATA     BIT       GP12
      00000080H.3 SFRSYM    DATA     BIT       GP03
LX51 LINKER/LOCATER V4.66.100.0                                                       04/25/2024  14:24:29  PAGE 160


      000000B8H.0 SFRSYM    DATA     BIT       PLVW0
      000000A8H.1 SFRSYM    DATA     BIT       TSDIE
      000000D0H   SFRSYM    DATA     BYTE      PSW
      000000E8H.0 SFRSYM    DATA     BIT       GP40
      000000B0H.1 SFRSYM    DATA     BIT       GP31
      000000A0H.2 SFRSYM    DATA     BIT       GP22
      00000090H.3 SFRSYM    DATA     BIT       GP13
      00000080H.4 SFRSYM    DATA     BIT       GP04
      000000B8H.1 SFRSYM    DATA     BIT       PLVW1
      000000A8H.3 SFRSYM    DATA     BIT       SPIIE
      00000088H.5 SFRSYM    DATA     BIT       TSDIF
      000000E8H.1 SFRSYM    DATA     BIT       GP41
      000000B0H.2 SFRSYM    DATA     BIT       GP32
      000000A0H.3 SFRSYM    DATA     BIT       GP23
      00000090H.4 SFRSYM    DATA     BIT       GP14
      00000080H.5 SFRSYM    DATA     BIT       GP05
      000000C4H   SFRSYM    DATA     BYTE      MDU_DA0
      000000E8H.2 SFRSYM    DATA     BIT       GP42
      000000B0H.3 SFRSYM    DATA     BIT       GP33
      000000A0H.4 SFRSYM    DATA     BIT       GP24
      00000090H.5 SFRSYM    DATA     BIT       GP15
      00000080H.6 SFRSYM    DATA     BIT       GP06
      000000CCH   SFRSYM    DATA     BYTE      MDU_DB0
      000000C5H   SFRSYM    DATA     BYTE      MDU_DA1
      00000088H.0 SFRSYM    DATA     BIT       IT00
      00000006H   SYMBOL    DATA     BYTE      i
      00000006H   SYMBOL    DATA     BYTE      j

      ---         MODULE    ---      ---       ?C?FPADD
      01000085H   PUBLIC    CODE     ---       ?C?FPADD
      01000081H   PUBLIC    CODE     ---       ?C?FPSUB

      ---         MODULE    ---      ---       ?C?FPMUL
      01000176H   PUBLIC    CODE     ---       ?C?FPMUL

      ---         MODULE    ---      ---       ?C?FPDIV
      0100027FH   PUBLIC    CODE     ---       ?C?FPDIV

      ---         MODULE    ---      ---       ?C?FPCMP
      0100031EH   PUBLIC    CODE     ---       ?C?FPCMP
      0100031CH   PUBLIC    CODE     ---       ?C?FPCMP3

      ---         MODULE    ---      ---       ?C?FCAST
      0100039FH   PUBLIC    CODE     ---       ?C?FCASTC
      0100039AH   PUBLIC    CODE     ---       ?C?FCASTI
      01000395H   PUBLIC    CODE     ---       ?C?FCASTL

      ---         MODULE    ---      ---       ?C?CASTF
      010003D3H   PUBLIC    CODE     ---       ?C?CASTF

      ---         MODULE    ---      ---       ?C?FPGETOPN
      0100040AH   PUBLIC    CODE     ---       ?C?FPGETOPN2
      0100043FH   PUBLIC    CODE     ---       ?C?FPNANRESULT
      01000449H   PUBLIC    CODE     ---       ?C?FPOVERFLOW
      01000421H   PUBLIC    CODE     ---       ?C?FPRESULT
      01000435H   PUBLIC    CODE     ---       ?C?FPRESULT2
      01000446H   PUBLIC    CODE     ---       ?C?FPUNDERFLOW

      ---         MODULE    ---      ---       ?C_STARTUP
      01000000H   PUBLIC    CODE     ---       ?C_STARTUP

      ---         MODULE    ---      ---       ?C?CLDPTR
      01000454H   PUBLIC    CODE     ---       ?C?CLDPTR

      ---         MODULE    ---      ---       ?C?CLDOPTR
LX51 LINKER/LOCATER V4.66.100.0                                                       04/25/2024  14:24:29  PAGE 161


      0100046DH   PUBLIC    CODE     ---       ?C?CLDOPTR

      ---         MODULE    ---      ---       ?C?CILDPTR
      0100049AH   PUBLIC    CODE     ---       ?C?CILDPTR

      ---         MODULE    ---      ---       ?C?CILDOPTR
      010004BCH   PUBLIC    CODE     ---       ?C?CILDOPTR

      ---         MODULE    ---      ---       ?C?CSTPTR
      010004EFH   PUBLIC    CODE     ---       ?C?CSTPTR

      ---         MODULE    ---      ---       ?C?CSTOPTR
      01000501H   PUBLIC    CODE     ---       ?C?CSTOPTR

      ---         MODULE    ---      ---       ?C?IMUL
      01000523H   PUBLIC    CODE     ---       ?C?IMUL

      ---         MODULE    ---      ---       ?C?UIDIV
      01000535H   PUBLIC    CODE     ---       ?C?UIDIV

      ---         MODULE    ---      ---       ?C?IILDX
      0100058AH   PUBLIC    CODE     ---       ?C?IILDX

      ---         MODULE    ---      ---       ?C?ILDIX
      010005A0H   PUBLIC    CODE     ---       ?C?ILDIX

      ---         MODULE    ---      ---       ?C?ILDPTR
      010005B6H   PUBLIC    CODE     ---       ?C?ILDPTR

      ---         MODULE    ---      ---       ?C?ILDOPTR
      010005E1H   PUBLIC    CODE     ---       ?C?ILDOPTR

      ---         MODULE    ---      ---       ?C?IILDPTR
      01000619H   PUBLIC    CODE     ---       ?C?IILDPTR

      ---         MODULE    ---      ---       ?C?IILDOPTR
      01000651H   PUBLIC    CODE     ---       ?C?IILDOPTR

      ---         MODULE    ---      ---       ?C?ISTPTR
      0100069EH   PUBLIC    CODE     ---       ?C?ISTPTR

      ---         MODULE    ---      ---       ?C?ISTOPTR
      010006BDH   PUBLIC    CODE     ---       ?C?ISTOPTR

      ---         MODULE    ---      ---       ?C?LMUL
      010006EAH   PUBLIC    CODE     ---       ?C?LMUL

      ---         MODULE    ---      ---       ?C?ULDIV
      01000775H   PUBLIC    CODE     ---       ?C?ULDIV

      ---         MODULE    ---      ---       ?C?LNEG
      01000807H   PUBLIC    CODE     ---       ?C?LNEG

      ---         MODULE    ---      ---       ?C?SLCMP
      01000815H   PUBLIC    CODE     ---       ?C?SLCMP

      ---         MODULE    ---      ---       ?C?ULCMP
      0100082BH   PUBLIC    CODE     ---       ?C?ULCMP

      ---         MODULE    ---      ---       ?C?ULSHR
      0100083CH   PUBLIC    CODE     ---       ?C?ULSHR

      ---         MODULE    ---      ---       ?C?SLSHR
      0100084FH   PUBLIC    CODE     ---       ?C?SLSHR

LX51 LINKER/LOCATER V4.66.100.0                                                       04/25/2024  14:24:29  PAGE 162


      ---         MODULE    ---      ---       ?C?LLDOPTR
      01000863H   PUBLIC    CODE     ---       ?C?LLDOPTR

      ---         MODULE    ---      ---       ?C?LSTOPTR
      01000893H   PUBLIC    CODE     ---       ?C?LSTOPTR

      ---         MODULE    ---      ---       ?C?LLDIDATA
      010008B7H   PUBLIC    CODE     ---       ?C?LLDIDATA

      ---         MODULE    ---      ---       ?C?LLDIDATA0
      010008C3H   PUBLIC    CODE     ---       ?C?LLDIDATA0

      ---         MODULE    ---      ---       ?C?LSTIDATA
      010008D0H   PUBLIC    CODE     ---       ?C?LSTIDATA

      ---         MODULE    ---      ---       ?C?LSTXDATA
      010008DCH   PUBLIC    CODE     ---       ?C?LSTXDATA

      ---         MODULE    ---      ---       ?C?LSTKIDATA
      010008E8H   PUBLIC    CODE     ---       ?C?LSTKIDATA

      ---         MODULE    ---      ---       ?C?LSTKXDATA
      01000901H   PUBLIC    CODE     ---       ?C?LSTKXDATA

      ---         MODULE    ---      ---       ?C?LIMUL
      01000932H   PUBLIC    CODE     ---       ?C?LIMUL

      ---         MODULE    ---      ---       ?C?MEMSET
      0100095FH   PUBLIC    CODE     ---       ?C?MEMSET

      ---         MODULE    ---      ---       ?C_INIT
      01002DFBH   PUBLIC    CODE     ---       ?C_START

      ---         MODULE    ---      ---       ?C?LLDXDATA
      0100098BH   PUBLIC    CODE     ---       ?C?LLDXDATA

      ---         MODULE    ---      ---       ?C?LLDPDATA
      01000997H   PUBLIC    CODE     ---       ?C?LLDPDATA

      ---         MODULE    ---      ---       ?C?LLDCODE
      010009A3H   PUBLIC    CODE     ---       ?C?LLDCODE

      ---         MODULE    ---      ---       ?C?LSTPDATA
      010009B3H   PUBLIC    CODE     ---       ?C?LSTPDATA



*** WARNING L25: DATA TYPES DIFFERENT
    SYMBOL:  CalSpeedStepToCmd
    MODULE:  .\Output\UserMain.obj (USERMAIN)
   DEFINED:  .\Output\UserDryer.obj (USERDRYER)

*** WARNING L25: DATA TYPES DIFFERENT
    SYMBOL:  LoopProPer1ms
    MODULE:  .\Output\UserMain.obj (USERMAIN)
   DEFINED:  .\Output\UserFrame.obj (USERFRAME)

*** WARNING L25: DATA TYPES DIFFERENT
    SYMBOL:  CalHeatStepToCmd
    MODULE:  .\Output\UserMain.obj (USERMAIN)
   DEFINED:  .\Output\UserDryer.obj (USERDRYER)

*** WARNING L25: DATA TYPES DIFFERENT
    SYMBOL:  DryerFlashInit
    MODULE:  .\Output\UserMain.obj (USERMAIN)
LX51 LINKER/LOCATER V4.66.100.0                                                       04/25/2024  14:24:29  PAGE 163


   DEFINED:  .\Output\UserFlash.obj (USERFLASH)

*** WARNING L25: DATA TYPES DIFFERENT
    SYMBOL:  UserParas
    MODULE:  .\Output\UserMain.obj (USERMAIN)
   DEFINED:  .\Output\UserFrame.obj (USERFRAME)

*** WARNING L25: DATA TYPES DIFFERENT
    SYMBOL:  Regulation
    MODULE:  .\Output\UserMain.obj (USERMAIN)
   DEFINED:  .\Output\UserAddFunc.obj (USERADDFUNC)

*** WARNING L25: DATA TYPES DIFFERENT
    SYMBOL:  CommandPer10ms
    MODULE:  .\Output\UserMain.obj (USERMAIN)
   DEFINED:  .\Output\UserFrame.obj (USERFRAME)

*** WARNING L25: DATA TYPES DIFFERENT
    SYMBOL:  CalCoolLvToCmd
    MODULE:  .\Output\UserMain.obj (USERMAIN)
   DEFINED:  .\Output\UserDryer.obj (USERDRYER)

*** WARNING L25: DATA TYPES DIFFERENT
    SYMBOL:  FlashLoopPro
    MODULE:  .\Output\UserMain.obj (USERMAIN)
   DEFINED:  .\Output\UserFlash.obj (USERFLASH)

*** WARNING L25: DATA TYPES DIFFERENT
    SYMBOL:  DryerPer1ms
    MODULE:  .\Output\UserMain.obj (USERMAIN)
   DEFINED:  .\Output\UserDryer.obj (USERDRYER)

*** WARNING L25: DATA TYPES DIFFERENT
    SYMBOL:  ShutPerform
    MODULE:  .\Output\UserInterrupt.obj (USERINTERRUPT)
   DEFINED:  .\Output\UserAddFunc.obj (USERADDFUNC)

*** WARNING L25: DATA TYPES DIFFERENT
    SYMBOL:  SetFaultResatrt
    MODULE:  .\Output\UserInterrupt.obj (USERINTERRUPT)
   DEFINED:  .\Output\UserAddFunc.obj (USERADDFUNC)

*** WARNING L25: DATA TYPES DIFFERENT
    SYMBOL:  CheckCurrent
    MODULE:  .\Output\UserInterrupt.obj (USERINTERRUPT)
   DEFINED:  .\Output\UserCalculate.obj (USERCALCULATE)

*** WARNING L25: DATA TYPES DIFFERENT
    SYMBOL:  ShutPerform
    MODULE:  .\Output\UserFrame.obj (USERFRAME)
   DEFINED:  .\Output\UserAddFunc.obj (USERADDFUNC)

*** WARNING L25: DATA TYPES DIFFERENT
    SYMBOL:  SetFaultResatrt
    MODULE:  .\Output\UserFrame.obj (USERFRAME)
   DEFINED:  .\Output\UserAddFunc.obj (USERADDFUNC)

*** WARNING L25: DATA TYPES DIFFERENT
    SYMBOL:  CancleResatrt
    MODULE:  .\Output\UserFrame.obj (USERFRAME)
   DEFINED:  .\Output\UserAddFunc.obj (USERADDFUNC)

*** WARNING L25: DATA TYPES DIFFERENT
    SYMBOL:  CheckHeatTemper
    MODULE:  .\Output\UserFrame.obj (USERFRAME)
LX51 LINKER/LOCATER V4.66.100.0                                                       04/25/2024  14:24:29  PAGE 164


   DEFINED:  .\Output\UserCalculate.obj (USERCALCULATE)

*** WARNING L25: DATA TYPES DIFFERENT
    SYMBOL:  CheckStallFault
    MODULE:  .\Output\UserFrame.obj (USERFRAME)
   DEFINED:  .\Output\UserAddFunc.obj (USERADDFUNC)

*** WARNING L25: DATA TYPES DIFFERENT
    SYMBOL:  CheckStartFault
    MODULE:  .\Output\UserFrame.obj (USERFRAME)
   DEFINED:  .\Output\UserAddFunc.obj (USERADDFUNC)

*** WARNING L25: DATA TYPES DIFFERENT
    SYMBOL:  ShutPerform
    MODULE:  .\Output\UserCalculate.obj (USERCALCULATE)
   DEFINED:  .\Output\UserAddFunc.obj (USERADDFUNC)

*** WARNING L25: DATA TYPES DIFFERENT
    SYMBOL:  SetFaultResatrt
    MODULE:  .\Output\UserCalculate.obj (USERCALCULATE)
   DEFINED:  .\Output\UserAddFunc.obj (USERADDFUNC)

*** WARNING L25: DATA TYPES DIFFERENT
    SYMBOL:  DryerKeysDefault
    MODULE:  .\Output\UserFlash.obj (USERFLASH)
   DEFINED:  .\Output\UserDryer.obj (USERDRYER)

Program Size: data=195.0 xdata=719 const=0 code=14438
LX51 RUN COMPLETE.  22 WARNING(S),  0 ERROR(S)
